
service-reveng4:     file format elf64-x86-64


Disassembly of section .init:

0000000000401000 <_init>:
  401000:	50                   	push   %rax
  401001:	e8 c7 00 00 00       	call   4010cd <frame_dummy>
  401006:	e8 e3 30 00 00       	call   4040ee <__do_global_ctors_aux>
  40100b:	58                   	pop    %rax
  40100c:	c3                   	ret

Disassembly of section .text:

0000000000401010 <exit>:
  401010:	53                   	push   %rbx
  401011:	89 fb                	mov    %edi,%ebx
  401013:	e8 6a 04 00 00       	call   401482 <__funcs_on_exit>
  401018:	e8 66 04 00 00       	call   401483 <__libc_exit_fini>
  40101d:	31 c0                	xor    %eax,%eax
  40101f:	e8 41 2f 00 00       	call   403f65 <__stdio_exit>
  401024:	89 df                	mov    %ebx,%edi
  401026:	67 e8 87 27 00 00    	addr32 call 4037b3 <_Exit>

000000000040102c <_start>:
  40102c:	48 31 ed             	xor    %rbp,%rbp
  40102f:	48 89 e7             	mov    %rsp,%rdi
  401032:	48 8d 35 c7 ef bf ff 	lea    -0x401039(%rip),%rsi        # 0 <_init-0x401000>
  401039:	48 83 e4 f0          	and    $0xfffffffffffffff0,%rsp
  40103d:	e8 00 00 00 00       	call   401042 <_start_c>

0000000000401042 <_start_c>:
  401042:	48 8d 57 08          	lea    0x8(%rdi),%rdx
  401046:	48 8b 37             	mov    (%rdi),%rsi
  401049:	45 31 c9             	xor    %r9d,%r9d
  40104c:	49 c7 c0 0e 41 40 00 	mov    $0x40410e,%r8
  401053:	48 c7 c1 00 10 40 00 	mov    $0x401000,%rcx
  40105a:	48 c7 c7 e7 10 40 00 	mov    $0x4010e7,%rdi
  401061:	e9 ec 03 00 00       	jmp    401452 <__libc_start_main>
  401066:	90                   	nop

0000000000401067 <__do_global_dtors_aux>:
  401067:	80 3d b2 61 00 00 00 	cmpb   $0x0,0x61b2(%rip)        # 407220 <completed.5751>
  40106e:	75 5c                	jne    4010cc <__do_global_dtors_aux+0x65>
  401070:	55                   	push   %rbp
  401071:	48 89 e5             	mov    %rsp,%rbp
  401074:	41 54                	push   %r12
  401076:	41 bc f0 6f 40 00    	mov    $0x406ff0,%r12d
  40107c:	53                   	push   %rbx
  40107d:	bb f8 6f 40 00       	mov    $0x406ff8,%ebx
  401082:	48 81 eb f0 6f 40 00 	sub    $0x406ff0,%rbx
  401089:	48 c1 fb 03          	sar    $0x3,%rbx
  40108d:	48 ff cb             	dec    %rbx
  401090:	48 8b 05 91 61 00 00 	mov    0x6191(%rip),%rax        # 407228 <dtor_idx.5753>
  401097:	48 39 d8             	cmp    %rbx,%rax
  40109a:	73 10                	jae    4010ac <__do_global_dtors_aux+0x45>
  40109c:	48 ff c0             	inc    %rax
  40109f:	48 89 05 82 61 00 00 	mov    %rax,0x6182(%rip)        # 407228 <dtor_idx.5753>
  4010a6:	41 ff 14 c4          	call   *(%r12,%rax,8)
  4010aa:	eb e4                	jmp    401090 <__do_global_dtors_aux+0x29>
  4010ac:	b8 00 00 00 00       	mov    $0x0,%eax
  4010b1:	48 85 c0             	test   %rax,%rax
  4010b4:	74 0a                	je     4010c0 <__do_global_dtors_aux+0x59>
  4010b6:	bf c0 5c 40 00       	mov    $0x405cc0,%edi
  4010bb:	e8 40 ef bf ff       	call   0 <_init-0x401000>
  4010c0:	5b                   	pop    %rbx
  4010c1:	41 5c                	pop    %r12
  4010c3:	c6 05 56 61 00 00 01 	movb   $0x1,0x6156(%rip)        # 407220 <completed.5751>
  4010ca:	5d                   	pop    %rbp
  4010cb:	c3                   	ret
  4010cc:	c3                   	ret

00000000004010cd <frame_dummy>:
  4010cd:	b8 00 00 00 00       	mov    $0x0,%eax
  4010d2:	48 85 c0             	test   %rax,%rax
  4010d5:	74 0f                	je     4010e6 <frame_dummy+0x19>
  4010d7:	be 40 72 40 00       	mov    $0x407240,%esi
  4010dc:	bf c0 5c 40 00       	mov    $0x405cc0,%edi
  4010e1:	e9 1a ef bf ff       	jmp    0 <_init-0x401000>
  4010e6:	c3                   	ret

00000000004010e7 <main>:
  4010e7:	55                   	push   %rbp
  4010e8:	48 89 e5             	mov    %rsp,%rbp
  4010eb:	48 81 ec 20 04 00 00 	sub    $0x420,%rsp
  4010f2:	c7 45 fc 00 00 00 00 	movl   $0x0,-0x4(%rbp)
  4010f9:	48 b8 41 42 43 44 45 	movabs $0x4847464544434241,%rax
  401100:	46 47 48 
  401103:	48 89 85 e7 fb ff ff 	mov    %rax,-0x419(%rbp) /* bp[-419] = 520820875738214273
  40110a:	c6 85 ef fb ff ff 00 	movb   $0x0,-0x411(%rbp) /* bp[-411] = 0
  401111:	bf 0c 50 40 00       	mov    $0x40500c,%edi
  401116:	b8 00 00 00 00       	mov    $0x0,%eax
  40111b:	e8 38 06 00 00       	call   401758 <printf>
  401120:	48 8b 05 01 3f 00 00 	mov    0x3f01(%rip),%rax        # 405028 <stdin>
  401127:	48 89 c7             	mov    %rax,%rdi
  40112a:	e8 75 03 00 00       	call   4014a4 <fflush>
  40112f:	48 8b 15 f2 3e 00 00 	mov    0x3ef2(%rip),%rdx        # 405028 <stdin>
  401136:	48 8d 85 f0 fb ff ff 	lea    -0x410(%rbp),%rax
  40113d:	be 00 04 00 00       	mov    $0x400,%esi
  401142:	48 89 c7             	mov    %rax,%rdi
  401145:	e8 8f 04 00 00       	call   4015d9 <fgets> ****/ fgets */
  40114a:	0f b6 95 f0 fb ff ff 	movzbl -0x410(%rbp),%edx
  401151:	0f b6 85 ed fb ff ff 	movzbl -0x413(%rbp),%eax
  401158:	38 c2                	cmp    %al,%dl
  40115a:	74 14                	je     401170 <main+0x89>
  40115c:	bf 17 50 40 00       	mov    $0x405017,%edi // error call after fgets
  401161:	e8 8f 06 00 00       	call   4017f5 <puts>
  401166:	bf 01 00 00 00       	mov    $0x1,%edi
  40116b:	e8 a0 fe ff ff       	call   401010 <exit> // error end
  401170:	0f b6 95 f1 fb ff ff 	movzbl -0x40f(%rbp),%edx bp[-40f]
  401177:	0f b6 85 eb fb ff ff 	movzbl -0x415(%rbp),%eax
  40117e:	38 c2                	cmp    %al,%dl
  401180:	74 14                	je     401196 <main+0xaf>
  401182:	bf 17 50 40 00       	mov    $0x405017,%edi
  401187:	e8 69 06 00 00       	call   4017f5 <puts>
  40118c:	bf 01 00 00 00       	mov    $0x1,%edi
  401191:	e8 7a fe ff ff       	call   401010 <exit>
  401196:	0f b6 95 f2 fb ff ff 	movzbl -0x40e(%rbp),%edx
  40119d:	0f b6 85 e8 fb ff ff 	movzbl -0x418(%rbp),%eax
  4011a4:	38 c2                	cmp    %al,%dl
  4011a6:	74 14                	je     4011bc <main+0xd5>
  4011a8:	bf 17 50 40 00       	mov    $0x405017,%edi
  4011ad:	e8 43 06 00 00       	call   4017f5 <puts>
  4011b2:	bf 01 00 00 00       	mov    $0x1,%edi
  4011b7:	e8 54 fe ff ff       	call   401010 <exit>
  4011bc:	0f b6 95 f3 fb ff ff 	movzbl -0x40d(%rbp),%edx
  4011c3:	0f b6 85 e7 fb ff ff 	movzbl -0x419(%rbp),%eax
  4011ca:	38 c2                	cmp    %al,%dl
  4011cc:	74 14                	je     4011e2 <main+0xfb>
  4011ce:	bf 17 50 40 00       	mov    $0x405017,%edi
  4011d3:	e8 1d 06 00 00       	call   4017f5 <puts>
  4011d8:	bf 01 00 00 00       	mov    $0x1,%edi
  4011dd:	e8 2e fe ff ff       	call   401010 <exit>
  4011e2:	0f b6 95 f4 fb ff ff 	movzbl -0x40c(%rbp),%edx
  4011e9:	0f b6 85 ea fb ff ff 	movzbl -0x416(%rbp),%eax
  4011f0:	38 c2                	cmp    %al,%dl
  4011f2:	74 14                	je     401208 <main+0x121>
  4011f4:	bf 17 50 40 00       	mov    $0x405017,%edi
  4011f9:	e8 f7 05 00 00       	call   4017f5 <puts>
  4011fe:	bf 01 00 00 00       	mov    $0x1,%edi
  401203:	e8 08 fe ff ff       	call   401010 <exit>
  401208:	0f b6 95 f5 fb ff ff 	movzbl -0x40b(%rbp),%edx
  40120f:	0f b6 85 e9 fb ff ff 	movzbl -0x417(%rbp),%eax
  401216:	38 c2                	cmp    %al,%dl
  401218:	74 14                	je     40122e <main+0x147>
  40121a:	bf 17 50 40 00       	mov    $0x405017,%edi
  40121f:	e8 d1 05 00 00       	call   4017f5 <puts>
  401224:	bf 01 00 00 00       	mov    $0x1,%edi
  401229:	e8 e2 fd ff ff       	call   401010 <exit>
  40122e:	0f b6 95 f6 fb ff ff 	movzbl -0x40a(%rbp),%edx
  401235:	0f b6 85 ec fb ff ff 	movzbl -0x414(%rbp),%eax
  40123c:	38 c2                	cmp    %al,%dl
  40123e:	74 14                	je     401254 <main+0x16d>
  401240:	bf 17 50 40 00       	mov    $0x405017,%edi
  401245:	e8 ab 05 00 00       	call   4017f5 <puts>
  40124a:	bf 01 00 00 00       	mov    $0x1,%edi
  40124f:	e8 bc fd ff ff       	call   401010 <exit>
  401254:	0f b6 95 f7 fb ff ff 	movzbl -0x409(%rbp),%edx
  40125b:	0f b6 85 ee fb ff ff 	movzbl -0x412(%rbp),%eax
  401262:	38 c2                	cmp    %al,%dl
  401264:	74 14                	je     40127a <main+0x193>
  401266:	bf 17 50 40 00       	mov    $0x405017,%edi
  40126b:	e8 85 05 00 00       	call   4017f5 <puts>
  401270:	bf 01 00 00 00       	mov    $0x1,%edi
  401275:	e8 96 fd ff ff       	call   401010 <exit>
  40127a:	48 8b 05 87 5d 00 00 	mov    0x5d87(%rip),%rax        # 407008 <SECRET>
  401281:	48 89 c7             	mov    %rax,%rdi
  401284:	e8 6c 05 00 00       	call   4017f5 <puts>
  401289:	b8 00 00 00 00       	mov    $0x0,%eax
  40128e:	c9                   	leave
  40128f:	c3                   	ret

0000000000401290 <dummy>:
  401290:	c3                   	ret

0000000000401291 <dummy1>:
  401291:	c3                   	ret

0000000000401292 <__init_libc>:
  401292:	53                   	push   %rbx
  401293:	48 89 fa             	mov    %rdi,%rdx
  401296:	31 c0                	xor    %eax,%eax
  401298:	b9 4c 00 00 00       	mov    $0x4c,%ecx
  40129d:	48 81 ec 50 01 00 00 	sub    $0x150,%rsp
  4012a4:	48 89 15 1d 68 00 00 	mov    %rdx,0x681d(%rip)        # 407ac8 <__environ>
  4012ab:	48 8d 7c 24 20       	lea    0x20(%rsp),%rdi
  4012b0:	f3 ab                	rep stos %eax,%es:(%rdi)
  4012b2:	31 c0                	xor    %eax,%eax
  4012b4:	48 8b 0c c2          	mov    (%rdx,%rax,8),%rcx
  4012b8:	48 ff c0             	inc    %rax
  4012bb:	48 85 c9             	test   %rcx,%rcx
  4012be:	75 f4                	jne    4012b4 <__init_libc+0x22>
  4012c0:	48 8d 04 c2          	lea    (%rdx,%rax,8),%rax
  4012c4:	48 89 05 fd 69 00 00 	mov    %rax,0x69fd(%rip)        # 407cc8 <__libc+0x8>
  4012cb:	48 8b 18             	mov    (%rax),%rbx
  4012ce:	48 85 db             	test   %rbx,%rbx
  4012d1:	74 15                	je     4012e8 <__init_libc+0x56>
  4012d3:	48 83 fb 25          	cmp    $0x25,%rbx
  4012d7:	77 09                	ja     4012e2 <__init_libc+0x50>
  4012d9:	48 8b 50 08          	mov    0x8(%rax),%rdx
  4012dd:	48 89 54 dc 20       	mov    %rdx,0x20(%rsp,%rbx,8)
  4012e2:	48 83 c0 10          	add    $0x10,%rax
  4012e6:	eb e3                	jmp    4012cb <__init_libc+0x39>
  4012e8:	48 8b 84 24 a0 00 00 	mov    0xa0(%rsp),%rax
  4012ef:	00 
  4012f0:	48 89 05 a9 69 00 00 	mov    %rax,0x69a9(%rip)        # 407ca0 <__hwcap>
  4012f7:	48 8b 84 24 20 01 00 	mov    0x120(%rsp),%rax
  4012fe:	00 
  4012ff:	48 85 c0             	test   %rax,%rax
  401302:	74 07                	je     40130b <__init_libc+0x79>
  401304:	48 89 05 85 69 00 00 	mov    %rax,0x6985(%rip)        # 407c90 <__sysinfo>
  40130b:	48 8b 44 24 50       	mov    0x50(%rsp),%rax
  401310:	48 89 05 d9 69 00 00 	mov    %rax,0x69d9(%rip)        # 407cf0 <__libc+0x30>
  401317:	48 85 f6             	test   %rsi,%rsi
  40131a:	75 14                	jne    401330 <__init_libc+0x9e>
  40131c:	48 8b b4 24 18 01 00 	mov    0x118(%rsp),%rsi
  401323:	00 
  401324:	b8 fd 50 40 00       	mov    $0x4050fd,%eax
  401329:	48 85 f6             	test   %rsi,%rsi
  40132c:	48 0f 44 f0          	cmove  %rax,%rsi
  401330:	48 89 35 39 5f 00 00 	mov    %rsi,0x5f39(%rip)        # 407270 <__progname_full>
  401337:	48 89 35 3a 5f 00 00 	mov    %rsi,0x5f3a(%rip)        # 407278 <__progname>
  40133e:	48 ff c6             	inc    %rsi
  401341:	8a 46 ff             	mov    -0x1(%rsi),%al
  401344:	84 c0                	test   %al,%al
  401346:	74 06                	je     40134e <__init_libc+0xbc>
  401348:	3c 2f                	cmp    $0x2f,%al
  40134a:	75 f2                	jne    40133e <__init_libc+0xac>
  40134c:	eb e9                	jmp    401337 <__init_libc+0xa5>
  40134e:	48 8d 7c 24 20       	lea    0x20(%rsp),%rdi
  401353:	e8 3b 22 00 00       	call   403593 <__init_tls>
  401358:	48 8b bc 24 e8 00 00 	mov    0xe8(%rsp),%rdi
  40135f:	00 
  401360:	e8 b0 23 00 00       	call   403715 <__init_ssp>
  401365:	48 8b 84 24 80 00 00 	mov    0x80(%rsp),%rax
  40136c:	00 
  40136d:	48 39 44 24 78       	cmp    %rax,0x78(%rsp)
  401372:	75 1d                	jne    401391 <__init_libc+0xff>
  401374:	48 8b 84 24 90 00 00 	mov    0x90(%rsp),%rax
  40137b:	00 
  40137c:	48 39 84 24 88 00 00 	cmp    %rax,0x88(%rsp)
  401383:	00 
  401384:	75 0b                	jne    401391 <__init_libc+0xff>
  401386:	48 83 bc 24 d8 00 00 	cmpq   $0x0,0xd8(%rsp)
  40138d:	00 00 
  40138f:	74 6a                	je     4013fb <__init_libc+0x169>
  401391:	ba 06 00 00 00       	mov    $0x6,%edx
  401396:	31 c0                	xor    %eax,%eax
  401398:	48 8d 7c 24 08       	lea    0x8(%rsp),%rdi
  40139d:	be 03 00 00 00       	mov    $0x3,%esi
  4013a2:	48 89 d1             	mov    %rdx,%rcx
  4013a5:	4c 8d 44 24 08       	lea    0x8(%rsp),%r8
  4013aa:	f3 ab                	rep stos %eax,%es:(%rdi)
  4013ac:	c7 44 24 10 01 00 00 	movl   $0x1,0x10(%rsp)
  4013b3:	00 
  4013b4:	b8 07 00 00 00       	mov    $0x7,%eax
  4013b9:	4c 89 c7             	mov    %r8,%rdi
  4013bc:	c7 44 24 18 02 00 00 	movl   $0x2,0x18(%rsp)
  4013c3:	00 
  4013c4:	48 89 ca             	mov    %rcx,%rdx
  4013c7:	0f 05                	syscall
  4013c9:	85 c0                	test   %eax,%eax
  4013cb:	79 01                	jns    4013ce <__init_libc+0x13c>
  4013cd:	f4                   	hlt
  4013ce:	be 02 00 00 00       	mov    $0x2,%esi
  4013d3:	bf 1e 50 40 00       	mov    $0x40501e,%edi
  4013d8:	41 f6 44 d8 06 20    	testb  $0x20,0x6(%r8,%rbx,8)
  4013de:	74 0b                	je     4013eb <__init_libc+0x159>
  4013e0:	48 89 f0             	mov    %rsi,%rax
  4013e3:	0f 05                	syscall
  4013e5:	48 85 c0             	test   %rax,%rax
  4013e8:	79 01                	jns    4013eb <__init_libc+0x159>
  4013ea:	f4                   	hlt
  4013eb:	48 ff c3             	inc    %rbx
  4013ee:	48 83 fb 03          	cmp    $0x3,%rbx
  4013f2:	75 e4                	jne    4013d8 <__init_libc+0x146>
  4013f4:	c6 05 c7 68 00 00 01 	movb   $0x1,0x68c7(%rip)        # 407cc2 <__libc+0x2>
  4013fb:	48 81 c4 50 01 00 00 	add    $0x150,%rsp
  401402:	5b                   	pop    %rbx
  401403:	c3                   	ret

0000000000401404 <__libc_start_init>:
  401404:	53                   	push   %rbx
  401405:	bb e0 6f 40 00       	mov    $0x406fe0,%ebx
  40140a:	e8 f1 fb ff ff       	call   401000 <_init>
  40140f:	48 81 fb e0 6f 40 00 	cmp    $0x406fe0,%rbx
  401416:	73 08                	jae    401420 <__libc_start_init+0x1c>
  401418:	ff 13                	call   *(%rbx)
  40141a:	48 83 c3 08          	add    $0x8,%rbx
  40141e:	eb ef                	jmp    40140f <__libc_start_init+0xb>
  401420:	5b                   	pop    %rbx
  401421:	c3                   	ret

0000000000401422 <libc_start_main_stage2>:
  401422:	41 55                	push   %r13
  401424:	41 54                	push   %r12
  401426:	49 89 fc             	mov    %rdi,%r12
  401429:	55                   	push   %rbp
  40142a:	48 89 d5             	mov    %rdx,%rbp
  40142d:	53                   	push   %rbx
  40142e:	50                   	push   %rax
  40142f:	48 63 c6             	movslq %esi,%rax
  401432:	48 89 c3             	mov    %rax,%rbx
  401435:	4c 8d 6c c2 08       	lea    0x8(%rdx,%rax,8),%r13
  40143a:	e8 c5 ff ff ff       	call   401404 <__libc_start_init>
  40143f:	89 df                	mov    %ebx,%edi
  401441:	4c 89 ea             	mov    %r13,%rdx
  401444:	48 89 ee             	mov    %rbp,%rsi
  401447:	41 ff d4             	call   *%r12
  40144a:	89 c7                	mov    %eax,%edi
  40144c:	67 e8 be fb ff ff    	addr32 call 401010 <exit>

0000000000401452 <__libc_start_main>:
  401452:	41 54                	push   %r12
  401454:	48 63 c6             	movslq %esi,%rax
  401457:	49 89 fc             	mov    %rdi,%r12
  40145a:	55                   	push   %rbp
  40145b:	48 8d 7c c2 08       	lea    0x8(%rdx,%rax,8),%rdi
  401460:	48 89 c5             	mov    %rax,%rbp
  401463:	53                   	push   %rbx
  401464:	48 8b 32             	mov    (%rdx),%rsi
  401467:	48 89 d3             	mov    %rdx,%rbx
  40146a:	e8 23 fe ff ff       	call   401292 <__init_libc>
  40146f:	b8 22 14 40 00       	mov    $0x401422,%eax
  401474:	48 89 da             	mov    %rbx,%rdx
  401477:	89 ee                	mov    %ebp,%esi
  401479:	4c 89 e7             	mov    %r12,%rdi
  40147c:	5b                   	pop    %rbx
  40147d:	5d                   	pop    %rbp
  40147e:	41 5c                	pop    %r12
  401480:	ff e0                	jmp    *%rax

0000000000401482 <__funcs_on_exit>:
  401482:	c3                   	ret

0000000000401483 <__libc_exit_fini>:
  401483:	53                   	push   %rbx
  401484:	bb e0 6f 40 00       	mov    $0x406fe0,%ebx
  401489:	48 81 fb e0 6f 40 00 	cmp    $0x406fe0,%rbx
  401490:	76 0a                	jbe    40149c <__libc_exit_fini+0x19>
  401492:	48 83 eb 08          	sub    $0x8,%rbx
  401496:	31 c0                	xor    %eax,%eax
  401498:	ff 13                	call   *(%rbx)
  40149a:	eb ed                	jmp    401489 <__libc_exit_fini+0x6>
  40149c:	31 c0                	xor    %eax,%eax
  40149e:	5b                   	pop    %rbx
  40149f:	e9 6a 2c 00 00       	jmp    40410e <_fini>

00000000004014a4 <fflush>:
  4014a4:	41 54                	push   %r12
  4014a6:	55                   	push   %rbp
  4014a7:	53                   	push   %rbx
  4014a8:	48 85 ff             	test   %rdi,%rdi
  4014ab:	0f 85 8c 00 00 00    	jne    40153d <fflush+0x99>
  4014b1:	48 8b 05 50 5c 00 00 	mov    0x5c50(%rip),%rax        # 407108 <__stdout_used>
  4014b8:	31 ed                	xor    %ebp,%ebp
  4014ba:	48 85 c0             	test   %rax,%rax
  4014bd:	74 0e                	je     4014cd <fflush+0x29>
  4014bf:	48 8b 3d 42 5c 00 00 	mov    0x5c42(%rip),%rdi        # 407108 <__stdout_used>
  4014c6:	e8 d9 ff ff ff       	call   4014a4 <fflush>
  4014cb:	89 c5                	mov    %eax,%ebp
  4014cd:	48 8b 05 ac 5d 00 00 	mov    0x5dac(%rip),%rax        # 407280 <__stderr_used>
  4014d4:	48 85 c0             	test   %rax,%rax
  4014d7:	74 0e                	je     4014e7 <fflush+0x43>
  4014d9:	48 8b 3d a0 5d 00 00 	mov    0x5da0(%rip),%rdi        # 407280 <__stderr_used>
  4014e0:	e8 bf ff ff ff       	call   4014a4 <fflush>
  4014e5:	09 c5                	or     %eax,%ebp
  4014e7:	e8 50 02 00 00       	call   40173c <__ofl_lock>
  4014ec:	48 8b 18             	mov    (%rax),%rbx
  4014ef:	48 85 db             	test   %rbx,%rbx
  4014f2:	74 3f                	je     401533 <fflush+0x8f>
  4014f4:	8b 83 8c 00 00 00    	mov    0x8c(%rbx),%eax
  4014fa:	45 31 e4             	xor    %r12d,%r12d
  4014fd:	85 c0                	test   %eax,%eax
  4014ff:	78 0b                	js     40150c <fflush+0x68>
  401501:	48 89 df             	mov    %rbx,%rdi
  401504:	e8 c9 23 00 00       	call   4038d2 <__lockfile>
  401509:	41 89 c4             	mov    %eax,%r12d
  40150c:	48 8b 43 38          	mov    0x38(%rbx),%rax
  401510:	48 39 43 28          	cmp    %rax,0x28(%rbx)
  401514:	74 0a                	je     401520 <fflush+0x7c>
  401516:	48 89 df             	mov    %rbx,%rdi
  401519:	e8 86 ff ff ff       	call   4014a4 <fflush>
  40151e:	09 c5                	or     %eax,%ebp
  401520:	45 85 e4             	test   %r12d,%r12d
  401523:	74 08                	je     40152d <fflush+0x89>
  401525:	48 89 df             	mov    %rbx,%rdi
  401528:	e8 4f 24 00 00       	call   40397c <__unlockfile>
  40152d:	48 8b 5b 70          	mov    0x70(%rbx),%rbx
  401531:	eb bc                	jmp    4014ef <fflush+0x4b>
  401533:	e8 16 02 00 00       	call   40174e <__ofl_unlock>
  401538:	e9 95 00 00 00       	jmp    4015d2 <fflush+0x12e>
  40153d:	8b 87 8c 00 00 00    	mov    0x8c(%rdi),%eax
  401543:	48 89 fb             	mov    %rdi,%rbx
  401546:	31 ed                	xor    %ebp,%ebp
  401548:	85 c0                	test   %eax,%eax
  40154a:	78 07                	js     401553 <fflush+0xaf>
  40154c:	e8 81 23 00 00       	call   4038d2 <__lockfile>
  401551:	89 c5                	mov    %eax,%ebp
  401553:	48 8b 43 38          	mov    0x38(%rbx),%rax
  401557:	48 39 43 28          	cmp    %rax,0x28(%rbx)
  40155b:	74 1f                	je     40157c <fflush+0xd8>
  40155d:	31 d2                	xor    %edx,%edx
  40155f:	31 f6                	xor    %esi,%esi
  401561:	48 89 df             	mov    %rbx,%rdi
  401564:	ff 53 48             	call   *0x48(%rbx)
  401567:	48 83 7b 28 00       	cmpq   $0x0,0x28(%rbx)
  40156c:	75 0e                	jne    40157c <fflush+0xd8>
  40156e:	85 ed                	test   %ebp,%ebp
  401570:	74 5d                	je     4015cf <fflush+0x12b>
  401572:	48 89 df             	mov    %rbx,%rdi
  401575:	e8 02 24 00 00       	call   40397c <__unlockfile>
  40157a:	eb 53                	jmp    4015cf <fflush+0x12b>
  40157c:	48 8b 73 08          	mov    0x8(%rbx),%rsi
  401580:	48 8b 43 10          	mov    0x10(%rbx),%rax
  401584:	48 39 c6             	cmp    %rax,%rsi
  401587:	74 0e                	je     401597 <fflush+0xf3>
  401589:	48 29 c6             	sub    %rax,%rsi
  40158c:	ba 01 00 00 00       	mov    $0x1,%edx
  401591:	48 89 df             	mov    %rbx,%rdi
  401594:	ff 53 50             	call   *0x50(%rbx)
  401597:	48 c7 43 20 00 00 00 	movq   $0x0,0x20(%rbx)
  40159e:	00 
  40159f:	48 c7 43 38 00 00 00 	movq   $0x0,0x38(%rbx)
  4015a6:	00 
  4015a7:	48 c7 43 28 00 00 00 	movq   $0x0,0x28(%rbx)
  4015ae:	00 
  4015af:	48 c7 43 10 00 00 00 	movq   $0x0,0x10(%rbx)
  4015b6:	00 
  4015b7:	48 c7 43 08 00 00 00 	movq   $0x0,0x8(%rbx)
  4015be:	00 
  4015bf:	85 ed                	test   %ebp,%ebp
  4015c1:	74 0f                	je     4015d2 <fflush+0x12e>
  4015c3:	48 89 df             	mov    %rbx,%rdi
  4015c6:	31 ed                	xor    %ebp,%ebp
  4015c8:	e8 af 23 00 00       	call   40397c <__unlockfile>
  4015cd:	eb 03                	jmp    4015d2 <fflush+0x12e>
  4015cf:	83 cd ff             	or     $0xffffffff,%ebp
  4015d2:	89 e8                	mov    %ebp,%eax
  4015d4:	5b                   	pop    %rbx
  4015d5:	5d                   	pop    %rbp
  4015d6:	41 5c                	pop    %r12
  4015d8:	c3                   	ret

00000000004015d9 <fgets>:
  4015d9:	41 57                	push   %r15
  4015db:	41 56                	push   %r14
  4015dd:	41 89 f6             	mov    %esi,%r14d
  4015e0:	41 55                	push   %r13
  4015e2:	41 54                	push   %r12
  4015e4:	49 89 fc             	mov    %rdi,%r12
  4015e7:	55                   	push   %rbp
  4015e8:	53                   	push   %rbx
  4015e9:	48 89 d3             	mov    %rdx,%rbx
  4015ec:	48 83 ec 18          	sub    $0x18,%rsp
  4015f0:	8b 82 8c 00 00 00    	mov    0x8c(%rdx),%eax
  4015f6:	c7 44 24 0c 00 00 00 	movl   $0x0,0xc(%rsp)
  4015fd:	00 
  4015fe:	85 c0                	test   %eax,%eax
  401600:	78 0c                	js     40160e <fgets+0x35>
  401602:	48 89 d7             	mov    %rdx,%rdi
  401605:	e8 c8 22 00 00       	call   4038d2 <__lockfile>
  40160a:	89 44 24 0c          	mov    %eax,0xc(%rsp)
  40160e:	45 8d 6e ff          	lea    -0x1(%r14),%r13d
  401612:	41 ff ce             	dec    %r14d
  401615:	4c 89 e5             	mov    %r12,%rbp
  401618:	7f 6e                	jg     401688 <fgets+0xaf>
  40161a:	8b 93 88 00 00 00    	mov    0x88(%rbx),%edx
  401620:	8d 42 ff             	lea    -0x1(%rdx),%eax
  401623:	09 d0                	or     %edx,%eax
  401625:	83 7c 24 0c 00       	cmpl   $0x0,0xc(%rsp)
  40162a:	89 83 88 00 00 00    	mov    %eax,0x88(%rbx)
  401630:	74 08                	je     40163a <fgets+0x61>
  401632:	48 89 df             	mov    %rbx,%rdi
  401635:	e8 42 23 00 00       	call   40397c <__unlockfile>
  40163a:	45 85 ed             	test   %r13d,%r13d
  40163d:	0f 85 e4 00 00 00    	jne    401727 <fgets+0x14e>
  401643:	41 c6 04 24 00       	movb   $0x0,(%r12)
  401648:	e9 dd 00 00 00       	jmp    40172a <fgets+0x151>
  40164d:	48 8b 7b 08          	mov    0x8(%rbx),%rdi
  401651:	48 8b 53 10          	mov    0x10(%rbx),%rdx
  401655:	48 39 d7             	cmp    %rdx,%rdi
  401658:	75 35                	jne    40168f <fgets+0xb6>
  40165a:	48 8b 43 08          	mov    0x8(%rbx),%rax
  40165e:	48 3b 43 10          	cmp    0x10(%rbx),%rax
  401662:	0f 84 85 00 00 00    	je     4016ed <fgets+0x114>
  401668:	48 8d 50 01          	lea    0x1(%rax),%rdx
  40166c:	48 89 53 08          	mov    %rdx,0x8(%rbx)
  401670:	0f b6 00             	movzbl (%rax),%eax
  401673:	48 8d 55 01          	lea    0x1(%rbp),%rdx
  401677:	88 45 00             	mov    %al,0x0(%rbp)
  40167a:	41 ff cd             	dec    %r13d
  40167d:	48 89 d5             	mov    %rdx,%rbp
  401680:	3c 0a                	cmp    $0xa,%al
  401682:	0f 84 80 00 00 00    	je     401708 <fgets+0x12f>
  401688:	45 85 ed             	test   %r13d,%r13d
  40168b:	75 c0                	jne    40164d <fgets+0x74>
  40168d:	eb 79                	jmp    401708 <fgets+0x12f>
  40168f:	48 29 fa             	sub    %rdi,%rdx
  401692:	be 0a 00 00 00       	mov    $0xa,%esi
  401697:	67 e8 d3 1a 00 00    	addr32 call 403170 <memchr>
  40169d:	49 89 c7             	mov    %rax,%r15
  4016a0:	48 85 c0             	test   %rax,%rax
  4016a3:	74 0c                	je     4016b1 <fgets+0xd8>
  4016a5:	49 89 c6             	mov    %rax,%r14
  4016a8:	4c 2b 73 08          	sub    0x8(%rbx),%r14
  4016ac:	49 ff c6             	inc    %r14
  4016af:	eb 08                	jmp    4016b9 <fgets+0xe0>
  4016b1:	4c 8b 73 10          	mov    0x10(%rbx),%r14
  4016b5:	4c 2b 73 08          	sub    0x8(%rbx),%r14
  4016b9:	49 63 c5             	movslq %r13d,%rax
  4016bc:	48 8b 73 08          	mov    0x8(%rbx),%rsi
  4016c0:	48 89 ef             	mov    %rbp,%rdi
  4016c3:	4c 39 f0             	cmp    %r14,%rax
  4016c6:	4c 0f 46 f0          	cmovbe %rax,%r14
  4016ca:	4c 89 f2             	mov    %r14,%rdx
  4016cd:	4c 01 f5             	add    %r14,%rbp
  4016d0:	45 29 f5             	sub    %r14d,%r13d
  4016d3:	67 e8 f5 1b 00 00    	addr32 call 4032ce <memcpy>
  4016d9:	4c 01 73 08          	add    %r14,0x8(%rbx)
  4016dd:	4d 85 ff             	test   %r15,%r15
  4016e0:	75 26                	jne    401708 <fgets+0x12f>
  4016e2:	45 85 ed             	test   %r13d,%r13d
  4016e5:	0f 85 6f ff ff ff    	jne    40165a <fgets+0x81>
  4016eb:	eb 1b                	jmp    401708 <fgets+0x12f>
  4016ed:	48 89 df             	mov    %rbx,%rdi
  4016f0:	67 e8 a3 24 00 00    	addr32 call 403b99 <__uflow>
  4016f6:	85 c0                	test   %eax,%eax
  4016f8:	0f 89 75 ff ff ff    	jns    401673 <fgets+0x9a>
  4016fe:	4c 39 e5             	cmp    %r12,%rbp
  401701:	74 10                	je     401713 <fgets+0x13a>
  401703:	f6 03 10             	testb  $0x10,(%rbx)
  401706:	74 0b                	je     401713 <fgets+0x13a>
  401708:	4d 85 e4             	test   %r12,%r12
  40170b:	74 09                	je     401716 <fgets+0x13d>
  40170d:	c6 45 00 00          	movb   $0x0,0x0(%rbp)
  401711:	eb 03                	jmp    401716 <fgets+0x13d>
  401713:	45 31 e4             	xor    %r12d,%r12d
  401716:	83 7c 24 0c 00       	cmpl   $0x0,0xc(%rsp)
  40171b:	74 0d                	je     40172a <fgets+0x151>
  40171d:	48 89 df             	mov    %rbx,%rdi
  401720:	e8 57 22 00 00       	call   40397c <__unlockfile>
  401725:	eb 03                	jmp    40172a <fgets+0x151>
  401727:	45 31 e4             	xor    %r12d,%r12d
  40172a:	48 83 c4 18          	add    $0x18,%rsp
  40172e:	4c 89 e0             	mov    %r12,%rax
  401731:	5b                   	pop    %rbx
  401732:	5d                   	pop    %rbp
  401733:	41 5c                	pop    %r12
  401735:	41 5d                	pop    %r13
  401737:	41 5e                	pop    %r14
  401739:	41 5f                	pop    %r15
  40173b:	c3                   	ret

000000000040173c <__ofl_lock>:
  40173c:	50                   	push   %rax
  40173d:	bf 88 72 40 00       	mov    $0x407288,%edi
  401742:	e8 7d 1c 00 00       	call   4033c4 <__lock>
  401747:	b8 90 72 40 00       	mov    $0x407290,%eax
  40174c:	5a                   	pop    %rdx
  40174d:	c3                   	ret

000000000040174e <__ofl_unlock>:
  40174e:	bf 88 72 40 00       	mov    $0x407288,%edi
  401753:	e9 1c 1d 00 00       	jmp    403474 <__unlock>

0000000000401758 <printf>:
  401758:	48 81 ec d8 00 00 00 	sub    $0xd8,%rsp
  40175f:	48 89 74 24 28       	mov    %rsi,0x28(%rsp)
  401764:	48 89 54 24 30       	mov    %rdx,0x30(%rsp)
  401769:	48 89 4c 24 38       	mov    %rcx,0x38(%rsp)
  40176e:	4c 89 44 24 40       	mov    %r8,0x40(%rsp)
  401773:	4c 89 4c 24 48       	mov    %r9,0x48(%rsp)
  401778:	84 c0                	test   %al,%al
  40177a:	74 37                	je     4017b3 <printf+0x5b>
  40177c:	0f 29 44 24 50       	movaps %xmm0,0x50(%rsp)
  401781:	0f 29 4c 24 60       	movaps %xmm1,0x60(%rsp)
  401786:	0f 29 54 24 70       	movaps %xmm2,0x70(%rsp)
  40178b:	0f 29 9c 24 80 00 00 	movaps %xmm3,0x80(%rsp)
  401792:	00 
  401793:	0f 29 a4 24 90 00 00 	movaps %xmm4,0x90(%rsp)
  40179a:	00 
  40179b:	0f 29 ac 24 a0 00 00 	movaps %xmm5,0xa0(%rsp)
  4017a2:	00 
  4017a3:	0f 29 b4 24 b0 00 00 	movaps %xmm6,0xb0(%rsp)
  4017aa:	00 
  4017ab:	0f 29 bc 24 c0 00 00 	movaps %xmm7,0xc0(%rsp)
  4017b2:	00 
  4017b3:	48 8d 84 24 e0 00 00 	lea    0xe0(%rsp),%rax
  4017ba:	00 
  4017bb:	48 8d 54 24 08       	lea    0x8(%rsp),%rdx
  4017c0:	48 89 fe             	mov    %rdi,%rsi
  4017c3:	bf 20 71 40 00       	mov    $0x407120,%edi
  4017c8:	48 89 44 24 10       	mov    %rax,0x10(%rsp)
  4017cd:	48 8d 44 24 20       	lea    0x20(%rsp),%rax
  4017d2:	c7 44 24 08 08 00 00 	movl   $0x8,0x8(%rsp)
  4017d9:	00 
  4017da:	c7 44 24 0c 30 00 00 	movl   $0x30,0xc(%rsp)
  4017e1:	00 
  4017e2:	48 89 44 24 18       	mov    %rax,0x18(%rsp)
  4017e7:	67 e8 f0 17 00 00    	addr32 call 402fdd <vfprintf>
  4017ed:	48 81 c4 d8 00 00 00 	add    $0xd8,%rsp
  4017f4:	c3                   	ret

00000000004017f5 <puts>:
  4017f5:	55                   	push   %rbp
  4017f6:	31 ed                	xor    %ebp,%ebp
  4017f8:	53                   	push   %rbx
  4017f9:	48 89 fb             	mov    %rdi,%rbx
  4017fc:	51                   	push   %rcx
  4017fd:	8b 05 a9 59 00 00    	mov    0x59a9(%rip),%eax        # 4071ac <__stdout_FILE+0x8c>
  401803:	85 c0                	test   %eax,%eax
  401805:	78 0c                	js     401813 <puts+0x1e>
  401807:	bf 20 71 40 00       	mov    $0x407120,%edi
  40180c:	e8 c1 20 00 00       	call   4038d2 <__lockfile>
  401811:	89 c5                	mov    %eax,%ebp
  401813:	be 20 71 40 00       	mov    $0x407120,%esi
  401818:	48 89 df             	mov    %rbx,%rdi
  40181b:	67 e8 ae 23 00 00    	addr32 call 403bcf <fputs>
  401821:	ba 01 00 00 00       	mov    $0x1,%edx
  401826:	85 c0                	test   %eax,%eax
  401828:	78 40                	js     40186a <puts+0x75>
  40182a:	83 3d 7f 59 00 00 0a 	cmpl   $0xa,0x597f(%rip)        # 4071b0 <__stdout_FILE+0x90>
  401831:	74 22                	je     401855 <puts+0x60>
  401833:	48 8b 05 0e 59 00 00 	mov    0x590e(%rip),%rax        # 407148 <__stdout_FILE+0x28>
  40183a:	48 3b 05 ff 58 00 00 	cmp    0x58ff(%rip),%rax        # 407140 <__stdout_FILE+0x20>
  401841:	74 12                	je     401855 <puts+0x60>
  401843:	48 8d 50 01          	lea    0x1(%rax),%rdx
  401847:	48 89 15 fa 58 00 00 	mov    %rdx,0x58fa(%rip)        # 407148 <__stdout_FILE+0x28>
  40184e:	31 d2                	xor    %edx,%edx
  401850:	c6 00 0a             	movb   $0xa,(%rax)
  401853:	eb 15                	jmp    40186a <puts+0x75>
  401855:	be 0a 00 00 00       	mov    $0xa,%esi
  40185a:	bf 20 71 40 00       	mov    $0x407120,%edi
  40185f:	67 e8 53 21 00 00    	addr32 call 4039b8 <__overflow>
  401865:	c1 e8 1f             	shr    $0x1f,%eax
  401868:	89 c2                	mov    %eax,%edx
  40186a:	89 d3                	mov    %edx,%ebx
  40186c:	f7 db                	neg    %ebx
  40186e:	85 ed                	test   %ebp,%ebp
  401870:	74 0a                	je     40187c <puts+0x87>
  401872:	bf 20 71 40 00       	mov    $0x407120,%edi
  401877:	e8 00 21 00 00       	call   40397c <__unlockfile>
  40187c:	89 d8                	mov    %ebx,%eax
  40187e:	5a                   	pop    %rdx
  40187f:	5b                   	pop    %rbx
  401880:	5d                   	pop    %rbp
  401881:	c3                   	ret

0000000000401882 <pop_arg>:
  401882:	83 ee 09             	sub    $0x9,%esi
  401885:	83 fe 11             	cmp    $0x11,%esi
  401888:	0f 87 58 01 00 00    	ja     4019e6 <pop_arg+0x164>
  40188e:	ff 24 f5 38 50 40 00 	jmp    *0x405038(,%rsi,8)
  401895:	8b 0a                	mov    (%rdx),%ecx
  401897:	83 f9 2f             	cmp    $0x2f,%ecx
  40189a:	77 0d                	ja     4018a9 <pop_arg+0x27>
  40189c:	89 c8                	mov    %ecx,%eax
  40189e:	83 c1 08             	add    $0x8,%ecx
  4018a1:	48 03 42 10          	add    0x10(%rdx),%rax
  4018a5:	89 0a                	mov    %ecx,(%rdx)
  4018a7:	eb 0c                	jmp    4018b5 <pop_arg+0x33>
  4018a9:	48 8b 42 08          	mov    0x8(%rdx),%rax
  4018ad:	48 8d 48 08          	lea    0x8(%rax),%rcx
  4018b1:	48 89 4a 08          	mov    %rcx,0x8(%rdx)
  4018b5:	48 63 00             	movslq (%rax),%rax
  4018b8:	48 89 07             	mov    %rax,(%rdi)
  4018bb:	c3                   	ret
  4018bc:	8b 0a                	mov    (%rdx),%ecx
  4018be:	83 f9 2f             	cmp    $0x2f,%ecx
  4018c1:	77 0d                	ja     4018d0 <pop_arg+0x4e>
  4018c3:	89 c8                	mov    %ecx,%eax
  4018c5:	83 c1 08             	add    $0x8,%ecx
  4018c8:	48 03 42 10          	add    0x10(%rdx),%rax
  4018cc:	89 0a                	mov    %ecx,(%rdx)
  4018ce:	eb 0c                	jmp    4018dc <pop_arg+0x5a>
  4018d0:	48 8b 42 08          	mov    0x8(%rdx),%rax
  4018d4:	48 8d 48 08          	lea    0x8(%rax),%rcx
  4018d8:	48 89 4a 08          	mov    %rcx,0x8(%rdx)
  4018dc:	8b 00                	mov    (%rax),%eax
  4018de:	eb d8                	jmp    4018b8 <pop_arg+0x36>
  4018e0:	8b 0a                	mov    (%rdx),%ecx
  4018e2:	83 f9 2f             	cmp    $0x2f,%ecx
  4018e5:	77 0d                	ja     4018f4 <pop_arg+0x72>
  4018e7:	89 c8                	mov    %ecx,%eax
  4018e9:	83 c1 08             	add    $0x8,%ecx
  4018ec:	48 03 42 10          	add    0x10(%rdx),%rax
  4018f0:	89 0a                	mov    %ecx,(%rdx)
  4018f2:	eb 0c                	jmp    401900 <pop_arg+0x7e>
  4018f4:	48 8b 42 08          	mov    0x8(%rdx),%rax
  4018f8:	48 8d 48 08          	lea    0x8(%rax),%rcx
  4018fc:	48 89 4a 08          	mov    %rcx,0x8(%rdx)
  401900:	48 0f bf 00          	movswq (%rax),%rax
  401904:	eb b2                	jmp    4018b8 <pop_arg+0x36>
  401906:	8b 0a                	mov    (%rdx),%ecx
  401908:	83 f9 2f             	cmp    $0x2f,%ecx
  40190b:	77 0d                	ja     40191a <pop_arg+0x98>
  40190d:	89 c8                	mov    %ecx,%eax
  40190f:	83 c1 08             	add    $0x8,%ecx
  401912:	48 03 42 10          	add    0x10(%rdx),%rax
  401916:	89 0a                	mov    %ecx,(%rdx)
  401918:	eb 0c                	jmp    401926 <pop_arg+0xa4>
  40191a:	48 8b 42 08          	mov    0x8(%rdx),%rax
  40191e:	48 8d 48 08          	lea    0x8(%rax),%rcx
  401922:	48 89 4a 08          	mov    %rcx,0x8(%rdx)
  401926:	0f b7 00             	movzwl (%rax),%eax
  401929:	eb 8d                	jmp    4018b8 <pop_arg+0x36>
  40192b:	8b 0a                	mov    (%rdx),%ecx
  40192d:	83 f9 2f             	cmp    $0x2f,%ecx
  401930:	77 0d                	ja     40193f <pop_arg+0xbd>
  401932:	89 c8                	mov    %ecx,%eax
  401934:	83 c1 08             	add    $0x8,%ecx
  401937:	48 03 42 10          	add    0x10(%rdx),%rax
  40193b:	89 0a                	mov    %ecx,(%rdx)
  40193d:	eb 0c                	jmp    40194b <pop_arg+0xc9>
  40193f:	48 8b 42 08          	mov    0x8(%rdx),%rax
  401943:	48 8d 48 08          	lea    0x8(%rax),%rcx
  401947:	48 89 4a 08          	mov    %rcx,0x8(%rdx)
  40194b:	48 0f be 00          	movsbq (%rax),%rax
  40194f:	e9 64 ff ff ff       	jmp    4018b8 <pop_arg+0x36>
  401954:	8b 0a                	mov    (%rdx),%ecx
  401956:	83 f9 2f             	cmp    $0x2f,%ecx
  401959:	77 0d                	ja     401968 <pop_arg+0xe6>
  40195b:	89 c8                	mov    %ecx,%eax
  40195d:	83 c1 08             	add    $0x8,%ecx
  401960:	48 03 42 10          	add    0x10(%rdx),%rax
  401964:	89 0a                	mov    %ecx,(%rdx)
  401966:	eb 0c                	jmp    401974 <pop_arg+0xf2>
  401968:	48 8b 42 08          	mov    0x8(%rdx),%rax
  40196c:	48 8d 48 08          	lea    0x8(%rax),%rcx
  401970:	48 89 4a 08          	mov    %rcx,0x8(%rdx)
  401974:	0f b6 00             	movzbl (%rax),%eax
  401977:	e9 3c ff ff ff       	jmp    4018b8 <pop_arg+0x36>
  40197c:	8b 0a                	mov    (%rdx),%ecx
  40197e:	83 f9 2f             	cmp    $0x2f,%ecx
  401981:	77 0d                	ja     401990 <pop_arg+0x10e>
  401983:	89 c8                	mov    %ecx,%eax
  401985:	83 c1 08             	add    $0x8,%ecx
  401988:	48 03 42 10          	add    0x10(%rdx),%rax
  40198c:	89 0a                	mov    %ecx,(%rdx)
  40198e:	eb 0c                	jmp    40199c <pop_arg+0x11a>
  401990:	48 8b 42 08          	mov    0x8(%rdx),%rax
  401994:	48 8d 48 08          	lea    0x8(%rax),%rcx
  401998:	48 89 4a 08          	mov    %rcx,0x8(%rdx)
  40199c:	48 8b 00             	mov    (%rax),%rax
  40199f:	e9 14 ff ff ff       	jmp    4018b8 <pop_arg+0x36>
  4019a4:	8b 4a 04             	mov    0x4(%rdx),%ecx
  4019a7:	81 f9 af 00 00 00    	cmp    $0xaf,%ecx
  4019ad:	77 0e                	ja     4019bd <pop_arg+0x13b>
  4019af:	89 c8                	mov    %ecx,%eax
  4019b1:	83 c1 10             	add    $0x10,%ecx
  4019b4:	48 03 42 10          	add    0x10(%rdx),%rax
  4019b8:	89 4a 04             	mov    %ecx,0x4(%rdx)
  4019bb:	eb 0c                	jmp    4019c9 <pop_arg+0x147>
  4019bd:	48 8b 42 08          	mov    0x8(%rdx),%rax
  4019c1:	48 8d 48 08          	lea    0x8(%rax),%rcx
  4019c5:	48 89 4a 08          	mov    %rcx,0x8(%rdx)
  4019c9:	dd 00                	fldl   (%rax)
  4019cb:	db 3f                	fstpt  (%rdi)
  4019cd:	c3                   	ret
  4019ce:	48 8b 42 08          	mov    0x8(%rdx),%rax
  4019d2:	48 83 c0 0f          	add    $0xf,%rax
  4019d6:	48 83 e0 f0          	and    $0xfffffffffffffff0,%rax
  4019da:	48 8d 48 10          	lea    0x10(%rax),%rcx
  4019de:	48 89 4a 08          	mov    %rcx,0x8(%rdx)
  4019e2:	db 28                	fldt   (%rax)
  4019e4:	db 3f                	fstpt  (%rdi)
  4019e6:	c3                   	ret

00000000004019e7 <fmt_u>:
  4019e7:	48 89 f8             	mov    %rdi,%rax
  4019ea:	b9 0a 00 00 00       	mov    $0xa,%ecx
  4019ef:	48 85 c0             	test   %rax,%rax
  4019f2:	74 0f                	je     401a03 <fmt_u+0x1c>
  4019f4:	31 d2                	xor    %edx,%edx
  4019f6:	48 ff ce             	dec    %rsi
  4019f9:	48 f7 f1             	div    %rcx
  4019fc:	83 c2 30             	add    $0x30,%edx
  4019ff:	88 16                	mov    %dl,(%rsi)
  401a01:	eb ec                	jmp    4019ef <fmt_u+0x8>
  401a03:	48 89 f0             	mov    %rsi,%rax
  401a06:	c3                   	ret

0000000000401a07 <getint>:
  401a07:	31 c0                	xor    %eax,%eax
  401a09:	41 83 c8 ff          	or     $0xffffffff,%r8d
  401a0d:	48 8b 0f             	mov    (%rdi),%rcx
  401a10:	0f be 11             	movsbl (%rcx),%edx
  401a13:	83 ea 30             	sub    $0x30,%edx
  401a16:	83 fa 09             	cmp    $0x9,%edx
  401a19:	77 26                	ja     401a41 <getint+0x3a>
  401a1b:	3d cc cc cc 0c       	cmp    $0xccccccc,%eax
  401a20:	77 14                	ja     401a36 <getint+0x2f>
  401a22:	6b f0 f6             	imul   $0xfffffff6,%eax,%esi
  401a25:	81 c6 ff ff ff 7f    	add    $0x7fffffff,%esi
  401a2b:	39 f2                	cmp    %esi,%edx
  401a2d:	7f 07                	jg     401a36 <getint+0x2f>
  401a2f:	6b c0 0a             	imul   $0xa,%eax,%eax
  401a32:	01 d0                	add    %edx,%eax
  401a34:	eb 03                	jmp    401a39 <getint+0x32>
  401a36:	44 89 c0             	mov    %r8d,%eax
  401a39:	48 ff c1             	inc    %rcx
  401a3c:	48 89 0f             	mov    %rcx,(%rdi)
  401a3f:	eb cc                	jmp    401a0d <getint+0x6>
  401a41:	c3                   	ret

0000000000401a42 <out>:
  401a42:	48 89 f0             	mov    %rsi,%rax
  401a45:	48 89 d6             	mov    %rdx,%rsi
  401a48:	f6 07 20             	testb  $0x20,(%rdi)
  401a4b:	75 0b                	jne    401a58 <out+0x16>
  401a4d:	48 89 fa             	mov    %rdi,%rdx
  401a50:	48 89 c7             	mov    %rax,%rdi
  401a53:	e9 ae 21 00 00       	jmp    403c06 <__fwritex>
  401a58:	c3                   	ret

0000000000401a59 <pad>:
  401a59:	41 54                	push   %r12
  401a5b:	55                   	push   %rbp
  401a5c:	53                   	push   %rbx
  401a5d:	48 81 ec 10 01 00 00 	sub    $0x110,%rsp
  401a64:	64 48 8b 04 25 28 00 	mov    %fs:0x28,%rax
  401a6b:	00 00 
  401a6d:	48 89 84 24 08 01 00 	mov    %rax,0x108(%rsp)
  401a74:	00 
  401a75:	31 c0                	xor    %eax,%eax
  401a77:	41 81 e0 00 20 01 00 	and    $0x12000,%r8d
  401a7e:	75 6f                	jne    401aef <pad+0x96>
  401a80:	39 d1                	cmp    %edx,%ecx
  401a82:	7d 6b                	jge    401aef <pad+0x96>
  401a84:	89 d3                	mov    %edx,%ebx
  401a86:	ba 00 01 00 00       	mov    $0x100,%edx
  401a8b:	48 89 fd             	mov    %rdi,%rbp
  401a8e:	40 0f be f6          	movsbl %sil,%esi
  401a92:	29 cb                	sub    %ecx,%ebx
  401a94:	48 8d 7c 24 08       	lea    0x8(%rsp),%rdi
  401a99:	81 fb 00 01 00 00    	cmp    $0x100,%ebx
  401a9f:	41 89 dc             	mov    %ebx,%r12d
  401aa2:	0f 4e d3             	cmovle %ebx,%edx
  401aa5:	48 63 d2             	movslq %edx,%rdx
  401aa8:	67 e8 52 18 00 00    	addr32 call 403300 <memset>
  401aae:	41 81 fc ff 00 00 00 	cmp    $0xff,%r12d
  401ab5:	7e 1b                	jle    401ad2 <pad+0x79>
  401ab7:	ba 00 01 00 00       	mov    $0x100,%edx
  401abc:	48 8d 74 24 08       	lea    0x8(%rsp),%rsi
  401ac1:	48 89 ef             	mov    %rbp,%rdi
  401ac4:	41 81 ec 00 01 00 00 	sub    $0x100,%r12d
  401acb:	e8 72 ff ff ff       	call   401a42 <out>
  401ad0:	eb dc                	jmp    401aae <pad+0x55>
  401ad2:	89 da                	mov    %ebx,%edx
  401ad4:	48 8d 74 24 08       	lea    0x8(%rsp),%rsi
  401ad9:	48 89 ef             	mov    %rbp,%rdi
  401adc:	c1 ea 08             	shr    $0x8,%edx
  401adf:	69 d2 00 ff ff ff    	imul   $0xffffff00,%edx,%edx
  401ae5:	01 da                	add    %ebx,%edx
  401ae7:	48 63 d2             	movslq %edx,%rdx
  401aea:	e8 53 ff ff ff       	call   401a42 <out>
  401aef:	48 8b 84 24 08 01 00 	mov    0x108(%rsp),%rax
  401af6:	00 
  401af7:	64 48 33 04 25 28 00 	xor    %fs:0x28,%rax
  401afe:	00 00 
  401b00:	74 06                	je     401b08 <pad+0xaf>
  401b02:	67 e8 51 1c 00 00    	addr32 call 403759 <__stack_chk_fail>
  401b08:	48 81 c4 10 01 00 00 	add    $0x110,%rsp
  401b0f:	5b                   	pop    %rbx
  401b10:	5d                   	pop    %rbp
  401b11:	41 5c                	pop    %r12
  401b13:	c3                   	ret

0000000000401b14 <fmt_fp>:
  401b14:	41 57                	push   %r15
  401b16:	41 56                	push   %r14
  401b18:	41 55                	push   %r13
  401b1a:	45 89 c5             	mov    %r8d,%r13d
  401b1d:	41 54                	push   %r12
  401b1f:	55                   	push   %rbp
  401b20:	53                   	push   %rbx
  401b21:	89 d3                	mov    %edx,%ebx
  401b23:	48 81 ec 58 1d 00 00 	sub    $0x1d58,%rsp
  401b2a:	48 89 7c 24 08       	mov    %rdi,0x8(%rsp)
  401b2f:	89 74 24 24          	mov    %esi,0x24(%rsp)
  401b33:	89 4c 24 58          	mov    %ecx,0x58(%rsp)
  401b37:	64 48 8b 04 25 28 00 	mov    %fs:0x28,%rax
  401b3e:	00 00 
  401b40:	48 89 84 24 48 1d 00 	mov    %rax,0x1d48(%rsp)
  401b47:	00 
  401b48:	31 c0                	xor    %eax,%eax
  401b4a:	c7 44 24 70 00 00 00 	movl   $0x0,0x70(%rsp)
  401b51:	00 
  401b52:	ff b4 24 98 1d 00 00 	push   0x1d98(%rsp)
  401b59:	ff b4 24 98 1d 00 00 	push   0x1d98(%rsp)
  401b60:	67 e8 c9 1c 00 00    	addr32 call 40382f <__signbitl>
  401b66:	5f                   	pop    %rdi
  401b67:	41 58                	pop    %r8
  401b69:	85 c0                	test   %eax,%eax
  401b6b:	74 21                	je     401b8e <fmt_fp+0x7a>
  401b6d:	db ac 24 90 1d 00 00 	fldt   0x1d90(%rsp)
  401b74:	41 be 01 00 00 00    	mov    $0x1,%r14d
  401b7a:	48 c7 44 24 40 c8 50 	movq   $0x4050c8,0x40(%rsp)
  401b81:	40 00 
  401b83:	d9 e0                	fchs
  401b85:	db bc 24 90 1d 00 00 	fstpt  0x1d90(%rsp)
  401b8c:	eb 35                	jmp    401bc3 <fmt_fp+0xaf>
  401b8e:	0f ba 64 24 58 0b    	btl    $0xb,0x58(%rsp)
  401b94:	72 1e                	jb     401bb4 <fmt_fp+0xa0>
  401b96:	44 8b 74 24 58       	mov    0x58(%rsp),%r14d
  401b9b:	ba ce 50 40 00       	mov    $0x4050ce,%edx
  401ba0:	b8 c9 50 40 00       	mov    $0x4050c9,%eax
  401ba5:	41 83 e6 01          	and    $0x1,%r14d
  401ba9:	48 0f 45 c2          	cmovne %rdx,%rax
  401bad:	48 89 44 24 40       	mov    %rax,0x40(%rsp)
  401bb2:	eb 0f                	jmp    401bc3 <fmt_fp+0xaf>
  401bb4:	48 c7 44 24 40 cb 50 	movq   $0x4050cb,0x40(%rsp)
  401bbb:	40 00 
  401bbd:	41 be 01 00 00 00    	mov    $0x1,%r14d
  401bc3:	ff b4 24 98 1d 00 00 	push   0x1d98(%rsp)
  401bca:	ff b4 24 98 1d 00 00 	push   0x1d98(%rsp)
  401bd1:	67 e8 14 1c 00 00    	addr32 call 4037eb <__fpclassifyl>
  401bd7:	59                   	pop    %rcx
  401bd8:	5e                   	pop    %rsi
  401bd9:	ff c8                	dec    %eax
  401bdb:	7f 75                	jg     401c52 <fmt_fp+0x13e>
  401bdd:	db ac 24 90 1d 00 00 	fldt   0x1d90(%rsp)
  401be4:	44 89 e8             	mov    %r13d,%eax
  401be7:	bb db 50 40 00       	mov    $0x4050db,%ebx
  401bec:	ba df 50 40 00       	mov    $0x4050df,%edx
  401bf1:	83 e0 20             	and    $0x20,%eax
  401bf4:	48 0f 44 da          	cmove  %rdx,%rbx
  401bf8:	df e8                	fucomip %st(0),%st
  401bfa:	7a 02                	jp     401bfe <fmt_fp+0xea>
  401bfc:	74 10                	je     401c0e <fmt_fp+0xfa>
  401bfe:	85 c0                	test   %eax,%eax
  401c00:	bb e3 50 40 00       	mov    $0x4050e3,%ebx
  401c05:	b8 e7 50 40 00       	mov    $0x4050e7,%eax
  401c0a:	48 0f 44 d8          	cmove  %rax,%rbx
  401c0e:	44 8b 44 24 58       	mov    0x58(%rsp),%r8d
  401c13:	8b 54 24 24          	mov    0x24(%rsp),%edx
  401c17:	41 8d 6e 03          	lea    0x3(%r14),%ebp
  401c1b:	be 20 00 00 00       	mov    $0x20,%esi
  401c20:	48 8b 7c 24 08       	mov    0x8(%rsp),%rdi
  401c25:	89 e9                	mov    %ebp,%ecx
  401c27:	41 81 e0 ff ff fe ff 	and    $0xfffeffff,%r8d
  401c2e:	e8 26 fe ff ff       	call   401a59 <pad>
  401c33:	48 8b 74 24 40       	mov    0x40(%rsp),%rsi
  401c38:	48 8b 7c 24 08       	mov    0x8(%rsp),%rdi
  401c3d:	49 63 d6             	movslq %r14d,%rdx
  401c40:	e8 fd fd ff ff       	call   401a42 <out>
  401c45:	ba 03 00 00 00       	mov    $0x3,%edx
  401c4a:	48 89 de             	mov    %rbx,%rsi
  401c4d:	e9 65 02 00 00       	jmp    401eb7 <fmt_fp+0x3a3>
  401c52:	ff b4 24 98 1d 00 00 	push   0x1d98(%rsp)
  401c59:	ff b4 24 98 1d 00 00 	push   0x1d98(%rsp)
  401c60:	48 8d bc 24 80 00 00 	lea    0x80(%rsp),%rdi
  401c67:	00 
  401c68:	67 e8 cd 1b 00 00    	addr32 call 40383b <frexpl>
  401c6e:	d8 c0                	fadd   %st(0),%st
  401c70:	db 7c 24 20          	fstpt  0x20(%rsp)
  401c74:	58                   	pop    %rax
  401c75:	5a                   	pop    %rdx
  401c76:	d9 ee                	fldz
  401c78:	db 6c 24 10          	fldt   0x10(%rsp)
  401c7c:	df e9                	fucomip %st(1),%st
  401c7e:	db 7c 24 30          	fstpt  0x30(%rsp)
  401c82:	7a 02                	jp     401c86 <fmt_fp+0x172>
  401c84:	74 04                	je     401c8a <fmt_fp+0x176>
  401c86:	ff 4c 24 70          	decl   0x70(%rsp)
  401c8a:	45 89 ea             	mov    %r13d,%r10d
  401c8d:	41 83 ca 20          	or     $0x20,%r10d
  401c91:	41 83 fa 61          	cmp    $0x61,%r10d
  401c95:	0f 85 57 02 00 00    	jne    401ef2 <fmt_fp+0x3de>
  401c9b:	41 f6 c5 20          	test   $0x20,%r13b
  401c9f:	74 06                	je     401ca7 <fmt_fp+0x193>
  401ca1:	48 83 44 24 40 09    	addq   $0x9,0x40(%rsp)
  401ca7:	41 83 c6 02          	add    $0x2,%r14d
  401cab:	83 fb 0e             	cmp    $0xe,%ebx
  401cae:	77 42                	ja     401cf2 <fmt_fp+0x1de>
  401cb0:	d9 05 3a 38 00 00    	flds   0x383a(%rip)        # 4054f0 <states+0x1d0>
  401cb6:	b8 0f 00 00 00       	mov    $0xf,%eax
  401cbb:	29 d8                	sub    %ebx,%eax
  401cbd:	ff c8                	dec    %eax
  401cbf:	83 f8 ff             	cmp    $0xffffffff,%eax
  401cc2:	74 0a                	je     401cce <fmt_fp+0x1ba>
  401cc4:	db 2d 56 38 00 00    	fldt   0x3856(%rip)        # 405520 <states+0x200>
  401cca:	de c9                	fmulp  %st,%st(1)
  401ccc:	eb ef                	jmp    401cbd <fmt_fp+0x1a9>
  401cce:	48 8b 44 24 40       	mov    0x40(%rsp),%rax
  401cd3:	db 6c 24 10          	fldt   0x10(%rsp)
  401cd7:	80 38 2d             	cmpb   $0x2d,(%rax)
  401cda:	75 0e                	jne    401cea <fmt_fp+0x1d6>
  401cdc:	d9 e0                	fchs
  401cde:	d8 e1                	fsub   %st(1),%st
  401ce0:	de c1                	faddp  %st,%st(1)
  401ce2:	d9 e0                	fchs
  401ce4:	db 7c 24 10          	fstpt  0x10(%rsp)
  401ce8:	eb 08                	jmp    401cf2 <fmt_fp+0x1de>
  401cea:	d8 c1                	fadd   %st(1),%st
  401cec:	de e1                	fsubp  %st,%st(1)
  401cee:	db 7c 24 10          	fstpt  0x10(%rsp)
  401cf2:	8b 44 24 70          	mov    0x70(%rsp),%eax
  401cf6:	8b 7c 24 70          	mov    0x70(%rsp),%edi
  401cfa:	48 8d ac 24 2f 1d 00 	lea    0x1d2f(%rsp),%rbp
  401d01:	00 
  401d02:	48 89 ee             	mov    %rbp,%rsi
  401d05:	c1 f8 1f             	sar    $0x1f,%eax
  401d08:	31 c7                	xor    %eax,%edi
  401d0a:	29 c7                	sub    %eax,%edi
  401d0c:	48 63 ff             	movslq %edi,%rdi
  401d0f:	e8 d3 fc ff ff       	call   4019e7 <fmt_u>
  401d14:	48 39 e8             	cmp    %rbp,%rax
  401d17:	75 10                	jne    401d29 <fmt_fp+0x215>
  401d19:	c6 84 24 2e 1d 00 00 	movb   $0x30,0x1d2e(%rsp)
  401d20:	30 
  401d21:	48 8d 84 24 2e 1d 00 	lea    0x1d2e(%rsp),%rax
  401d28:	00 
  401d29:	8b 54 24 70          	mov    0x70(%rsp),%edx
  401d2d:	44 8b 44 24 58       	mov    0x58(%rsp),%r8d
  401d32:	4c 8d 78 fe          	lea    -0x2(%rax),%r15
  401d36:	44 89 ee             	mov    %r13d,%esi
  401d39:	83 e6 20             	and    $0x20,%esi
  401d3c:	40 b7 01             	mov    $0x1,%dil
  401d3f:	c1 fa 1f             	sar    $0x1f,%edx
  401d42:	41 83 e0 08          	and    $0x8,%r8d
  401d46:	83 e2 02             	and    $0x2,%edx
  401d49:	83 c2 2b             	add    $0x2b,%edx
  401d4c:	88 50 ff             	mov    %dl,-0x1(%rax)
  401d4f:	41 8d 55 0f          	lea    0xf(%r13),%edx
  401d53:	88 50 fe             	mov    %dl,-0x2(%rax)
  401d56:	48 8d 84 24 2f 1d 00 	lea    0x1d2f(%rsp),%rax
  401d5d:	00 
  401d5e:	d9 7c 24 6e          	fnstcw 0x6e(%rsp)
  401d62:	48 89 c1             	mov    %rax,%rcx
  401d65:	66 8b 54 24 6e       	mov    0x6e(%rsp),%dx
  401d6a:	80 ce 0c             	or     $0xc,%dh
  401d6d:	66 89 54 24 6c       	mov    %dx,0x6c(%rsp)
  401d72:	db 6c 24 10          	fldt   0x10(%rsp)
  401d76:	4c 8d 68 01          	lea    0x1(%rax),%r13
  401d7a:	d9 c0                	fld    %st(0)
  401d7c:	d9 6c 24 6c          	fldcw  0x6c(%rsp)
  401d80:	db 5c 24 28          	fistpl 0x28(%rsp)
  401d84:	d9 6c 24 6e          	fldcw  0x6e(%rsp)
  401d88:	48 63 54 24 28       	movslq 0x28(%rsp),%rdx
  401d8d:	44 8a 9a 00 53 40 00 	mov    0x405300(%rdx),%r11b
  401d94:	da 64 24 28          	fisubl 0x28(%rsp)
  401d98:	41 09 f3             	or     %esi,%r11d
  401d9b:	db 2d 7f 37 00 00    	fldt   0x377f(%rip)        # 405520 <states+0x200>
  401da1:	44 88 18             	mov    %r11b,(%rax)
  401da4:	de c9                	fmulp  %st,%st(1)
  401da6:	d9 c0                	fld    %st(0)
  401da8:	db 7c 24 10          	fstpt  0x10(%rsp)
  401dac:	48 39 c8             	cmp    %rcx,%rax
  401daf:	75 25                	jne    401dd6 <fmt_fp+0x2c2>
  401db1:	db 6c 24 30          	fldt   0x30(%rsp)
  401db5:	df e9                	fucomip %st(1),%st
  401db7:	dd d8                	fstp   %st(0)
  401db9:	0f 9a c2             	setp   %dl
  401dbc:	0f 45 d7             	cmovne %edi,%edx
  401dbf:	84 d2                	test   %dl,%dl
  401dc1:	75 09                	jne    401dcc <fmt_fp+0x2b8>
  401dc3:	85 db                	test   %ebx,%ebx
  401dc5:	7f 05                	jg     401dcc <fmt_fp+0x2b8>
  401dc7:	45 85 c0             	test   %r8d,%r8d
  401dca:	74 21                	je     401ded <fmt_fp+0x2d9>
  401dcc:	c6 40 01 2e          	movb   $0x2e,0x1(%rax)
  401dd0:	4c 8d 68 02          	lea    0x2(%rax),%r13
  401dd4:	eb 02                	jmp    401dd8 <fmt_fp+0x2c4>
  401dd6:	dd d8                	fstp   %st(0)
  401dd8:	db 6c 24 30          	fldt   0x30(%rsp)
  401ddc:	db 6c 24 10          	fldt   0x10(%rsp)
  401de0:	df e9                	fucomip %st(1),%st
  401de2:	dd d8                	fstp   %st(0)
  401de4:	7b 05                	jnp    401deb <fmt_fp+0x2d7>
  401de6:	4c 89 e8             	mov    %r13,%rax
  401de9:	eb 87                	jmp    401d72 <fmt_fp+0x25e>
  401deb:	75 f9                	jne    401de6 <fmt_fp+0x2d2>
  401ded:	4c 8d a4 24 2f 1d 00 	lea    0x1d2f(%rsp),%r12
  401df4:	00 
  401df5:	b8 fd ff ff 7f       	mov    $0x7ffffffd,%eax
  401dfa:	49 63 f6             	movslq %r14d,%rsi
  401dfd:	48 63 d3             	movslq %ebx,%rdx
  401e00:	4d 29 fc             	sub    %r15,%r12
  401e03:	4c 29 e0             	sub    %r12,%rax
  401e06:	48 29 f0             	sub    %rsi,%rax
  401e09:	48 39 c2             	cmp    %rax,%rdx
  401e0c:	7e 08                	jle    401e16 <fmt_fp+0x302>
  401e0e:	83 c8 ff             	or     $0xffffffff,%eax
  401e11:	e9 45 08 00 00       	jmp    40265b <fmt_fp+0xb47>
  401e16:	49 29 cd             	sub    %rcx,%r13
  401e19:	85 db                	test   %ebx,%ebx
  401e1b:	74 0e                	je     401e2b <fmt_fp+0x317>
  401e1d:	49 8d 45 ff          	lea    -0x1(%r13),%rax
  401e21:	42 8d 5c 23 02       	lea    0x2(%rbx,%r12,1),%ebx
  401e26:	48 39 c2             	cmp    %rax,%rdx
  401e29:	7d 04                	jge    401e2f <fmt_fp+0x31b>
  401e2b:	43 8d 1c 2c          	lea    (%r12,%r13,1),%ebx
  401e2f:	42 8d 2c 33          	lea    (%rbx,%r14,1),%ebp
  401e33:	44 8b 44 24 58       	mov    0x58(%rsp),%r8d
  401e38:	8b 54 24 24          	mov    0x24(%rsp),%edx
  401e3c:	be 20 00 00 00       	mov    $0x20,%esi
  401e41:	48 8b 7c 24 08       	mov    0x8(%rsp),%rdi
  401e46:	89 e9                	mov    %ebp,%ecx
  401e48:	e8 0c fc ff ff       	call   401a59 <pad>
  401e4d:	48 8b 74 24 40       	mov    0x40(%rsp),%rsi
  401e52:	48 8b 7c 24 08       	mov    0x8(%rsp),%rdi
  401e57:	49 63 d6             	movslq %r14d,%rdx
  401e5a:	e8 e3 fb ff ff       	call   401a42 <out>
  401e5f:	44 8b 44 24 58       	mov    0x58(%rsp),%r8d
  401e64:	8b 54 24 24          	mov    0x24(%rsp),%edx
  401e68:	89 e9                	mov    %ebp,%ecx
  401e6a:	48 8b 7c 24 08       	mov    0x8(%rsp),%rdi
  401e6f:	be 30 00 00 00       	mov    $0x30,%esi
  401e74:	41 81 f0 00 00 01 00 	xor    $0x10000,%r8d
  401e7b:	e8 d9 fb ff ff       	call   401a59 <pad>
  401e80:	48 8b 7c 24 08       	mov    0x8(%rsp),%rdi
  401e85:	4c 89 ea             	mov    %r13,%rdx
  401e88:	48 8d b4 24 2f 1d 00 	lea    0x1d2f(%rsp),%rsi
  401e8f:	00 
  401e90:	45 01 e5             	add    %r12d,%r13d
  401e93:	e8 aa fb ff ff       	call   401a42 <out>
  401e98:	44 29 eb             	sub    %r13d,%ebx
  401e9b:	48 8b 7c 24 08       	mov    0x8(%rsp),%rdi
  401ea0:	45 31 c0             	xor    %r8d,%r8d
  401ea3:	89 da                	mov    %ebx,%edx
  401ea5:	be 30 00 00 00       	mov    $0x30,%esi
  401eaa:	31 c9                	xor    %ecx,%ecx
  401eac:	e8 a8 fb ff ff       	call   401a59 <pad>
  401eb1:	4c 89 e2             	mov    %r12,%rdx
  401eb4:	4c 89 fe             	mov    %r15,%rsi
  401eb7:	48 8b 7c 24 08       	mov    0x8(%rsp),%rdi
  401ebc:	e8 81 fb ff ff       	call   401a42 <out>
  401ec1:	44 8b 44 24 58       	mov    0x58(%rsp),%r8d
  401ec6:	8b 54 24 24          	mov    0x24(%rsp),%edx
  401eca:	89 e9                	mov    %ebp,%ecx
  401ecc:	48 8b 7c 24 08       	mov    0x8(%rsp),%rdi
  401ed1:	be 20 00 00 00       	mov    $0x20,%esi
  401ed6:	41 81 f0 00 20 00 00 	xor    $0x2000,%r8d
  401edd:	e8 77 fb ff ff       	call   401a59 <pad>
  401ee2:	8b 44 24 24          	mov    0x24(%rsp),%eax
  401ee6:	3b 6c 24 24          	cmp    0x24(%rsp),%ebp
  401eea:	0f 4d c5             	cmovge %ebp,%eax
  401eed:	e9 69 07 00 00       	jmp    40265b <fmt_fp+0xb47>
  401ef2:	85 db                	test   %ebx,%ebx
  401ef4:	79 05                	jns    401efb <fmt_fp+0x3e7>
  401ef6:	bb 06 00 00 00       	mov    $0x6,%ebx
  401efb:	db 6c 24 30          	fldt   0x30(%rsp)
  401eff:	db 6c 24 10          	fldt   0x10(%rsp)
  401f03:	df e9                	fucomip %st(1),%st
  401f05:	dd d8                	fstp   %st(0)
  401f07:	7a 02                	jp     401f0b <fmt_fp+0x3f7>
  401f09:	74 13                	je     401f1e <fmt_fp+0x40a>
  401f0b:	db 6c 24 10          	fldt   0x10(%rsp)
  401f0f:	d8 0d eb 35 00 00    	fmuls  0x35eb(%rip)        # 405500 <states+0x1e0>
  401f15:	83 6c 24 70 1c       	subl   $0x1c,0x70(%rsp)
  401f1a:	db 7c 24 10          	fstpt  0x10(%rsp)
  401f1e:	8b 74 24 70          	mov    0x70(%rsp),%esi
  401f22:	48 8d 44 24 74       	lea    0x74(%rsp),%rax
  401f27:	85 f6                	test   %esi,%esi
  401f29:	78 08                	js     401f33 <fmt_fp+0x41f>
  401f2b:	48 8d 84 24 1c 1c 00 	lea    0x1c1c(%rsp),%rax
  401f32:	00 
  401f33:	d9 7c 24 6e          	fnstcw 0x6e(%rsp)
  401f37:	48 89 44 24 28       	mov    %rax,0x28(%rsp)
  401f3c:	48 8b 6c 24 28       	mov    0x28(%rsp),%rbp
  401f41:	66 8b 44 24 6e       	mov    0x6e(%rsp),%ax
  401f46:	80 cc 0c             	or     $0xc,%ah
  401f49:	66 89 44 24 6c       	mov    %ax,0x6c(%rsp)
  401f4e:	db 6c 24 10          	fldt   0x10(%rsp)
  401f52:	48 83 c5 04          	add    $0x4,%rbp
  401f56:	d9 6c 24 6c          	fldcw  0x6c(%rsp)
  401f5a:	df 7c 24 60          	fistpll 0x60(%rsp)
  401f5e:	d9 6c 24 6e          	fldcw  0x6e(%rsp)
  401f62:	48 8b 44 24 60       	mov    0x60(%rsp),%rax
  401f67:	89 45 fc             	mov    %eax,-0x4(%rbp)
  401f6a:	89 c0                	mov    %eax,%eax
  401f6c:	48 89 44 24 50       	mov    %rax,0x50(%rsp)
  401f71:	df 6c 24 50          	fildll 0x50(%rsp)
  401f75:	db 6c 24 10          	fldt   0x10(%rsp)
  401f79:	de e1                	fsubp  %st,%st(1)
  401f7b:	d8 0d 83 35 00 00    	fmuls  0x3583(%rip)        # 405504 <states+0x1e4>
  401f81:	d9 c0                	fld    %st(0)
  401f83:	db 7c 24 10          	fstpt  0x10(%rsp)
  401f87:	db 6c 24 30          	fldt   0x30(%rsp)
  401f8b:	d9 c9                	fxch   %st(1)
  401f8d:	df e9                	fucomip %st(1),%st
  401f8f:	dd d8                	fstp   %st(0)
  401f91:	7a bb                	jp     401f4e <fmt_fp+0x43a>
  401f93:	75 b9                	jne    401f4e <fmt_fp+0x43a>
  401f95:	4c 8b 7c 24 28       	mov    0x28(%rsp),%r15
  401f9a:	31 c0                	xor    %eax,%eax
  401f9c:	41 b9 1d 00 00 00    	mov    $0x1d,%r9d
  401fa2:	41 b8 00 ca 9a 3b    	mov    $0x3b9aca00,%r8d
  401fa8:	85 f6                	test   %esi,%esi
  401faa:	7e 4f                	jle    401ffb <fmt_fp+0x4e7>
  401fac:	83 fe 1d             	cmp    $0x1d,%esi
  401faf:	44 89 c9             	mov    %r9d,%ecx
  401fb2:	48 8d 7d fc          	lea    -0x4(%rbp),%rdi
  401fb6:	0f 4e ce             	cmovle %esi,%ecx
  401fb9:	31 c0                	xor    %eax,%eax
  401fbb:	49 39 ff             	cmp    %rdi,%r15
  401fbe:	77 18                	ja     401fd8 <fmt_fp+0x4c4>
  401fc0:	8b 17                	mov    (%rdi),%edx
  401fc2:	89 c0                	mov    %eax,%eax
  401fc4:	48 83 ef 04          	sub    $0x4,%rdi
  401fc8:	48 d3 e2             	shl    %cl,%rdx
  401fcb:	48 01 d0             	add    %rdx,%rax
  401fce:	31 d2                	xor    %edx,%edx
  401fd0:	49 f7 f0             	div    %r8
  401fd3:	89 57 04             	mov    %edx,0x4(%rdi)
  401fd6:	eb e3                	jmp    401fbb <fmt_fp+0x4a7>
  401fd8:	85 c0                	test   %eax,%eax
  401fda:	74 14                	je     401ff0 <fmt_fp+0x4dc>
  401fdc:	41 89 47 fc          	mov    %eax,-0x4(%r15)
  401fe0:	49 83 ef 04          	sub    $0x4,%r15
  401fe4:	eb 0a                	jmp    401ff0 <fmt_fp+0x4dc>
  401fe6:	83 7d fc 00          	cmpl   $0x0,-0x4(%rbp)
  401fea:	75 09                	jne    401ff5 <fmt_fp+0x4e1>
  401fec:	48 83 ed 04          	sub    $0x4,%rbp
  401ff0:	4c 39 fd             	cmp    %r15,%rbp
  401ff3:	77 f1                	ja     401fe6 <fmt_fp+0x4d2>
  401ff5:	29 ce                	sub    %ecx,%esi
  401ff7:	b0 01                	mov    $0x1,%al
  401ff9:	eb ad                	jmp    401fa8 <fmt_fp+0x494>
  401ffb:	84 c0                	test   %al,%al
  401ffd:	74 04                	je     402003 <fmt_fp+0x4ef>
  401fff:	89 74 24 70          	mov    %esi,0x70(%rsp)
  402003:	8d 43 1d             	lea    0x1d(%rbx),%eax
  402006:	b9 09 00 00 00       	mov    $0x9,%ecx
  40200b:	31 d2                	xor    %edx,%edx
  40200d:	f7 f1                	div    %ecx
  40200f:	31 d2                	xor    %edx,%edx
  402011:	44 8d 48 01          	lea    0x1(%rax),%r9d
  402015:	8b 44 24 70          	mov    0x70(%rsp),%eax
  402019:	4e 8d 1c 8d 00 00 00 	lea    0x0(,%r9,4),%r11
  402020:	00 
  402021:	85 c0                	test   %eax,%eax
  402023:	0f 89 8b 00 00 00    	jns    4020b4 <fmt_fp+0x5a0>
  402029:	b9 09 00 00 00       	mov    $0x9,%ecx
  40202e:	83 f8 f7             	cmp    $0xfffffff7,%eax
  402031:	7c 04                	jl     402037 <fmt_fp+0x523>
  402033:	89 c1                	mov    %eax,%ecx
  402035:	f7 d9                	neg    %ecx
  402037:	bf 00 ca 9a 3b       	mov    $0x3b9aca00,%edi
  40203c:	41 b8 01 00 00 00    	mov    $0x1,%r8d
  402042:	4c 89 fa             	mov    %r15,%rdx
  402045:	31 f6                	xor    %esi,%esi
  402047:	d3 ff                	sar    %cl,%edi
  402049:	41 d3 e0             	shl    %cl,%r8d
  40204c:	89 7c 24 10          	mov    %edi,0x10(%rsp)
  402050:	41 ff c8             	dec    %r8d
  402053:	48 39 ea             	cmp    %rbp,%rdx
  402056:	73 1e                	jae    402076 <fmt_fp+0x562>
  402058:	8b 3a                	mov    (%rdx),%edi
  40205a:	48 83 c2 04          	add    $0x4,%rdx
  40205e:	41 89 fc             	mov    %edi,%r12d
  402061:	41 d3 ec             	shr    %cl,%r12d
  402064:	44 01 e6             	add    %r12d,%esi
  402067:	89 72 fc             	mov    %esi,-0x4(%rdx)
  40206a:	89 fe                	mov    %edi,%esi
  40206c:	44 21 c6             	and    %r8d,%esi
  40206f:	0f af 74 24 10       	imul   0x10(%rsp),%esi
  402074:	eb dd                	jmp    402053 <fmt_fp+0x53f>
  402076:	41 83 3f 00          	cmpl   $0x0,(%r15)
  40207a:	75 04                	jne    402080 <fmt_fp+0x56c>
  40207c:	49 83 c7 04          	add    $0x4,%r15
  402080:	85 f6                	test   %esi,%esi
  402082:	74 07                	je     40208b <fmt_fp+0x577>
  402084:	89 75 00             	mov    %esi,0x0(%rbp)
  402087:	48 83 c5 04          	add    $0x4,%rbp
  40208b:	48 8b 74 24 28       	mov    0x28(%rsp),%rsi
  402090:	41 83 fa 66          	cmp    $0x66,%r10d
  402094:	48 89 ea             	mov    %rbp,%rdx
  402097:	49 0f 45 f7          	cmovne %r15,%rsi
  40209b:	48 29 f2             	sub    %rsi,%rdx
  40209e:	48 c1 fa 02          	sar    $0x2,%rdx
  4020a2:	4c 39 ca             	cmp    %r9,%rdx
  4020a5:	7e 04                	jle    4020ab <fmt_fp+0x597>
  4020a7:	4a 8d 2c 1e          	lea    (%rsi,%r11,1),%rbp
  4020ab:	01 c8                	add    %ecx,%eax
  4020ad:	b2 01                	mov    $0x1,%dl
  4020af:	e9 6d ff ff ff       	jmp    402021 <fmt_fp+0x50d>
  4020b4:	84 d2                	test   %dl,%dl
  4020b6:	74 04                	je     4020bc <fmt_fp+0x5a8>
  4020b8:	89 44 24 70          	mov    %eax,0x70(%rsp)
  4020bc:	45 31 e4             	xor    %r12d,%r12d
  4020bf:	49 39 ef             	cmp    %rbp,%r15
  4020c2:	73 24                	jae    4020e8 <fmt_fp+0x5d4>
  4020c4:	4c 8b 64 24 28       	mov    0x28(%rsp),%r12
  4020c9:	41 8b 17             	mov    (%r15),%edx
  4020cc:	b8 0a 00 00 00       	mov    $0xa,%eax
  4020d1:	4d 29 fc             	sub    %r15,%r12
  4020d4:	49 c1 fc 02          	sar    $0x2,%r12
  4020d8:	47 8d 24 e4          	lea    (%r12,%r12,8),%r12d
  4020dc:	39 c2                	cmp    %eax,%edx
  4020de:	72 08                	jb     4020e8 <fmt_fp+0x5d4>
  4020e0:	6b c0 0a             	imul   $0xa,%eax,%eax
  4020e3:	41 ff c4             	inc    %r12d
  4020e6:	eb f4                	jmp    4020dc <fmt_fp+0x5c8>
  4020e8:	31 c0                	xor    %eax,%eax
  4020ea:	41 83 fa 66          	cmp    $0x66,%r10d
  4020ee:	89 d9                	mov    %ebx,%ecx
  4020f0:	0f 95 c0             	setne  %al
  4020f3:	41 0f af c4          	imul   %r12d,%eax
  4020f7:	29 c1                	sub    %eax,%ecx
  4020f9:	85 db                	test   %ebx,%ebx
  4020fb:	89 c8                	mov    %ecx,%eax
  4020fd:	0f 95 c1             	setne  %cl
  402100:	31 d2                	xor    %edx,%edx
  402102:	41 83 fa 67          	cmp    $0x67,%r10d
  402106:	0f 94 c2             	sete   %dl
  402109:	21 ca                	and    %ecx,%edx
  40210b:	29 d0                	sub    %edx,%eax
  40210d:	48 89 ea             	mov    %rbp,%rdx
  402110:	48 2b 54 24 28       	sub    0x28(%rsp),%rdx
  402115:	48 c1 fa 02          	sar    $0x2,%rdx
  402119:	48 63 c8             	movslq %eax,%rcx
  40211c:	48 ff ca             	dec    %rdx
  40211f:	48 8d 14 d2          	lea    (%rdx,%rdx,8),%rdx
  402123:	48 39 d1             	cmp    %rdx,%rcx
  402126:	0f 8d 22 01 00 00    	jge    40224e <fmt_fp+0x73a>
  40212c:	05 00 40 02 00       	add    $0x24000,%eax
  402131:	b9 09 00 00 00       	mov    $0x9,%ecx
  402136:	be 0a 00 00 00       	mov    $0xa,%esi
  40213b:	99                   	cltd
  40213c:	f7 f9                	idiv   %ecx
  40213e:	48 8b 4c 24 28       	mov    0x28(%rsp),%rcx
  402143:	48 98                	cltq
  402145:	ff c2                	inc    %edx
  402147:	48 8d 8c 81 04 00 ff 	lea    -0xfffc(%rcx,%rax,4),%rcx
  40214e:	ff 
  40214f:	83 fa 09             	cmp    $0x9,%edx
  402152:	74 07                	je     40215b <fmt_fp+0x647>
  402154:	6b f6 0a             	imul   $0xa,%esi,%esi
  402157:	ff c2                	inc    %edx
  402159:	eb f4                	jmp    40214f <fmt_fp+0x63b>
  40215b:	8b 39                	mov    (%rcx),%edi
  40215d:	31 d2                	xor    %edx,%edx
  40215f:	89 f8                	mov    %edi,%eax
  402161:	f7 f6                	div    %esi
  402163:	85 d2                	test   %edx,%edx
  402165:	75 0d                	jne    402174 <fmt_fp+0x660>
  402167:	4c 8d 41 04          	lea    0x4(%rcx),%r8
  40216b:	4c 39 c5             	cmp    %r8,%rbp
  40216e:	0f 84 c3 00 00 00    	je     402237 <fmt_fp+0x723>
  402174:	a8 01                	test   $0x1,%al
  402176:	75 13                	jne    40218b <fmt_fp+0x677>
  402178:	81 fe 00 ca 9a 3b    	cmp    $0x3b9aca00,%esi
  40217e:	75 13                	jne    402193 <fmt_fp+0x67f>
  402180:	49 39 cf             	cmp    %rcx,%r15
  402183:	73 0e                	jae    402193 <fmt_fp+0x67f>
  402185:	f6 41 fc 01          	testb  $0x1,-0x4(%rcx)
  402189:	74 08                	je     402193 <fmt_fp+0x67f>
  40218b:	db 2d 7f 33 00 00    	fldt   0x337f(%rip)        # 405510 <states+0x1f0>
  402191:	eb 06                	jmp    402199 <fmt_fp+0x685>
  402193:	d9 05 5b 33 00 00    	flds   0x335b(%rip)        # 4054f4 <states+0x1d4>
  402199:	89 f0                	mov    %esi,%eax
  40219b:	d1 f8                	sar    $1,%eax
  40219d:	39 d0                	cmp    %edx,%eax
  40219f:	77 0f                	ja     4021b0 <fmt_fp+0x69c>
  4021a1:	75 17                	jne    4021ba <fmt_fp+0x6a6>
  4021a3:	48 8d 41 04          	lea    0x4(%rcx),%rax
  4021a7:	d9 e8                	fld1
  4021a9:	48 39 c5             	cmp    %rax,%rbp
  4021ac:	75 0a                	jne    4021b8 <fmt_fp+0x6a4>
  4021ae:	eb 10                	jmp    4021c0 <fmt_fp+0x6ac>
  4021b0:	d9 05 46 33 00 00    	flds   0x3346(%rip)        # 4054fc <states+0x1dc>
  4021b6:	eb 08                	jmp    4021c0 <fmt_fp+0x6ac>
  4021b8:	dd d8                	fstp   %st(0)
  4021ba:	d9 05 38 33 00 00    	flds   0x3338(%rip)        # 4054f8 <states+0x1d8>
  4021c0:	45 85 f6             	test   %r14d,%r14d
  4021c3:	74 12                	je     4021d7 <fmt_fp+0x6c3>
  4021c5:	48 8b 44 24 40       	mov    0x40(%rsp),%rax
  4021ca:	80 38 2d             	cmpb   $0x2d,(%rax)
  4021cd:	75 08                	jne    4021d7 <fmt_fp+0x6c3>
  4021cf:	d9 c9                	fxch   %st(1)
  4021d1:	d9 e0                	fchs
  4021d3:	d9 c9                	fxch   %st(1)
  4021d5:	d9 e0                	fchs
  4021d7:	d8 c1                	fadd   %st(1),%st
  4021d9:	29 d7                	sub    %edx,%edi
  4021db:	df e9                	fucomip %st(1),%st
  4021dd:	dd d8                	fstp   %st(0)
  4021df:	7a 06                	jp     4021e7 <fmt_fp+0x6d3>
  4021e1:	75 04                	jne    4021e7 <fmt_fp+0x6d3>
  4021e3:	89 39                	mov    %edi,(%rcx)
  4021e5:	eb 50                	jmp    402237 <fmt_fp+0x723>
  4021e7:	01 fe                	add    %edi,%esi
  4021e9:	89 31                	mov    %esi,(%rcx)
  4021eb:	81 39 ff c9 9a 3b    	cmpl   $0x3b9ac9ff,(%rcx)
  4021f1:	76 20                	jbe    402213 <fmt_fp+0x6ff>
  4021f3:	48 83 e9 04          	sub    $0x4,%rcx
  4021f7:	c7 41 04 00 00 00 00 	movl   $0x0,0x4(%rcx)
  4021fe:	49 39 cf             	cmp    %rcx,%r15
  402201:	76 0c                	jbe    40220f <fmt_fp+0x6fb>
  402203:	41 c7 47 fc 00 00 00 	movl   $0x0,-0x4(%r15)
  40220a:	00 
  40220b:	49 83 ef 04          	sub    $0x4,%r15
  40220f:	ff 01                	incl   (%rcx)
  402211:	eb d8                	jmp    4021eb <fmt_fp+0x6d7>
  402213:	4c 8b 64 24 28       	mov    0x28(%rsp),%r12
  402218:	41 8b 17             	mov    (%r15),%edx
  40221b:	b8 0a 00 00 00       	mov    $0xa,%eax
  402220:	4d 29 fc             	sub    %r15,%r12
  402223:	49 c1 fc 02          	sar    $0x2,%r12
  402227:	47 8d 24 e4          	lea    (%r12,%r12,8),%r12d
  40222b:	39 c2                	cmp    %eax,%edx
  40222d:	72 08                	jb     402237 <fmt_fp+0x723>
  40222f:	6b c0 0a             	imul   $0xa,%eax,%eax
  402232:	41 ff c4             	inc    %r12d
  402235:	eb f4                	jmp    40222b <fmt_fp+0x717>
  402237:	48 83 c1 04          	add    $0x4,%rcx
  40223b:	48 39 cd             	cmp    %rcx,%rbp
  40223e:	48 0f 47 e9          	cmova  %rcx,%rbp
  402242:	eb 0a                	jmp    40224e <fmt_fp+0x73a>
  402244:	83 7d fc 00          	cmpl   $0x0,-0x4(%rbp)
  402248:	75 09                	jne    402253 <fmt_fp+0x73f>
  40224a:	48 83 ed 04          	sub    $0x4,%rbp
  40224e:	4c 39 fd             	cmp    %r15,%rbp
  402251:	77 f1                	ja     402244 <fmt_fp+0x730>
  402253:	41 83 fa 67          	cmp    $0x67,%r10d
  402257:	0f 85 93 00 00 00    	jne    4022f0 <fmt_fp+0x7dc>
  40225d:	85 db                	test   %ebx,%ebx
  40225f:	75 05                	jne    402266 <fmt_fp+0x752>
  402261:	bb 01 00 00 00       	mov    $0x1,%ebx
  402266:	44 39 e3             	cmp    %r12d,%ebx
  402269:	7e 12                	jle    40227d <fmt_fp+0x769>
  40226b:	41 83 fc fc          	cmp    $0xfffffffc,%r12d
  40226f:	7c 0c                	jl     40227d <fmt_fp+0x769>
  402271:	41 8d 44 24 01       	lea    0x1(%r12),%eax
  402276:	41 ff cd             	dec    %r13d
  402279:	29 c3                	sub    %eax,%ebx
  40227b:	eb 06                	jmp    402283 <fmt_fp+0x76f>
  40227d:	41 83 ed 02          	sub    $0x2,%r13d
  402281:	ff cb                	dec    %ebx
  402283:	f6 44 24 58 08       	testb  $0x8,0x58(%rsp)
  402288:	75 66                	jne    4022f0 <fmt_fp+0x7dc>
  40228a:	b9 09 00 00 00       	mov    $0x9,%ecx
  40228f:	4c 39 fd             	cmp    %r15,%rbp
  402292:	76 1f                	jbe    4022b3 <fmt_fp+0x79f>
  402294:	8b 7d fc             	mov    -0x4(%rbp),%edi
  402297:	85 ff                	test   %edi,%edi
  402299:	74 18                	je     4022b3 <fmt_fp+0x79f>
  40229b:	31 c9                	xor    %ecx,%ecx
  40229d:	be 0a 00 00 00       	mov    $0xa,%esi
  4022a2:	89 f8                	mov    %edi,%eax
  4022a4:	31 d2                	xor    %edx,%edx
  4022a6:	f7 f6                	div    %esi
  4022a8:	85 d2                	test   %edx,%edx
  4022aa:	75 07                	jne    4022b3 <fmt_fp+0x79f>
  4022ac:	6b f6 0a             	imul   $0xa,%esi,%esi
  4022af:	ff c1                	inc    %ecx
  4022b1:	eb ef                	jmp    4022a2 <fmt_fp+0x78e>
  4022b3:	48 89 e8             	mov    %rbp,%rax
  4022b6:	48 2b 44 24 28       	sub    0x28(%rsp),%rax
  4022bb:	44 89 ea             	mov    %r13d,%edx
  4022be:	48 63 f1             	movslq %ecx,%rsi
  4022c1:	48 c1 f8 02          	sar    $0x2,%rax
  4022c5:	83 ca 20             	or     $0x20,%edx
  4022c8:	48 63 db             	movslq %ebx,%rbx
  4022cb:	48 ff c8             	dec    %rax
  4022ce:	48 8d 04 c0          	lea    (%rax,%rax,8),%rax
  4022d2:	83 fa 66             	cmp    $0x66,%edx
  4022d5:	74 06                	je     4022dd <fmt_fp+0x7c9>
  4022d7:	49 63 cc             	movslq %r12d,%rcx
  4022da:	48 01 c8             	add    %rcx,%rax
  4022dd:	48 29 f0             	sub    %rsi,%rax
  4022e0:	ba 00 00 00 00       	mov    $0x0,%edx
  4022e5:	48 0f 48 c2          	cmovs  %rdx,%rax
  4022e9:	48 39 d8             	cmp    %rbx,%rax
  4022ec:	48 0f 4e d8          	cmovle %rax,%rbx
  4022f0:	81 fb fd ff ff 7f    	cmp    $0x7ffffffd,%ebx
  4022f6:	0f 8f 12 fb ff ff    	jg     401e0e <fmt_fp+0x2fa>
  4022fc:	8b 44 24 58          	mov    0x58(%rsp),%eax
  402300:	83 e0 08             	and    $0x8,%eax
  402303:	89 44 24 30          	mov    %eax,0x30(%rsp)
  402307:	09 d8                	or     %ebx,%eax
  402309:	89 44 24 5c          	mov    %eax,0x5c(%rsp)
  40230d:	0f 95 c0             	setne  %al
  402310:	0f b6 c0             	movzbl %al,%eax
  402313:	8d 44 03 01          	lea    0x1(%rbx,%rax,1),%eax
  402317:	41 89 c1             	mov    %eax,%r9d
  40231a:	44 89 e8             	mov    %r13d,%eax
  40231d:	83 c8 20             	or     $0x20,%eax
  402320:	89 44 24 50          	mov    %eax,0x50(%rsp)
  402324:	b8 ff ff ff 7f       	mov    $0x7fffffff,%eax
  402329:	44 29 c8             	sub    %r9d,%eax
  40232c:	83 7c 24 50 66       	cmpl   $0x66,0x50(%rsp)
  402331:	41 89 c3             	mov    %eax,%r11d
  402334:	75 19                	jne    40234f <fmt_fp+0x83b>
  402336:	41 39 c4             	cmp    %eax,%r12d
  402339:	0f 8f cf fa ff ff    	jg     401e0e <fmt_fp+0x2fa>
  40233f:	45 85 e4             	test   %r12d,%r12d
  402342:	7e 7f                	jle    4023c3 <fmt_fp+0x8af>
  402344:	44 89 c8             	mov    %r9d,%eax
  402347:	44 01 e0             	add    %r12d,%eax
  40234a:	41 89 c1             	mov    %eax,%r9d
  40234d:	eb 74                	jmp    4023c3 <fmt_fp+0x8af>
  40234f:	44 89 e0             	mov    %r12d,%eax
  402352:	48 8d b4 24 2f 1d 00 	lea    0x1d2f(%rsp),%rsi
  402359:	00 
  40235a:	c1 f8 1f             	sar    $0x1f,%eax
  40235d:	89 c7                	mov    %eax,%edi
  40235f:	44 31 e7             	xor    %r12d,%edi
  402362:	29 c7                	sub    %eax,%edi
  402364:	48 63 ff             	movslq %edi,%rdi
  402367:	e8 7b f6 ff ff       	call   4019e7 <fmt_u>
  40236c:	48 8d 94 24 2f 1d 00 	lea    0x1d2f(%rsp),%rdx
  402373:	00 
  402374:	48 89 d1             	mov    %rdx,%rcx
  402377:	48 29 c1             	sub    %rax,%rcx
  40237a:	48 ff c9             	dec    %rcx
  40237d:	7f 08                	jg     402387 <fmt_fp+0x873>
  40237f:	48 ff c8             	dec    %rax
  402382:	c6 00 30             	movb   $0x30,(%rax)
  402385:	eb ed                	jmp    402374 <fmt_fp+0x860>
  402387:	41 c1 fc 1f          	sar    $0x1f,%r12d
  40238b:	48 8d 48 fe          	lea    -0x2(%rax),%rcx
  40238f:	44 88 68 fe          	mov    %r13b,-0x2(%rax)
  402393:	4d 63 eb             	movslq %r11d,%r13
  402396:	41 83 e4 02          	and    $0x2,%r12d
  40239a:	48 89 4c 24 48       	mov    %rcx,0x48(%rsp)
  40239f:	41 83 c4 2b          	add    $0x2b,%r12d
  4023a3:	44 88 60 ff          	mov    %r12b,-0x1(%rax)
  4023a7:	48 8d 84 24 2f 1d 00 	lea    0x1d2f(%rsp),%rax
  4023ae:	00 
  4023af:	48 29 c8             	sub    %rcx,%rax
  4023b2:	4c 39 e8             	cmp    %r13,%rax
  4023b5:	0f 8f 53 fa ff ff    	jg     401e0e <fmt_fp+0x2fa>
  4023bb:	44 89 c9             	mov    %r9d,%ecx
  4023be:	01 c1                	add    %eax,%ecx
  4023c0:	41 89 c9             	mov    %ecx,%r9d
  4023c3:	b8 ff ff ff 7f       	mov    $0x7fffffff,%eax
  4023c8:	44 29 f0             	sub    %r14d,%eax
  4023cb:	44 39 c8             	cmp    %r9d,%eax
  4023ce:	0f 8c 3a fa ff ff    	jl     401e0e <fmt_fp+0x2fa>
  4023d4:	44 89 c8             	mov    %r9d,%eax
  4023d7:	44 8b 44 24 58       	mov    0x58(%rsp),%r8d
  4023dc:	8b 54 24 24          	mov    0x24(%rsp),%edx
  4023e0:	be 20 00 00 00       	mov    $0x20,%esi
  4023e5:	44 01 f0             	add    %r14d,%eax
  4023e8:	48 8b 7c 24 08       	mov    0x8(%rsp),%rdi
  4023ed:	89 c1                	mov    %eax,%ecx
  4023ef:	89 44 24 10          	mov    %eax,0x10(%rsp)
  4023f3:	e8 61 f6 ff ff       	call   401a59 <pad>
  4023f8:	48 8b 74 24 40       	mov    0x40(%rsp),%rsi
  4023fd:	48 8b 7c 24 08       	mov    0x8(%rsp),%rdi
  402402:	49 63 d6             	movslq %r14d,%rdx
  402405:	e8 38 f6 ff ff       	call   401a42 <out>
  40240a:	44 8b 44 24 58       	mov    0x58(%rsp),%r8d
  40240f:	8b 4c 24 10          	mov    0x10(%rsp),%ecx
  402413:	be 30 00 00 00       	mov    $0x30,%esi
  402418:	8b 54 24 24          	mov    0x24(%rsp),%edx
  40241c:	48 8b 7c 24 08       	mov    0x8(%rsp),%rdi
  402421:	41 81 f0 00 00 01 00 	xor    $0x10000,%r8d
  402428:	e8 2c f6 ff ff       	call   401a59 <pad>
  40242d:	83 7c 24 50 66       	cmpl   $0x66,0x50(%rsp)
  402432:	0f 85 f8 00 00 00    	jne    402530 <fmt_fp+0xa1c>
  402438:	4c 39 7c 24 28       	cmp    %r15,0x28(%rsp)
  40243d:	4d 89 fe             	mov    %r15,%r14
  402440:	4c 0f 46 74 24 28    	cmovbe 0x28(%rsp),%r14
  402446:	4c 8d ac 24 2f 1d 00 	lea    0x1d2f(%rsp),%r13
  40244d:	00 
  40244e:	4d 89 f4             	mov    %r14,%r12
  402451:	4c 3b 64 24 28       	cmp    0x28(%rsp),%r12
  402456:	77 4d                	ja     4024a5 <fmt_fp+0x991>
  402458:	4d 8d 7d 09          	lea    0x9(%r13),%r15
  40245c:	41 8b 3c 24          	mov    (%r12),%edi
  402460:	4c 89 fe             	mov    %r15,%rsi
  402463:	e8 7f f5 ff ff       	call   4019e7 <fmt_u>
  402468:	4d 39 e6             	cmp    %r12,%r14
  40246b:	74 0d                	je     40247a <fmt_fp+0x966>
  40246d:	4c 39 e8             	cmp    %r13,%rax
  402470:	76 19                	jbe    40248b <fmt_fp+0x977>
  402472:	48 ff c8             	dec    %rax
  402475:	c6 00 30             	movb   $0x30,(%rax)
  402478:	eb f3                	jmp    40246d <fmt_fp+0x959>
  40247a:	4c 39 f8             	cmp    %r15,%rax
  40247d:	75 0c                	jne    40248b <fmt_fp+0x977>
  40247f:	c6 84 24 37 1d 00 00 	movb   $0x30,0x1d37(%rsp)
  402486:	30 
  402487:	49 8d 45 08          	lea    0x8(%r13),%rax
  40248b:	49 8d 55 09          	lea    0x9(%r13),%rdx
  40248f:	48 8b 7c 24 08       	mov    0x8(%rsp),%rdi
  402494:	48 89 c6             	mov    %rax,%rsi
  402497:	49 83 c4 04          	add    $0x4,%r12
  40249b:	48 29 c2             	sub    %rax,%rdx
  40249e:	e8 9f f5 ff ff       	call   401a42 <out>
  4024a3:	eb ac                	jmp    402451 <fmt_fp+0x93d>
  4024a5:	83 7c 24 5c 00       	cmpl   $0x0,0x5c(%rsp)
  4024aa:	74 63                	je     40250f <fmt_fp+0x9fb>
  4024ac:	48 8b 7c 24 08       	mov    0x8(%rsp),%rdi
  4024b1:	ba 01 00 00 00       	mov    $0x1,%edx
  4024b6:	be eb 50 40 00       	mov    $0x4050eb,%esi
  4024bb:	4c 8d ac 24 2f 1d 00 	lea    0x1d2f(%rsp),%r13
  4024c2:	00 
  4024c3:	e8 7a f5 ff ff       	call   401a42 <out>
  4024c8:	49 39 ec             	cmp    %rbp,%r12
  4024cb:	73 44                	jae    402511 <fmt_fp+0x9fd>
  4024cd:	85 db                	test   %ebx,%ebx
  4024cf:	7e 40                	jle    402511 <fmt_fp+0x9fd>
  4024d1:	41 8b 3c 24          	mov    (%r12),%edi
  4024d5:	49 8d 75 09          	lea    0x9(%r13),%rsi
  4024d9:	e8 09 f5 ff ff       	call   4019e7 <fmt_u>
  4024de:	4c 39 e8             	cmp    %r13,%rax
  4024e1:	76 08                	jbe    4024eb <fmt_fp+0x9d7>
  4024e3:	48 ff c8             	dec    %rax
  4024e6:	c6 00 30             	movb   $0x30,(%rax)
  4024e9:	eb f3                	jmp    4024de <fmt_fp+0x9ca>
  4024eb:	83 fb 09             	cmp    $0x9,%ebx
  4024ee:	ba 09 00 00 00       	mov    $0x9,%edx
  4024f3:	48 8b 7c 24 08       	mov    0x8(%rsp),%rdi
  4024f8:	48 89 c6             	mov    %rax,%rsi
  4024fb:	0f 4e d3             	cmovle %ebx,%edx
  4024fe:	49 83 c4 04          	add    $0x4,%r12
  402502:	83 eb 09             	sub    $0x9,%ebx
  402505:	48 63 d2             	movslq %edx,%rdx
  402508:	e8 35 f5 ff ff       	call   401a42 <out>
  40250d:	eb b9                	jmp    4024c8 <fmt_fp+0x9b4>
  40250f:	31 db                	xor    %ebx,%ebx
  402511:	48 8b 7c 24 08       	mov    0x8(%rsp),%rdi
  402516:	8d 53 09             	lea    0x9(%rbx),%edx
  402519:	45 31 c0             	xor    %r8d,%r8d
  40251c:	b9 09 00 00 00       	mov    $0x9,%ecx
  402521:	be 30 00 00 00       	mov    $0x30,%esi
  402526:	e8 2e f5 ff ff       	call   401a59 <pad>
  40252b:	e9 f9 00 00 00       	jmp    402629 <fmt_fp+0xb15>
  402530:	4c 39 fd             	cmp    %r15,%rbp
  402533:	77 04                	ja     402539 <fmt_fp+0xa25>
  402535:	49 8d 6f 04          	lea    0x4(%r15),%rbp
  402539:	4c 89 7c 24 28       	mov    %r15,0x28(%rsp)
  40253e:	4c 8d ac 24 2f 1d 00 	lea    0x1d2f(%rsp),%r13
  402545:	00 
  402546:	48 39 6c 24 28       	cmp    %rbp,0x28(%rsp)
  40254b:	0f 83 a2 00 00 00    	jae    4025f3 <fmt_fp+0xadf>
  402551:	85 db                	test   %ebx,%ebx
  402553:	0f 88 9a 00 00 00    	js     4025f3 <fmt_fp+0xadf>
  402559:	48 8b 44 24 28       	mov    0x28(%rsp),%rax
  40255e:	4d 8d 65 09          	lea    0x9(%r13),%r12
  402562:	4c 89 e6             	mov    %r12,%rsi
  402565:	8b 38                	mov    (%rax),%edi
  402567:	e8 7b f4 ff ff       	call   4019e7 <fmt_u>
  40256c:	4c 39 e0             	cmp    %r12,%rax
  40256f:	75 0c                	jne    40257d <fmt_fp+0xa69>
  402571:	c6 84 24 37 1d 00 00 	movb   $0x30,0x1d37(%rsp)
  402578:	30 
  402579:	49 8d 45 08          	lea    0x8(%r13),%rax
  40257d:	49 89 c4             	mov    %rax,%r12
  402580:	4c 39 7c 24 28       	cmp    %r15,0x28(%rsp)
  402585:	74 0f                	je     402596 <fmt_fp+0xa82>
  402587:	4d 39 ec             	cmp    %r13,%r12
  40258a:	76 3b                	jbe    4025c7 <fmt_fp+0xab3>
  40258c:	49 ff cc             	dec    %r12
  40258f:	41 c6 04 24 30       	movb   $0x30,(%r12)
  402594:	eb f1                	jmp    402587 <fmt_fp+0xa73>
  402596:	48 8b 7c 24 08       	mov    0x8(%rsp),%rdi
  40259b:	48 89 c6             	mov    %rax,%rsi
  40259e:	ba 01 00 00 00       	mov    $0x1,%edx
  4025a3:	49 ff c4             	inc    %r12
  4025a6:	e8 97 f4 ff ff       	call   401a42 <out>
  4025ab:	8b 44 24 30          	mov    0x30(%rsp),%eax
  4025af:	09 d8                	or     %ebx,%eax
  4025b1:	74 14                	je     4025c7 <fmt_fp+0xab3>
  4025b3:	48 8b 7c 24 08       	mov    0x8(%rsp),%rdi
  4025b8:	ba 01 00 00 00       	mov    $0x1,%edx
  4025bd:	be eb 50 40 00       	mov    $0x4050eb,%esi
  4025c2:	e8 7b f4 ff ff       	call   401a42 <out>
  4025c7:	4d 8d 75 09          	lea    0x9(%r13),%r14
  4025cb:	48 63 d3             	movslq %ebx,%rdx
  4025ce:	48 8b 7c 24 08       	mov    0x8(%rsp),%rdi
  4025d3:	4c 89 e6             	mov    %r12,%rsi
  4025d6:	4d 29 e6             	sub    %r12,%r14
  4025d9:	4c 39 f2             	cmp    %r14,%rdx
  4025dc:	49 0f 4f d6          	cmovg  %r14,%rdx
  4025e0:	44 29 f3             	sub    %r14d,%ebx
  4025e3:	e8 5a f4 ff ff       	call   401a42 <out>
  4025e8:	48 83 44 24 28 04    	addq   $0x4,0x28(%rsp)
  4025ee:	e9 53 ff ff ff       	jmp    402546 <fmt_fp+0xa32>
  4025f3:	48 8b 7c 24 08       	mov    0x8(%rsp),%rdi
  4025f8:	8d 53 12             	lea    0x12(%rbx),%edx
  4025fb:	be 30 00 00 00       	mov    $0x30,%esi
  402600:	45 31 c0             	xor    %r8d,%r8d
  402603:	b9 12 00 00 00       	mov    $0x12,%ecx
  402608:	e8 4c f4 ff ff       	call   401a59 <pad>
  40260d:	48 8b 74 24 48       	mov    0x48(%rsp),%rsi
  402612:	48 8b 7c 24 08       	mov    0x8(%rsp),%rdi
  402617:	48 8d 94 24 2f 1d 00 	lea    0x1d2f(%rsp),%rdx
  40261e:	00 
  40261f:	48 2b 54 24 48       	sub    0x48(%rsp),%rdx
  402624:	e8 19 f4 ff ff       	call   401a42 <out>
  402629:	44 8b 44 24 58       	mov    0x58(%rsp),%r8d
  40262e:	8b 4c 24 10          	mov    0x10(%rsp),%ecx
  402632:	be 20 00 00 00       	mov    $0x20,%esi
  402637:	8b 54 24 24          	mov    0x24(%rsp),%edx
  40263b:	48 8b 7c 24 08       	mov    0x8(%rsp),%rdi
  402640:	41 81 f0 00 20 00 00 	xor    $0x2000,%r8d
  402647:	e8 0d f4 ff ff       	call   401a59 <pad>
  40264c:	8b 5c 24 24          	mov    0x24(%rsp),%ebx
  402650:	39 5c 24 10          	cmp    %ebx,0x10(%rsp)
  402654:	89 d8                	mov    %ebx,%eax
  402656:	0f 4d 44 24 10       	cmovge 0x10(%rsp),%eax
  40265b:	48 8b 9c 24 48 1d 00 	mov    0x1d48(%rsp),%rbx
  402662:	00 
  402663:	64 48 33 1c 25 28 00 	xor    %fs:0x28,%rbx
  40266a:	00 00 
  40266c:	74 06                	je     402674 <fmt_fp+0xb60>
  40266e:	67 e8 e5 10 00 00    	addr32 call 403759 <__stack_chk_fail>
  402674:	48 81 c4 58 1d 00 00 	add    $0x1d58,%rsp
  40267b:	5b                   	pop    %rbx
  40267c:	5d                   	pop    %rbp
  40267d:	41 5c                	pop    %r12
  40267f:	41 5d                	pop    %r13
  402681:	41 5e                	pop    %r14
  402683:	41 5f                	pop    %r15
  402685:	c3                   	ret

0000000000402686 <printf_core>:
  402686:	41 57                	push   %r15
  402688:	45 31 ff             	xor    %r15d,%r15d
  40268b:	41 56                	push   %r14
  40268d:	41 55                	push   %r13
  40268f:	41 54                	push   %r12
  402691:	55                   	push   %rbp
  402692:	53                   	push   %rbx
  402693:	48 81 ec b8 00 00 00 	sub    $0xb8,%rsp
  40269a:	48 89 7c 24 10       	mov    %rdi,0x10(%rsp)
  40269f:	48 89 54 24 18       	mov    %rdx,0x18(%rsp)
  4026a4:	48 89 4c 24 30       	mov    %rcx,0x30(%rsp)
  4026a9:	4c 89 44 24 28       	mov    %r8,0x28(%rsp)
  4026ae:	64 48 8b 04 25 28 00 	mov    %fs:0x28,%rax
  4026b5:	00 00 
  4026b7:	48 89 84 24 a8 00 00 	mov    %rax,0xa8(%rsp)
  4026be:	00 
  4026bf:	31 c0                	xor    %eax,%eax
  4026c1:	48 89 74 24 50       	mov    %rsi,0x50(%rsp)
  4026c6:	c7 44 24 20 00 00 00 	movl   $0x0,0x20(%rsp)
  4026cd:	00 
  4026ce:	c7 44 24 24 00 00 00 	movl   $0x0,0x24(%rsp)
  4026d5:	00 
  4026d6:	4c 8b 64 24 50       	mov    0x50(%rsp),%r12
  4026db:	44 01 7c 24 20       	add    %r15d,0x20(%rsp)
  4026e0:	41 80 3c 24 00       	cmpb   $0x0,(%r12)
  4026e5:	0f 84 ad 07 00 00    	je     402e98 <printf_core+0x812>
  4026eb:	4c 8b 6c 24 50       	mov    0x50(%rsp),%r13
  4026f0:	41 8a 45 00          	mov    0x0(%r13),%al
  4026f4:	84 c0                	test   %al,%al
  4026f6:	74 20                	je     402718 <printf_core+0x92>
  4026f8:	3c 25                	cmp    $0x25,%al
  4026fa:	74 1c                	je     402718 <printf_core+0x92>
  4026fc:	49 ff c5             	inc    %r13
  4026ff:	4c 89 6c 24 50       	mov    %r13,0x50(%rsp)
  402704:	eb e5                	jmp    4026eb <printf_core+0x65>
  402706:	80 78 01 25          	cmpb   $0x25,0x1(%rax)
  40270a:	75 16                	jne    402722 <printf_core+0x9c>
  40270c:	48 83 c0 02          	add    $0x2,%rax
  402710:	49 ff c5             	inc    %r13
  402713:	48 89 44 24 50       	mov    %rax,0x50(%rsp)
  402718:	48 8b 44 24 50       	mov    0x50(%rsp),%rax
  40271d:	80 38 25             	cmpb   $0x25,(%rax)
  402720:	74 e4                	je     402706 <printf_core+0x80>
  402722:	b8 ff ff ff 7f       	mov    $0x7fffffff,%eax
  402727:	2b 44 24 20          	sub    0x20(%rsp),%eax
  40272b:	4d 29 e5             	sub    %r12,%r13
  40272e:	89 44 24 3c          	mov    %eax,0x3c(%rsp)
  402732:	48 98                	cltq
  402734:	49 39 c5             	cmp    %rax,%r13
  402737:	0f 8f c8 07 00 00    	jg     402f05 <printf_core+0x87f>
  40273d:	48 83 7c 24 10 00    	cmpq   $0x0,0x10(%rsp)
  402743:	45 89 ef             	mov    %r13d,%r15d
  402746:	74 10                	je     402758 <printf_core+0xd2>
  402748:	48 8b 7c 24 10       	mov    0x10(%rsp),%rdi
  40274d:	49 63 d5             	movslq %r13d,%rdx
  402750:	4c 89 e6             	mov    %r12,%rsi
  402753:	e8 ea f2 ff ff       	call   401a42 <out>
  402758:	45 85 ed             	test   %r13d,%r13d
  40275b:	74 10                	je     40276d <printf_core+0xe7>
  40275d:	44 39 7c 24 3c       	cmp    %r15d,0x3c(%rsp)
  402762:	0f 8d 6e ff ff ff    	jge    4026d6 <printf_core+0x50>
  402768:	e9 98 07 00 00       	jmp    402f05 <printf_core+0x87f>
  40276d:	48 8b 44 24 50       	mov    0x50(%rsp),%rax
  402772:	0f be 68 01          	movsbl 0x1(%rax),%ebp
  402776:	83 ed 30             	sub    $0x30,%ebp
  402779:	83 fd 09             	cmp    $0x9,%ebp
  40277c:	77 14                	ja     402792 <printf_core+0x10c>
  40277e:	80 78 02 24          	cmpb   $0x24,0x2(%rax)
  402782:	75 0e                	jne    402792 <printf_core+0x10c>
  402784:	48 83 c0 03          	add    $0x3,%rax
  402788:	c7 44 24 24 01 00 00 	movl   $0x1,0x24(%rsp)
  40278f:	00 
  402790:	eb 06                	jmp    402798 <printf_core+0x112>
  402792:	48 ff c0             	inc    %rax
  402795:	83 cd ff             	or     $0xffffffff,%ebp
  402798:	48 89 44 24 50       	mov    %rax,0x50(%rsp)
  40279d:	be 89 28 01 00       	mov    $0x12889,%esi
  4027a2:	bf 01 00 00 00       	mov    $0x1,%edi
  4027a7:	c7 44 24 0c 00 00 00 	movl   $0x0,0xc(%rsp)
  4027ae:	00 
  4027af:	48 8b 44 24 50       	mov    0x50(%rsp),%rax
  4027b4:	0f be 08             	movsbl (%rax),%ecx
  4027b7:	89 ca                	mov    %ecx,%edx
  4027b9:	83 e9 20             	sub    $0x20,%ecx
  4027bc:	83 f9 1f             	cmp    $0x1f,%ecx
  4027bf:	77 17                	ja     4027d8 <printf_core+0x152>
  4027c1:	0f a3 ce             	bt     %ecx,%esi
  4027c4:	73 12                	jae    4027d8 <printf_core+0x152>
  4027c6:	89 fa                	mov    %edi,%edx
  4027c8:	48 ff c0             	inc    %rax
  4027cb:	d3 e2                	shl    %cl,%edx
  4027cd:	48 89 44 24 50       	mov    %rax,0x50(%rsp)
  4027d2:	09 54 24 0c          	or     %edx,0xc(%rsp)
  4027d6:	eb d7                	jmp    4027af <printf_core+0x129>
  4027d8:	80 fa 2a             	cmp    $0x2a,%dl
  4027db:	0f 85 bf 00 00 00    	jne    4028a0 <printf_core+0x21a>
  4027e1:	48 0f be 48 01       	movsbq 0x1(%rax),%rcx
  4027e6:	48 89 ca             	mov    %rcx,%rdx
  4027e9:	83 e9 30             	sub    $0x30,%ecx
  4027ec:	83 f9 09             	cmp    $0x9,%ecx
  4027ef:	77 3f                	ja     402830 <printf_core+0x1aa>
  4027f1:	80 78 02 24          	cmpb   $0x24,0x2(%rax)
  4027f5:	75 39                	jne    402830 <printf_core+0x1aa>
  4027f7:	48 8b 4c 24 28       	mov    0x28(%rsp),%rcx
  4027fc:	48 8b 7c 24 30       	mov    0x30(%rsp),%rdi
  402801:	48 83 c0 03          	add    $0x3,%rax
  402805:	c7 44 24 24 01 00 00 	movl   $0x1,0x24(%rsp)
  40280c:	00 
  40280d:	c7 84 91 40 ff ff ff 	movl   $0xa,-0xc0(%rcx,%rdx,4)
  402814:	0a 00 00 00 
  402818:	48 0f be 50 fe       	movsbq -0x2(%rax),%rdx
  40281d:	48 89 44 24 50       	mov    %rax,0x50(%rsp)
  402822:	48 c1 e2 04          	shl    $0x4,%rdx
  402826:	44 8b b4 17 00 fd ff 	mov    -0x300(%rdi,%rdx,1),%r14d
  40282d:	ff 
  40282e:	eb 5e                	jmp    40288e <printf_core+0x208>
  402830:	83 7c 24 24 00       	cmpl   $0x0,0x24(%rsp)
  402835:	74 10                	je     402847 <printf_core+0x1c1>
  402837:	e8 1f 0f 00 00       	call   40375b <__errno_location>
  40283c:	c7 00 16 00 00 00    	movl   $0x16,(%rax)
  402842:	e9 c9 06 00 00       	jmp    402f10 <printf_core+0x88a>
  402847:	48 83 7c 24 10 00    	cmpq   $0x0,0x10(%rsp)
  40284d:	45 89 ee             	mov    %r13d,%r14d
  402850:	74 37                	je     402889 <printf_core+0x203>
  402852:	48 8b 44 24 18       	mov    0x18(%rsp),%rax
  402857:	8b 10                	mov    (%rax),%edx
  402859:	83 fa 2f             	cmp    $0x2f,%edx
  40285c:	77 12                	ja     402870 <printf_core+0x1ea>
  40285e:	48 8b 4c 24 18       	mov    0x18(%rsp),%rcx
  402863:	89 d0                	mov    %edx,%eax
  402865:	83 c2 08             	add    $0x8,%edx
  402868:	48 03 41 10          	add    0x10(%rcx),%rax
  40286c:	89 11                	mov    %edx,(%rcx)
  40286e:	eb 16                	jmp    402886 <printf_core+0x200>
  402870:	48 8b 44 24 18       	mov    0x18(%rsp),%rax
  402875:	48 8b 4c 24 18       	mov    0x18(%rsp),%rcx
  40287a:	48 8b 40 08          	mov    0x8(%rax),%rax
  40287e:	48 8d 50 08          	lea    0x8(%rax),%rdx
  402882:	48 89 51 08          	mov    %rdx,0x8(%rcx)
  402886:	44 8b 30             	mov    (%rax),%r14d
  402889:	48 ff 44 24 50       	incq   0x50(%rsp)
  40288e:	45 85 f6             	test   %r14d,%r14d
  402891:	79 22                	jns    4028b5 <printf_core+0x22f>
  402893:	81 4c 24 0c 00 20 00 	orl    $0x2000,0xc(%rsp)
  40289a:	00 
  40289b:	41 f7 de             	neg    %r14d
  40289e:	eb 15                	jmp    4028b5 <printf_core+0x22f>
  4028a0:	48 8d 7c 24 50       	lea    0x50(%rsp),%rdi
  4028a5:	e8 5d f1 ff ff       	call   401a07 <getint>
  4028aa:	41 89 c6             	mov    %eax,%r14d
  4028ad:	85 c0                	test   %eax,%eax
  4028af:	0f 88 50 06 00 00    	js     402f05 <printf_core+0x87f>
  4028b5:	48 8b 44 24 50       	mov    0x50(%rsp),%rax
  4028ba:	80 38 2e             	cmpb   $0x2e,(%rax)
  4028bd:	0f 85 cd 00 00 00    	jne    402990 <printf_core+0x30a>
  4028c3:	80 78 01 2a          	cmpb   $0x2a,0x1(%rax)
  4028c7:	0f 85 a6 00 00 00    	jne    402973 <printf_core+0x2ed>
  4028cd:	48 0f be 48 02       	movsbq 0x2(%rax),%rcx
  4028d2:	48 89 ca             	mov    %rcx,%rdx
  4028d5:	83 e9 30             	sub    $0x30,%ecx
  4028d8:	83 f9 09             	cmp    $0x9,%ecx
  4028db:	77 37                	ja     402914 <printf_core+0x28e>
  4028dd:	80 78 03 24          	cmpb   $0x24,0x3(%rax)
  4028e1:	75 31                	jne    402914 <printf_core+0x28e>
  4028e3:	48 8b 4c 24 28       	mov    0x28(%rsp),%rcx
  4028e8:	48 8b 7c 24 30       	mov    0x30(%rsp),%rdi
  4028ed:	48 83 c0 04          	add    $0x4,%rax
  4028f1:	c7 84 91 40 ff ff ff 	movl   $0xa,-0xc0(%rcx,%rdx,4)
  4028f8:	0a 00 00 00 
  4028fc:	48 0f be 50 fe       	movsbq -0x2(%rax),%rdx
  402901:	48 89 44 24 50       	mov    %rax,0x50(%rsp)
  402906:	48 c1 e2 04          	shl    $0x4,%rdx
  40290a:	48 63 9c 17 00 fd ff 	movslq -0x300(%rdi,%rdx,1),%rbx
  402911:	ff 
  402912:	eb 53                	jmp    402967 <printf_core+0x2e1>
  402914:	83 7c 24 24 00       	cmpl   $0x0,0x24(%rsp)
  402919:	0f 85 18 ff ff ff    	jne    402837 <printf_core+0x1b1>
  40291f:	48 83 7c 24 10 00    	cmpq   $0x0,0x10(%rsp)
  402925:	49 63 dd             	movslq %r13d,%rbx
  402928:	74 37                	je     402961 <printf_core+0x2db>
  40292a:	48 8b 44 24 18       	mov    0x18(%rsp),%rax
  40292f:	8b 10                	mov    (%rax),%edx
  402931:	83 fa 2f             	cmp    $0x2f,%edx
  402934:	77 12                	ja     402948 <printf_core+0x2c2>
  402936:	48 8b 4c 24 18       	mov    0x18(%rsp),%rcx
  40293b:	89 d0                	mov    %edx,%eax
  40293d:	83 c2 08             	add    $0x8,%edx
  402940:	48 03 41 10          	add    0x10(%rcx),%rax
  402944:	89 11                	mov    %edx,(%rcx)
  402946:	eb 16                	jmp    40295e <printf_core+0x2d8>
  402948:	48 8b 44 24 18       	mov    0x18(%rsp),%rax
  40294d:	48 8b 4c 24 18       	mov    0x18(%rsp),%rcx
  402952:	48 8b 40 08          	mov    0x8(%rax),%rax
  402956:	48 8d 50 08          	lea    0x8(%rax),%rdx
  40295a:	48 89 51 08          	mov    %rdx,0x8(%rcx)
  40295e:	48 63 18             	movslq (%rax),%rbx
  402961:	48 83 44 24 50 02    	addq   $0x2,0x50(%rsp)
  402967:	89 d8                	mov    %ebx,%eax
  402969:	f7 d0                	not    %eax
  40296b:	c1 e8 1f             	shr    $0x1f,%eax
  40296e:	41 89 c1             	mov    %eax,%r9d
  402971:	eb 24                	jmp    402997 <printf_core+0x311>
  402973:	48 ff c0             	inc    %rax
  402976:	48 8d 7c 24 50       	lea    0x50(%rsp),%rdi
  40297b:	48 89 44 24 50       	mov    %rax,0x50(%rsp)
  402980:	e8 82 f0 ff ff       	call   401a07 <getint>
  402985:	41 b9 01 00 00 00    	mov    $0x1,%r9d
  40298b:	48 63 d8             	movslq %eax,%rbx
  40298e:	eb 07                	jmp    402997 <printf_core+0x311>
  402990:	45 89 e9             	mov    %r13d,%r9d
  402993:	48 83 cb ff          	or     $0xffffffffffffffff,%rbx
  402997:	45 31 d2             	xor    %r10d,%r10d
  40299a:	48 8b 44 24 50       	mov    0x50(%rsp),%rax
  40299f:	0f be 10             	movsbl (%rax),%edx
  4029a2:	83 ea 41             	sub    $0x41,%edx
  4029a5:	83 fa 39             	cmp    $0x39,%edx
  4029a8:	0f 87 89 fe ff ff    	ja     402837 <printf_core+0x1b1>
  4029ae:	48 8d 50 01          	lea    0x1(%rax),%rdx
  4029b2:	48 89 54 24 50       	mov    %rdx,0x50(%rsp)
  4029b7:	44 89 d2             	mov    %r10d,%edx
  4029ba:	0f be 00             	movsbl (%rax),%eax
  4029bd:	48 6b d2 3a          	imul   $0x3a,%rdx,%rdx
  4029c1:	83 e8 41             	sub    $0x41,%eax
  4029c4:	48 98                	cltq
  4029c6:	0f b6 b4 10 20 53 40 	movzbl 0x405320(%rax,%rdx,1),%esi
  4029cd:	00 
  4029ce:	8d 46 ff             	lea    -0x1(%rsi),%eax
  4029d1:	83 f8 07             	cmp    $0x7,%eax
  4029d4:	77 05                	ja     4029db <printf_core+0x355>
  4029d6:	41 89 f2             	mov    %esi,%r10d
  4029d9:	eb bf                	jmp    40299a <printf_core+0x314>
  4029db:	85 f6                	test   %esi,%esi
  4029dd:	0f 84 54 fe ff ff    	je     402837 <printf_core+0x1b1>
  4029e3:	83 fe 1b             	cmp    $0x1b,%esi
  4029e6:	75 09                	jne    4029f1 <printf_core+0x36b>
  4029e8:	85 ed                	test   %ebp,%ebp
  4029ea:	78 4e                	js     402a3a <printf_core+0x3b4>
  4029ec:	e9 46 fe ff ff       	jmp    402837 <printf_core+0x1b1>
  4029f1:	85 ed                	test   %ebp,%ebp
  4029f3:	78 1f                	js     402a14 <printf_core+0x38e>
  4029f5:	48 8b 44 24 28       	mov    0x28(%rsp),%rax
  4029fa:	48 63 ed             	movslq %ebp,%rbp
  4029fd:	89 34 a8             	mov    %esi,(%rax,%rbp,4)
  402a00:	48 8b 44 24 30       	mov    0x30(%rsp),%rax
  402a05:	48 c1 e5 04          	shl    $0x4,%rbp
  402a09:	0f 28 04 28          	movaps (%rax,%rbp,1),%xmm0
  402a0d:	0f 29 44 24 60       	movaps %xmm0,0x60(%rsp)
  402a12:	eb 26                	jmp    402a3a <printf_core+0x3b4>
  402a14:	48 83 7c 24 10 00    	cmpq   $0x0,0x10(%rsp)
  402a1a:	75 0d                	jne    402a29 <printf_core+0x3a3>
  402a1c:	c7 44 24 20 00 00 00 	movl   $0x0,0x20(%rsp)
  402a23:	00 
  402a24:	e9 85 05 00 00       	jmp    402fae <printf_core+0x928>
  402a29:	48 8b 54 24 18       	mov    0x18(%rsp),%rdx
  402a2e:	48 8d 7c 24 60       	lea    0x60(%rsp),%rdi
  402a33:	e8 4a ee ff ff       	call   401882 <pop_arg>
  402a38:	eb 0c                	jmp    402a46 <printf_core+0x3c0>
  402a3a:	48 83 7c 24 10 00    	cmpq   $0x0,0x10(%rsp)
  402a40:	0f 84 90 fc ff ff    	je     4026d6 <printf_core+0x50>
  402a46:	48 8b 44 24 50       	mov    0x50(%rsp),%rax
  402a4b:	44 0f be 40 ff       	movsbl -0x1(%rax),%r8d
  402a50:	44 89 c5             	mov    %r8d,%ebp
  402a53:	45 85 d2             	test   %r10d,%r10d
  402a56:	74 11                	je     402a69 <printf_core+0x3e3>
  402a58:	44 89 c0             	mov    %r8d,%eax
  402a5b:	83 e0 0f             	and    $0xf,%eax
  402a5e:	3c 03                	cmp    $0x3,%al
  402a60:	75 07                	jne    402a69 <printf_core+0x3e3>
  402a62:	83 e5 df             	and    $0xffffffdf,%ebp
  402a65:	44 0f be c5          	movsbl %bpl,%r8d
  402a69:	0f ba 64 24 0c 0d    	btl    $0xd,0xc(%rsp)
  402a6f:	73 08                	jae    402a79 <printf_core+0x3f3>
  402a71:	81 64 24 0c ff ff fe 	andl   $0xfffeffff,0xc(%rsp)
  402a78:	ff 
  402a79:	41 8d 40 bf          	lea    -0x41(%r8),%eax
  402a7d:	83 f8 37             	cmp    $0x37,%eax
  402a80:	0f 87 22 03 00 00    	ja     402da8 <printf_core+0x722>
  402a86:	ff 24 c5 00 51 40 00 	jmp    *0x405100(,%rax,8)
  402a8d:	44 89 d0             	mov    %r10d,%eax
  402a90:	83 f8 07             	cmp    $0x7,%eax
  402a93:	0f 87 c4 fc ff ff    	ja     40275d <printf_core+0xd7>
  402a99:	ff 24 c5 c0 52 40 00 	jmp    *0x4052c0(,%rax,8)
  402aa0:	48 8b 44 24 60       	mov    0x60(%rsp),%rax
  402aa5:	8b 4c 24 20          	mov    0x20(%rsp),%ecx
  402aa9:	89 08                	mov    %ecx,(%rax)
  402aab:	e9 26 fc ff ff       	jmp    4026d6 <printf_core+0x50>
  402ab0:	48 8b 44 24 60       	mov    0x60(%rsp),%rax
  402ab5:	8b 7c 24 20          	mov    0x20(%rsp),%edi
  402ab9:	66 89 38             	mov    %di,(%rax)
  402abc:	e9 15 fc ff ff       	jmp    4026d6 <printf_core+0x50>
  402ac1:	48 8b 44 24 60       	mov    0x60(%rsp),%rax
  402ac6:	8a 5c 24 20          	mov    0x20(%rsp),%bl
  402aca:	88 18                	mov    %bl,(%rax)
  402acc:	e9 05 fc ff ff       	jmp    4026d6 <printf_core+0x50>
  402ad1:	48 63 44 24 20       	movslq 0x20(%rsp),%rax
  402ad6:	48 8b 54 24 60       	mov    0x60(%rsp),%rdx
  402adb:	48 89 02             	mov    %rax,(%rdx)
  402ade:	e9 f3 fb ff ff       	jmp    4026d6 <printf_core+0x50>
  402ae3:	83 fb 10             	cmp    $0x10,%ebx
  402ae6:	b8 10 00 00 00       	mov    $0x10,%eax
  402aeb:	41 b8 78 00 00 00    	mov    $0x78,%r8d
  402af1:	0f 42 d8             	cmovb  %eax,%ebx
  402af4:	83 4c 24 0c 08       	orl    $0x8,0xc(%rsp)
  402af9:	48 8b 54 24 60       	mov    0x60(%rsp),%rdx
  402afe:	44 89 c1             	mov    %r8d,%ecx
  402b01:	4c 8d a4 24 a8 00 00 	lea    0xa8(%rsp),%r12
  402b08:	00 
  402b09:	83 e1 20             	and    $0x20,%ecx
  402b0c:	48 89 d0             	mov    %rdx,%rax
  402b0f:	48 85 c0             	test   %rax,%rax
  402b12:	74 1c                	je     402b30 <printf_core+0x4aa>
  402b14:	48 89 c6             	mov    %rax,%rsi
  402b17:	49 ff cc             	dec    %r12
  402b1a:	48 c1 e8 04          	shr    $0x4,%rax
  402b1e:	83 e6 0f             	and    $0xf,%esi
  402b21:	40 8a be 00 53 40 00 	mov    0x405300(%rsi),%dil
  402b28:	09 cf                	or     %ecx,%edi
  402b2a:	41 88 3c 24          	mov    %dil,(%r12)
  402b2e:	eb df                	jmp    402b0f <printf_core+0x489>
  402b30:	48 85 d2             	test   %rdx,%rdx
  402b33:	0f 84 dd 00 00 00    	je     402c16 <printf_core+0x590>
  402b39:	f6 44 24 0c 08       	testb  $0x8,0xc(%rsp)
  402b3e:	0f 84 d2 00 00 00    	je     402c16 <printf_core+0x590>
  402b44:	41 c1 f8 04          	sar    $0x4,%r8d
  402b48:	41 bf 02 00 00 00    	mov    $0x2,%r15d
  402b4e:	49 63 e8             	movslq %r8d,%rbp
  402b51:	48 81 c5 ed 50 40 00 	add    $0x4050ed,%rbp
  402b58:	e9 c1 00 00 00       	jmp    402c1e <printf_core+0x598>
  402b5d:	48 8b 44 24 60       	mov    0x60(%rsp),%rax
  402b62:	4c 8d a4 24 a8 00 00 	lea    0xa8(%rsp),%r12
  402b69:	00 
  402b6a:	48 85 c0             	test   %rax,%rax
  402b6d:	74 15                	je     402b84 <printf_core+0x4fe>
  402b6f:	89 c2                	mov    %eax,%edx
  402b71:	49 ff cc             	dec    %r12
  402b74:	48 c1 e8 03          	shr    $0x3,%rax
  402b78:	83 e2 07             	and    $0x7,%edx
  402b7b:	83 c2 30             	add    $0x30,%edx
  402b7e:	41 88 14 24          	mov    %dl,(%r12)
  402b82:	eb e6                	jmp    402b6a <printf_core+0x4e4>
  402b84:	f6 44 24 0c 08       	testb  $0x8,0xc(%rsp)
  402b89:	0f 84 87 00 00 00    	je     402c16 <printf_core+0x590>
  402b8f:	48 8d 84 24 a8 00 00 	lea    0xa8(%rsp),%rax
  402b96:	00 
  402b97:	48 63 d3             	movslq %ebx,%rdx
  402b9a:	4c 29 e0             	sub    %r12,%rax
  402b9d:	48 39 d0             	cmp    %rdx,%rax
  402ba0:	7c 74                	jl     402c16 <printf_core+0x590>
  402ba2:	8d 58 01             	lea    0x1(%rax),%ebx
  402ba5:	eb 6f                	jmp    402c16 <printf_core+0x590>
  402ba7:	48 8b 44 24 60       	mov    0x60(%rsp),%rax
  402bac:	48 85 c0             	test   %rax,%rax
  402baf:	79 10                	jns    402bc1 <printf_core+0x53b>
  402bb1:	48 f7 d8             	neg    %rax
  402bb4:	41 bf 01 00 00 00    	mov    $0x1,%r15d
  402bba:	48 89 44 24 60       	mov    %rax,0x60(%rsp)
  402bbf:	eb 2c                	jmp    402bed <printf_core+0x567>
  402bc1:	0f ba 64 24 0c 0b    	btl    $0xb,0xc(%rsp)
  402bc7:	72 2b                	jb     402bf4 <printf_core+0x56e>
  402bc9:	8b 44 24 0c          	mov    0xc(%rsp),%eax
  402bcd:	41 bf 01 00 00 00    	mov    $0x1,%r15d
  402bd3:	bd ef 50 40 00       	mov    $0x4050ef,%ebp
  402bd8:	83 e0 01             	and    $0x1,%eax
  402bdb:	b8 ed 50 40 00       	mov    $0x4050ed,%eax
  402be0:	45 0f 44 fd          	cmove  %r13d,%r15d
  402be4:	48 0f 44 e8          	cmove  %rax,%rbp
  402be8:	eb 15                	jmp    402bff <printf_core+0x579>
  402bea:	45 89 ef             	mov    %r13d,%r15d
  402bed:	bd ed 50 40 00       	mov    $0x4050ed,%ebp
  402bf2:	eb 0b                	jmp    402bff <printf_core+0x579>
  402bf4:	41 bf 01 00 00 00    	mov    $0x1,%r15d
  402bfa:	bd ee 50 40 00       	mov    $0x4050ee,%ebp
  402bff:	48 8b 7c 24 60       	mov    0x60(%rsp),%rdi
  402c04:	48 8d b4 24 a8 00 00 	lea    0xa8(%rsp),%rsi
  402c0b:	00 
  402c0c:	e8 d6 ed ff ff       	call   4019e7 <fmt_u>
  402c11:	49 89 c4             	mov    %rax,%r12
  402c14:	eb 08                	jmp    402c1e <printf_core+0x598>
  402c16:	45 89 ef             	mov    %r13d,%r15d
  402c19:	bd ed 50 40 00       	mov    $0x4050ed,%ebp
  402c1e:	85 db                	test   %ebx,%ebx
  402c20:	79 0b                	jns    402c2d <printf_core+0x5a7>
  402c22:	44 89 c8             	mov    %r9d,%eax
  402c25:	a8 01                	test   $0x1,%al
  402c27:	0f 85 d8 02 00 00    	jne    402f05 <printf_core+0x87f>
  402c2d:	45 85 c9             	test   %r9d,%r9d
  402c30:	74 08                	je     402c3a <printf_core+0x5b4>
  402c32:	81 64 24 0c ff ff fe 	andl   $0xfffeffff,0xc(%rsp)
  402c39:	ff 
  402c3a:	48 83 7c 24 60 00    	cmpq   $0x0,0x60(%rsp)
  402c40:	0f 94 c2             	sete   %dl
  402c43:	85 db                	test   %ebx,%ebx
  402c45:	75 08                	jne    402c4f <printf_core+0x5c9>
  402c47:	84 d2                	test   %dl,%dl
  402c49:	0f 85 68 01 00 00    	jne    402db7 <printf_core+0x731>
  402c4f:	4c 8d ac 24 a8 00 00 	lea    0xa8(%rsp),%r13
  402c56:	00 
  402c57:	0f b6 d2             	movzbl %dl,%edx
  402c5a:	48 63 db             	movslq %ebx,%rbx
  402c5d:	4c 89 e8             	mov    %r13,%rax
  402c60:	4c 29 e0             	sub    %r12,%rax
  402c63:	48 01 d0             	add    %rdx,%rax
  402c66:	48 39 d8             	cmp    %rbx,%rax
  402c69:	48 0f 4d d8          	cmovge %rax,%rbx
  402c6d:	e9 53 01 00 00       	jmp    402dc5 <printf_core+0x73f>
  402c72:	48 8b 44 24 60       	mov    0x60(%rsp),%rax
  402c77:	bd ed 50 40 00       	mov    $0x4050ed,%ebp
  402c7c:	81 64 24 0c ff ff fe 	andl   $0xfffeffff,0xc(%rsp)
  402c83:	ff 
  402c84:	bb 01 00 00 00       	mov    $0x1,%ebx
  402c89:	4c 8d ac 24 a8 00 00 	lea    0xa8(%rsp),%r13
  402c90:	00 
  402c91:	88 84 24 a7 00 00 00 	mov    %al,0xa7(%rsp)
  402c98:	48 8d 44 24 7d       	lea    0x7d(%rsp),%rax
  402c9d:	4c 8d 60 2a          	lea    0x2a(%rax),%r12
  402ca1:	e9 1f 01 00 00       	jmp    402dc5 <printf_core+0x73f>
  402ca6:	e8 b0 0a 00 00       	call   40375b <__errno_location>
  402cab:	8b 38                	mov    (%rax),%edi
  402cad:	67 e8 eb 0a 00 00    	addr32 call 40379e <strerror>
  402cb3:	49 89 c4             	mov    %rax,%r12
  402cb6:	eb 10                	jmp    402cc8 <printf_core+0x642>
  402cb8:	4c 8b 64 24 60       	mov    0x60(%rsp),%r12
  402cbd:	4d 85 e4             	test   %r12,%r12
  402cc0:	75 06                	jne    402cc8 <printf_core+0x642>
  402cc2:	41 bc f7 50 40 00    	mov    $0x4050f7,%r12d
  402cc8:	85 db                	test   %ebx,%ebx
  402cca:	be ff ff ff 7f       	mov    $0x7fffffff,%esi
  402ccf:	4c 89 e7             	mov    %r12,%rdi
  402cd2:	48 0f 49 f3          	cmovns %rbx,%rsi
  402cd6:	67 e8 c4 05 00 00    	addr32 call 4032a0 <strnlen>
  402cdc:	4d 8d 2c 04          	lea    (%r12,%rax,1),%r13
  402ce0:	85 db                	test   %ebx,%ebx
  402ce2:	79 0b                	jns    402cef <printf_core+0x669>
  402ce4:	41 80 7d 00 00       	cmpb   $0x0,0x0(%r13)
  402ce9:	0f 85 16 02 00 00    	jne    402f05 <printf_core+0x87f>
  402cef:	89 c3                	mov    %eax,%ebx
  402cf1:	81 64 24 0c ff ff fe 	andl   $0xfffeffff,0xc(%rsp)
  402cf8:	ff 
  402cf9:	bd ed 50 40 00       	mov    $0x4050ed,%ebp
  402cfe:	e9 c2 00 00 00       	jmp    402dc5 <printf_core+0x73f>
  402d03:	48 8b 44 24 60       	mov    0x60(%rsp),%rax
  402d08:	c7 44 24 5c 00 00 00 	movl   $0x0,0x5c(%rsp)
  402d0f:	00 
  402d10:	48 83 cb ff          	or     $0xffffffffffffffff,%rbx
  402d14:	89 44 24 58          	mov    %eax,0x58(%rsp)
  402d18:	48 8d 44 24 58       	lea    0x58(%rsp),%rax
  402d1d:	48 89 44 24 60       	mov    %rax,0x60(%rsp)
  402d22:	4c 8b 64 24 60       	mov    0x60(%rsp),%r12
  402d27:	31 ed                	xor    %ebp,%ebp
  402d29:	48 39 eb             	cmp    %rbp,%rbx
  402d2c:	0f 86 eb 01 00 00    	jbe    402f1d <printf_core+0x897>
  402d32:	41 8b 34 24          	mov    (%r12),%esi
  402d36:	85 f6                	test   %esi,%esi
  402d38:	0f 84 df 01 00 00    	je     402f1d <printf_core+0x897>
  402d3e:	48 8d 7c 24 4c       	lea    0x4c(%rsp),%rdi
  402d43:	49 83 c4 04          	add    $0x4,%r12
  402d47:	67 e8 72 0b 00 00    	addr32 call 4038bf <wctomb>
  402d4d:	85 c0                	test   %eax,%eax
  402d4f:	0f 88 bb 01 00 00    	js     402f10 <printf_core+0x88a>
  402d55:	48 89 da             	mov    %rbx,%rdx
  402d58:	48 98                	cltq
  402d5a:	48 29 ea             	sub    %rbp,%rdx
  402d5d:	48 39 d0             	cmp    %rdx,%rax
  402d60:	0f 87 b7 01 00 00    	ja     402f1d <printf_core+0x897>
  402d66:	48 01 c5             	add    %rax,%rbp
  402d69:	eb be                	jmp    402d29 <printf_core+0x6a3>
  402d6b:	85 db                	test   %ebx,%ebx
  402d6d:	79 0b                	jns    402d7a <printf_core+0x6f4>
  402d6f:	44 89 c8             	mov    %r9d,%eax
  402d72:	a8 01                	test   $0x1,%al
  402d74:	0f 85 8b 01 00 00    	jne    402f05 <printf_core+0x87f>
  402d7a:	ff 74 24 68          	push   0x68(%rsp)
  402d7e:	89 da                	mov    %ebx,%edx
  402d80:	44 89 f6             	mov    %r14d,%esi
  402d83:	ff 74 24 68          	push   0x68(%rsp)
  402d87:	8b 4c 24 1c          	mov    0x1c(%rsp),%ecx
  402d8b:	48 8b 7c 24 20       	mov    0x20(%rsp),%rdi
  402d90:	e8 7f ed ff ff       	call   401b14 <fmt_fp>
  402d95:	41 89 c7             	mov    %eax,%r15d
  402d98:	58                   	pop    %rax
  402d99:	5a                   	pop    %rdx
  402d9a:	45 85 ff             	test   %r15d,%r15d
  402d9d:	0f 89 ba f9 ff ff    	jns    40275d <printf_core+0xd7>
  402da3:	e9 5d 01 00 00       	jmp    402f05 <printf_core+0x87f>
  402da8:	bd ed 50 40 00       	mov    $0x4050ed,%ebp
  402dad:	4c 8d ac 24 a8 00 00 	lea    0xa8(%rsp),%r13
  402db4:	00 
  402db5:	eb 0e                	jmp    402dc5 <printf_core+0x73f>
  402db7:	44 89 eb             	mov    %r13d,%ebx
  402dba:	4c 8d ac 24 a8 00 00 	lea    0xa8(%rsp),%r13
  402dc1:	00 
  402dc2:	4d 89 ec             	mov    %r13,%r12
  402dc5:	48 63 c3             	movslq %ebx,%rax
  402dc8:	4d 29 e5             	sub    %r12,%r13
  402dcb:	4c 39 e8             	cmp    %r13,%rax
  402dce:	b8 ff ff ff 7f       	mov    $0x7fffffff,%eax
  402dd3:	41 0f 4c dd          	cmovl  %r13d,%ebx
  402dd7:	44 29 f8             	sub    %r15d,%eax
  402dda:	39 d8                	cmp    %ebx,%eax
  402ddc:	0f 8c 23 01 00 00    	jl     402f05 <printf_core+0x87f>
  402de2:	42 8d 04 3b          	lea    (%rbx,%r15,1),%eax
  402de6:	44 39 f0             	cmp    %r14d,%eax
  402de9:	89 44 24 38          	mov    %eax,0x38(%rsp)
  402ded:	44 0f 4d f0          	cmovge %eax,%r14d
  402df1:	44 39 74 24 3c       	cmp    %r14d,0x3c(%rsp)
  402df6:	0f 8c 09 01 00 00    	jl     402f05 <printf_core+0x87f>
  402dfc:	44 8b 44 24 0c       	mov    0xc(%rsp),%r8d
  402e01:	48 8b 7c 24 10       	mov    0x10(%rsp),%rdi
  402e06:	89 c1                	mov    %eax,%ecx
  402e08:	44 89 f2             	mov    %r14d,%edx
  402e0b:	be 20 00 00 00       	mov    $0x20,%esi
  402e10:	e8 44 ec ff ff       	call   401a59 <pad>
  402e15:	48 8b 7c 24 10       	mov    0x10(%rsp),%rdi
  402e1a:	49 63 d7             	movslq %r15d,%rdx
  402e1d:	48 89 ee             	mov    %rbp,%rsi
  402e20:	45 89 f7             	mov    %r14d,%r15d
  402e23:	e8 1a ec ff ff       	call   401a42 <out>
  402e28:	44 8b 44 24 0c       	mov    0xc(%rsp),%r8d
  402e2d:	8b 4c 24 38          	mov    0x38(%rsp),%ecx
  402e31:	44 89 f2             	mov    %r14d,%edx
  402e34:	48 8b 7c 24 10       	mov    0x10(%rsp),%rdi
  402e39:	be 30 00 00 00       	mov    $0x30,%esi
  402e3e:	41 81 f0 00 00 01 00 	xor    $0x10000,%r8d
  402e45:	e8 0f ec ff ff       	call   401a59 <pad>
  402e4a:	48 8b 7c 24 10       	mov    0x10(%rsp),%rdi
  402e4f:	45 31 c0             	xor    %r8d,%r8d
  402e52:	44 89 e9             	mov    %r13d,%ecx
  402e55:	89 da                	mov    %ebx,%edx
  402e57:	be 30 00 00 00       	mov    $0x30,%esi
  402e5c:	e8 f8 eb ff ff       	call   401a59 <pad>
  402e61:	48 8b 7c 24 10       	mov    0x10(%rsp),%rdi
  402e66:	4c 89 ea             	mov    %r13,%rdx
  402e69:	4c 89 e6             	mov    %r12,%rsi
  402e6c:	e8 d1 eb ff ff       	call   401a42 <out>
  402e71:	44 8b 44 24 0c       	mov    0xc(%rsp),%r8d
  402e76:	8b 4c 24 38          	mov    0x38(%rsp),%ecx
  402e7a:	44 89 f2             	mov    %r14d,%edx
  402e7d:	48 8b 7c 24 10       	mov    0x10(%rsp),%rdi
  402e82:	be 20 00 00 00       	mov    $0x20,%esi
  402e87:	41 81 f0 00 20 00 00 	xor    $0x2000,%r8d
  402e8e:	e8 c6 eb ff ff       	call   401a59 <pad>
  402e93:	e9 3e f8 ff ff       	jmp    4026d6 <printf_core+0x50>
  402e98:	48 83 7c 24 10 00    	cmpq   $0x0,0x10(%rsp)
  402e9e:	0f 85 0a 01 00 00    	jne    402fae <printf_core+0x928>
  402ea4:	83 7c 24 24 00       	cmpl   $0x0,0x24(%rsp)
  402ea9:	bb 01 00 00 00       	mov    $0x1,%ebx
  402eae:	0f 84 68 fb ff ff    	je     402a1c <printf_core+0x396>
  402eb4:	48 8b 44 24 28       	mov    0x28(%rsp),%rax
  402eb9:	8b 34 98             	mov    (%rax,%rbx,4),%esi
  402ebc:	85 f6                	test   %esi,%esi
  402ebe:	74 35                	je     402ef5 <printf_core+0x86f>
  402ec0:	48 89 df             	mov    %rbx,%rdi
  402ec3:	48 8b 54 24 18       	mov    0x18(%rsp),%rdx
  402ec8:	48 ff c3             	inc    %rbx
  402ecb:	48 c1 e7 04          	shl    $0x4,%rdi
  402ecf:	48 03 7c 24 30       	add    0x30(%rsp),%rdi
  402ed4:	e8 a9 e9 ff ff       	call   401882 <pop_arg>
  402ed9:	48 83 fb 0a          	cmp    $0xa,%rbx
  402edd:	75 d5                	jne    402eb4 <printf_core+0x82e>
  402edf:	c7 44 24 20 01 00 00 	movl   $0x1,0x20(%rsp)
  402ee6:	00 
  402ee7:	e9 c2 00 00 00       	jmp    402fae <printf_core+0x928>
  402eec:	48 ff c3             	inc    %rbx
  402eef:	48 83 fb 0a          	cmp    $0xa,%rbx
  402ef3:	74 ea                	je     402edf <printf_core+0x859>
  402ef5:	48 8b 44 24 28       	mov    0x28(%rsp),%rax
  402efa:	83 3c 98 00          	cmpl   $0x0,(%rax,%rbx,4)
  402efe:	74 ec                	je     402eec <printf_core+0x866>
  402f00:	e9 32 f9 ff ff       	jmp    402837 <printf_core+0x1b1>
  402f05:	e8 51 08 00 00       	call   40375b <__errno_location>
  402f0a:	c7 00 4b 00 00 00    	movl   $0x4b,(%rax)
  402f10:	c7 44 24 20 ff ff ff 	movl   $0xffffffff,0x20(%rsp)
  402f17:	ff 
  402f18:	e9 91 00 00 00       	jmp    402fae <printf_core+0x928>
  402f1d:	48 81 fd ff ff ff 7f 	cmp    $0x7fffffff,%rbp
  402f24:	77 df                	ja     402f05 <printf_core+0x87f>
  402f26:	44 8b 44 24 0c       	mov    0xc(%rsp),%r8d
  402f2b:	48 8b 7c 24 10       	mov    0x10(%rsp),%rdi
  402f30:	89 e9                	mov    %ebp,%ecx
  402f32:	44 89 f2             	mov    %r14d,%edx
  402f35:	be 20 00 00 00       	mov    $0x20,%esi
  402f3a:	41 89 ef             	mov    %ebp,%r15d
  402f3d:	31 db                	xor    %ebx,%ebx
  402f3f:	e8 15 eb ff ff       	call   401a59 <pad>
  402f44:	4c 8b 6c 24 60       	mov    0x60(%rsp),%r13
  402f49:	48 39 dd             	cmp    %rbx,%rbp
  402f4c:	77 2d                	ja     402f7b <printf_core+0x8f5>
  402f4e:	44 8b 44 24 0c       	mov    0xc(%rsp),%r8d
  402f53:	48 8b 7c 24 10       	mov    0x10(%rsp),%rdi
  402f58:	44 89 f9             	mov    %r15d,%ecx
  402f5b:	44 89 f2             	mov    %r14d,%edx
  402f5e:	be 20 00 00 00       	mov    $0x20,%esi
  402f63:	41 81 f0 00 20 00 00 	xor    $0x2000,%r8d
  402f6a:	e8 ea ea ff ff       	call   401a59 <pad>
  402f6f:	45 39 fe             	cmp    %r15d,%r14d
  402f72:	45 0f 4d fe          	cmovge %r14d,%r15d
  402f76:	e9 e2 f7 ff ff       	jmp    40275d <printf_core+0xd7>
  402f7b:	41 8b 75 00          	mov    0x0(%r13),%esi
  402f7f:	85 f6                	test   %esi,%esi
  402f81:	74 cb                	je     402f4e <printf_core+0x8c8>
  402f83:	48 8d 7c 24 4c       	lea    0x4c(%rsp),%rdi
  402f88:	49 83 c5 04          	add    $0x4,%r13
  402f8c:	67 e8 2d 09 00 00    	addr32 call 4038bf <wctomb>
  402f92:	48 63 d0             	movslq %eax,%rdx
  402f95:	48 01 d3             	add    %rdx,%rbx
  402f98:	48 39 eb             	cmp    %rbp,%rbx
  402f9b:	77 b1                	ja     402f4e <printf_core+0x8c8>
  402f9d:	48 8b 7c 24 10       	mov    0x10(%rsp),%rdi
  402fa2:	48 8d 74 24 4c       	lea    0x4c(%rsp),%rsi
  402fa7:	e8 96 ea ff ff       	call   401a42 <out>
  402fac:	eb 9b                	jmp    402f49 <printf_core+0x8c3>
  402fae:	48 8b 9c 24 a8 00 00 	mov    0xa8(%rsp),%rbx
  402fb5:	00 
  402fb6:	64 48 33 1c 25 28 00 	xor    %fs:0x28,%rbx
  402fbd:	00 00 
  402fbf:	8b 44 24 20          	mov    0x20(%rsp),%eax
  402fc3:	74 06                	je     402fcb <printf_core+0x945>
  402fc5:	67 e8 8e 07 00 00    	addr32 call 403759 <__stack_chk_fail>
  402fcb:	48 81 c4 b8 00 00 00 	add    $0xb8,%rsp
  402fd2:	5b                   	pop    %rbx
  402fd3:	5d                   	pop    %rbp
  402fd4:	41 5c                	pop    %r12
  402fd6:	41 5d                	pop    %r13
  402fd8:	41 5e                	pop    %r14
  402fda:	41 5f                	pop    %r15
  402fdc:	c3                   	ret

0000000000402fdd <vfprintf>:
  402fdd:	41 57                	push   %r15
  402fdf:	b9 0a 00 00 00       	mov    $0xa,%ecx
  402fe4:	49 89 f7             	mov    %rsi,%r15
  402fe7:	41 56                	push   %r14
  402fe9:	41 55                	push   %r13
  402feb:	41 54                	push   %r12
  402fed:	55                   	push   %rbp
  402fee:	83 cd ff             	or     $0xffffffff,%ebp
  402ff1:	53                   	push   %rbx
  402ff2:	48 89 fb             	mov    %rdi,%rbx
  402ff5:	48 81 ec 48 01 00 00 	sub    $0x148,%rsp
  402ffc:	64 48 8b 04 25 28 00 	mov    %fs:0x28,%rax
  403003:	00 00 
  403005:	48 89 84 24 38 01 00 	mov    %rax,0x138(%rsp)
  40300c:	00 
  40300d:	31 c0                	xor    %eax,%eax
  40300f:	48 8d 7c 24 18       	lea    0x18(%rsp),%rdi
  403014:	4c 8d 44 24 18       	lea    0x18(%rsp),%r8
  403019:	f3 ab                	rep stos %eax,%es:(%rdi)
  40301b:	48 8d 4c 24 40       	lea    0x40(%rsp),%rcx
  403020:	31 ff                	xor    %edi,%edi
  403022:	0f 10 02             	movups (%rdx),%xmm0
  403025:	0f 11 04 24          	movups %xmm0,(%rsp)
  403029:	48 8b 42 10          	mov    0x10(%rdx),%rax
  40302d:	48 89 e2             	mov    %rsp,%rdx
  403030:	48 89 44 24 10       	mov    %rax,0x10(%rsp)
  403035:	e8 4c f6 ff ff       	call   402686 <printf_core>
  40303a:	85 c0                	test   %eax,%eax
  40303c:	0f 88 fe 00 00 00    	js     403140 <vfprintf+0x163>
  403042:	8b 83 8c 00 00 00    	mov    0x8c(%rbx),%eax
  403048:	45 31 f6             	xor    %r14d,%r14d
  40304b:	85 c0                	test   %eax,%eax
  40304d:	78 0b                	js     40305a <vfprintf+0x7d>
  40304f:	48 89 df             	mov    %rbx,%rdi
  403052:	e8 7b 08 00 00       	call   4038d2 <__lockfile>
  403057:	41 89 c6             	mov    %eax,%r14d
  40305a:	8b 03                	mov    (%rbx),%eax
  40305c:	41 89 c5             	mov    %eax,%r13d
  40305f:	41 83 e5 20          	and    $0x20,%r13d
  403063:	83 bb 88 00 00 00 00 	cmpl   $0x0,0x88(%rbx)
  40306a:	7f 05                	jg     403071 <vfprintf+0x94>
  40306c:	83 e0 df             	and    $0xffffffdf,%eax
  40306f:	89 03                	mov    %eax,(%rbx)
  403071:	48 83 7b 60 00       	cmpq   $0x0,0x60(%rbx)
  403076:	75 32                	jne    4030aa <vfprintf+0xcd>
  403078:	48 8d 84 24 e8 00 00 	lea    0xe8(%rsp),%rax
  40307f:	00 
  403080:	4c 8b 63 58          	mov    0x58(%rbx),%r12
  403084:	48 c7 43 60 50 00 00 	movq   $0x50,0x60(%rbx)
  40308b:	00 
  40308c:	48 89 43 58          	mov    %rax,0x58(%rbx)
  403090:	48 c7 43 20 00 00 00 	movq   $0x0,0x20(%rbx)
  403097:	00 
  403098:	48 c7 43 38 00 00 00 	movq   $0x0,0x38(%rbx)
  40309f:	00 
  4030a0:	48 c7 43 28 00 00 00 	movq   $0x0,0x28(%rbx)
  4030a7:	00 
  4030a8:	eb 09                	jmp    4030b3 <vfprintf+0xd6>
  4030aa:	4c 8b 63 20          	mov    0x20(%rbx),%r12
  4030ae:	4d 85 e4             	test   %r12,%r12
  4030b1:	75 11                	jne    4030c4 <vfprintf+0xe7>
  4030b3:	48 89 df             	mov    %rbx,%rdi
  4030b6:	83 cd ff             	or     $0xffffffff,%ebp
  4030b9:	e8 8f 0a 00 00       	call   403b4d <__towrite>
  4030be:	85 c0                	test   %eax,%eax
  4030c0:	75 1f                	jne    4030e1 <vfprintf+0x104>
  4030c2:	eb 03                	jmp    4030c7 <vfprintf+0xea>
  4030c4:	45 31 e4             	xor    %r12d,%r12d
  4030c7:	4c 8d 44 24 18       	lea    0x18(%rsp),%r8
  4030cc:	48 8d 4c 24 40       	lea    0x40(%rsp),%rcx
  4030d1:	48 89 e2             	mov    %rsp,%rdx
  4030d4:	4c 89 fe             	mov    %r15,%rsi
  4030d7:	48 89 df             	mov    %rbx,%rdi
  4030da:	e8 a7 f5 ff ff       	call   402686 <printf_core>
  4030df:	89 c5                	mov    %eax,%ebp
  4030e1:	4d 85 e4             	test   %r12,%r12
  4030e4:	74 3b                	je     403121 <vfprintf+0x144>
  4030e6:	31 d2                	xor    %edx,%edx
  4030e8:	31 f6                	xor    %esi,%esi
  4030ea:	48 89 df             	mov    %rbx,%rdi
  4030ed:	ff 53 48             	call   *0x48(%rbx)
  4030f0:	48 83 7b 28 00       	cmpq   $0x0,0x28(%rbx)
  4030f5:	b8 ff ff ff ff       	mov    $0xffffffff,%eax
  4030fa:	4c 89 63 58          	mov    %r12,0x58(%rbx)
  4030fe:	48 c7 43 60 00 00 00 	movq   $0x0,0x60(%rbx)
  403105:	00 
  403106:	0f 44 e8             	cmove  %eax,%ebp
  403109:	48 c7 43 20 00 00 00 	movq   $0x0,0x20(%rbx)
  403110:	00 
  403111:	48 c7 43 38 00 00 00 	movq   $0x0,0x38(%rbx)
  403118:	00 
  403119:	48 c7 43 28 00 00 00 	movq   $0x0,0x28(%rbx)
  403120:	00 
  403121:	8b 03                	mov    (%rbx),%eax
  403123:	ba ff ff ff ff       	mov    $0xffffffff,%edx
  403128:	a8 20                	test   $0x20,%al
  40312a:	0f 45 ea             	cmovne %edx,%ebp
  40312d:	41 09 c5             	or     %eax,%r13d
  403130:	44 89 2b             	mov    %r13d,(%rbx)
  403133:	45 85 f6             	test   %r14d,%r14d
  403136:	74 08                	je     403140 <vfprintf+0x163>
  403138:	48 89 df             	mov    %rbx,%rdi
  40313b:	e8 3c 08 00 00       	call   40397c <__unlockfile>
  403140:	48 8b b4 24 38 01 00 	mov    0x138(%rsp),%rsi
  403147:	00 
  403148:	64 48 33 34 25 28 00 	xor    %fs:0x28,%rsi
  40314f:	00 00 
  403151:	89 e8                	mov    %ebp,%eax
  403153:	74 06                	je     40315b <vfprintf+0x17e>
  403155:	67 e8 fe 05 00 00    	addr32 call 403759 <__stack_chk_fail>
  40315b:	48 81 c4 48 01 00 00 	add    $0x148,%rsp
  403162:	5b                   	pop    %rbx
  403163:	5d                   	pop    %rbp
  403164:	41 5c                	pop    %r12
  403166:	41 5d                	pop    %r13
  403168:	41 5e                	pop    %r14
  40316a:	41 5f                	pop    %r15
  40316c:	c3                   	ret
  40316d:	0f 1f 00             	nopl   (%rax)

0000000000403170 <memchr>:
  403170:	40 0f b6 f6          	movzbl %sil,%esi
  403174:	40 f6 c7 07          	test   $0x7,%dil
  403178:	74 38                	je     4031b2 <memchr+0x42>
  40317a:	48 85 d2             	test   %rdx,%rdx
  40317d:	0f 84 f5 00 00 00    	je     403278 <memchr+0x108>
  403183:	0f b6 07             	movzbl (%rdi),%eax
  403186:	39 c6                	cmp    %eax,%esi
  403188:	75 1a                	jne    4031a4 <memchr+0x34>
  40318a:	e9 f1 00 00 00       	jmp    403280 <memchr+0x110>
  40318f:	90                   	nop
  403190:	48 85 d2             	test   %rdx,%rdx
  403193:	0f 84 df 00 00 00    	je     403278 <memchr+0x108>
  403199:	0f b6 07             	movzbl (%rdi),%eax
  40319c:	39 f0                	cmp    %esi,%eax
  40319e:	0f 84 dc 00 00 00    	je     403280 <memchr+0x110>
  4031a4:	48 83 c7 01          	add    $0x1,%rdi
  4031a8:	48 83 ea 01          	sub    $0x1,%rdx
  4031ac:	40 f6 c7 07          	test   $0x7,%dil
  4031b0:	75 de                	jne    403190 <memchr+0x20>
  4031b2:	31 c0                	xor    %eax,%eax
  4031b4:	48 85 d2             	test   %rdx,%rdx
  4031b7:	0f 84 b3 00 00 00    	je     403270 <memchr+0x100>
  4031bd:	0f b6 07             	movzbl (%rdi),%eax
  4031c0:	39 f0                	cmp    %esi,%eax
  4031c2:	0f 84 b8 00 00 00    	je     403280 <memchr+0x110>
  4031c8:	49 b8 01 01 01 01 01 	movabs $0x101010101010101,%r8
  4031cf:	01 01 01 
  4031d2:	4c 63 ce             	movslq %esi,%r9
  4031d5:	4d 0f af c8          	imul   %r8,%r9
  4031d9:	48 83 fa 07          	cmp    $0x7,%rdx
  4031dd:	0f 86 ab 00 00 00    	jbe    40328e <memchr+0x11e>
  4031e3:	49 ba 80 80 80 80 80 	movabs $0x8080808080808080,%r10
  4031ea:	80 80 80 
  4031ed:	48 8b 07             	mov    (%rdi),%rax
  4031f0:	4c 31 c8             	xor    %r9,%rax
  4031f3:	48 89 c1             	mov    %rax,%rcx
  4031f6:	4c 29 c0             	sub    %r8,%rax
  4031f9:	48 f7 d1             	not    %rcx
  4031fc:	48 21 c8             	and    %rcx,%rax
  4031ff:	4c 85 d0             	test   %r10,%rax
  403202:	0f 85 86 00 00 00    	jne    40328e <memchr+0x11e>
  403208:	49 bb ff fe fe fe fe 	movabs $0xfefefefefefefeff,%r11
  40320f:	fe fe fe 
  403212:	eb 1d                	jmp    403231 <memchr+0xc1>
  403214:	0f 1f 40 00          	nopl   0x0(%rax)
  403218:	48 8b 4f 08          	mov    0x8(%rdi),%rcx
  40321c:	4c 31 c9             	xor    %r9,%rcx
  40321f:	4e 8d 04 19          	lea    (%rcx,%r11,1),%r8
  403223:	48 f7 d1             	not    %rcx
  403226:	4c 21 c1             	and    %r8,%rcx
  403229:	4c 85 d1             	test   %r10,%rcx
  40322c:	75 5a                	jne    403288 <memchr+0x118>
  40322e:	48 89 c7             	mov    %rax,%rdi
  403231:	48 83 ea 08          	sub    $0x8,%rdx
  403235:	48 8d 47 08          	lea    0x8(%rdi),%rax
  403239:	48 83 fa 07          	cmp    $0x7,%rdx
  40323d:	77 d9                	ja     403218 <memchr+0xa8>
  40323f:	48 85 d2             	test   %rdx,%rdx
  403242:	74 34                	je     403278 <memchr+0x108>
  403244:	0f b6 08             	movzbl (%rax),%ecx
  403247:	39 ce                	cmp    %ecx,%esi
  403249:	74 48                	je     403293 <memchr+0x123>
  40324b:	48 8d 48 01          	lea    0x1(%rax),%rcx
  40324f:	48 01 c2             	add    %rax,%rdx
  403252:	66 0f 1f 44 00 00    	nopw   0x0(%rax,%rax,1)
  403258:	48 89 c8             	mov    %rcx,%rax
  40325b:	48 39 ca             	cmp    %rcx,%rdx
  40325e:	74 18                	je     403278 <memchr+0x108>
  403260:	0f b6 38             	movzbl (%rax),%edi
  403263:	48 83 c1 01          	add    $0x1,%rcx
  403267:	39 f7                	cmp    %esi,%edi
  403269:	75 ed                	jne    403258 <memchr+0xe8>
  40326b:	c3                   	ret
  40326c:	0f 1f 40 00          	nopl   0x0(%rax)
  403270:	c3                   	ret
  403271:	0f 1f 80 00 00 00 00 	nopl   0x0(%rax)
  403278:	31 c0                	xor    %eax,%eax
  40327a:	c3                   	ret
  40327b:	0f 1f 44 00 00       	nopl   0x0(%rax,%rax,1)
  403280:	48 89 f8             	mov    %rdi,%rax
  403283:	eb bf                	jmp    403244 <memchr+0xd4>
  403285:	0f 1f 00             	nopl   (%rax)
  403288:	0f b6 4f 08          	movzbl 0x8(%rdi),%ecx
  40328c:	eb b9                	jmp    403247 <memchr+0xd7>
  40328e:	48 89 f8             	mov    %rdi,%rax
  403291:	eb b8                	jmp    40324b <memchr+0xdb>
  403293:	c3                   	ret
  403294:	66 2e 0f 1f 84 00 00 	cs nopw 0x0(%rax,%rax,1)
  40329b:	00 00 00 
  40329e:	66 90                	xchg   %ax,%ax

00000000004032a0 <strnlen>:
  4032a0:	55                   	push   %rbp
  4032a1:	48 89 f2             	mov    %rsi,%rdx
  4032a4:	48 89 fd             	mov    %rdi,%rbp
  4032a7:	53                   	push   %rbx
  4032a8:	48 89 f3             	mov    %rsi,%rbx
  4032ab:	31 f6                	xor    %esi,%esi
  4032ad:	48 83 ec 08          	sub    $0x8,%rsp
  4032b1:	67 e8 b9 fe ff ff    	addr32 call 403170 <memchr>
  4032b7:	48 89 c6             	mov    %rax,%rsi
  4032ba:	48 29 ee             	sub    %rbp,%rsi
  4032bd:	48 85 c0             	test   %rax,%rax
  4032c0:	48 89 d8             	mov    %rbx,%rax
  4032c3:	48 0f 45 c6          	cmovne %rsi,%rax
  4032c7:	48 83 c4 08          	add    $0x8,%rsp
  4032cb:	5b                   	pop    %rbx
  4032cc:	5d                   	pop    %rbp
  4032cd:	c3                   	ret

00000000004032ce <memcpy>:
  4032ce:	48 89 f8             	mov    %rdi,%rax
  4032d1:	48 83 fa 08          	cmp    $0x8,%rdx
  4032d5:	72 14                	jb     4032eb <memcpy+0x1d>
  4032d7:	f7 c7 07 00 00 00    	test   $0x7,%edi
  4032dd:	74 0c                	je     4032eb <memcpy+0x1d>
  4032df:	a4                   	movsb  %ds:(%rsi),%es:(%rdi)
  4032e0:	48 ff ca             	dec    %rdx
  4032e3:	f7 c7 07 00 00 00    	test   $0x7,%edi
  4032e9:	75 f4                	jne    4032df <memcpy+0x11>
  4032eb:	48 89 d1             	mov    %rdx,%rcx
  4032ee:	48 c1 e9 03          	shr    $0x3,%rcx
  4032f2:	f3 48 a5             	rep movsq %ds:(%rsi),%es:(%rdi)
  4032f5:	83 e2 07             	and    $0x7,%edx
  4032f8:	74 05                	je     4032ff <memcpy+0x31>
  4032fa:	a4                   	movsb  %ds:(%rsi),%es:(%rdi)
  4032fb:	ff ca                	dec    %edx
  4032fd:	75 fb                	jne    4032fa <memcpy+0x2c>
  4032ff:	c3                   	ret

0000000000403300 <memset>:
  403300:	48 0f b6 c6          	movzbq %sil,%rax
  403304:	49 b8 01 01 01 01 01 	movabs $0x101010101010101,%r8
  40330b:	01 01 01 
  40330e:	49 0f af c0          	imul   %r8,%rax
  403312:	48 83 fa 7e          	cmp    $0x7e,%rdx
  403316:	77 78                	ja     403390 <memset+0x90>
  403318:	85 d2                	test   %edx,%edx
  40331a:	74 70                	je     40338c <memset+0x8c>
  40331c:	40 88 37             	mov    %sil,(%rdi)
  40331f:	40 88 74 17 ff       	mov    %sil,-0x1(%rdi,%rdx,1)
  403324:	83 fa 02             	cmp    $0x2,%edx
  403327:	76 63                	jbe    40338c <memset+0x8c>
  403329:	66 89 47 01          	mov    %ax,0x1(%rdi)
  40332d:	66 89 44 17 fd       	mov    %ax,-0x3(%rdi,%rdx,1)
  403332:	83 fa 06             	cmp    $0x6,%edx
  403335:	76 55                	jbe    40338c <memset+0x8c>
  403337:	89 47 03             	mov    %eax,0x3(%rdi)
  40333a:	89 44 17 f9          	mov    %eax,-0x7(%rdi,%rdx,1)
  40333e:	83 fa 0e             	cmp    $0xe,%edx
  403341:	76 49                	jbe    40338c <memset+0x8c>
  403343:	48 89 47 07          	mov    %rax,0x7(%rdi)
  403347:	48 89 44 17 f1       	mov    %rax,-0xf(%rdi,%rdx,1)
  40334c:	83 fa 1e             	cmp    $0x1e,%edx
  40334f:	76 3b                	jbe    40338c <memset+0x8c>
  403351:	48 89 47 0f          	mov    %rax,0xf(%rdi)
  403355:	48 89 47 17          	mov    %rax,0x17(%rdi)
  403359:	48 89 44 17 e1       	mov    %rax,-0x1f(%rdi,%rdx,1)
  40335e:	48 89 44 17 e9       	mov    %rax,-0x17(%rdi,%rdx,1)
  403363:	83 fa 3e             	cmp    $0x3e,%edx
  403366:	76 24                	jbe    40338c <memset+0x8c>
  403368:	48 89 47 1f          	mov    %rax,0x1f(%rdi)
  40336c:	48 89 47 27          	mov    %rax,0x27(%rdi)
  403370:	48 89 47 2f          	mov    %rax,0x2f(%rdi)
  403374:	48 89 47 37          	mov    %rax,0x37(%rdi)
  403378:	48 89 44 17 c1       	mov    %rax,-0x3f(%rdi,%rdx,1)
  40337d:	48 89 44 17 c9       	mov    %rax,-0x37(%rdi,%rdx,1)
  403382:	48 89 44 17 d1       	mov    %rax,-0x2f(%rdi,%rdx,1)
  403387:	48 89 44 17 d9       	mov    %rax,-0x27(%rdi,%rdx,1)
  40338c:	48 89 f8             	mov    %rdi,%rax
  40338f:	c3                   	ret
  403390:	f7 c7 0f 00 00 00    	test   $0xf,%edi
  403396:	49 89 f8             	mov    %rdi,%r8
  403399:	48 89 44 17 f8       	mov    %rax,-0x8(%rdi,%rdx,1)
  40339e:	48 89 d1             	mov    %rdx,%rcx
  4033a1:	75 0b                	jne    4033ae <memset+0xae>
  4033a3:	48 c1 e9 03          	shr    $0x3,%rcx
  4033a7:	f3 48 ab             	rep stos %rax,%es:(%rdi)
  4033aa:	4c 89 c0             	mov    %r8,%rax
  4033ad:	c3                   	ret
  4033ae:	31 d2                	xor    %edx,%edx
  4033b0:	29 fa                	sub    %edi,%edx
  4033b2:	83 e2 0f             	and    $0xf,%edx
  4033b5:	48 89 07             	mov    %rax,(%rdi)
  4033b8:	48 89 47 08          	mov    %rax,0x8(%rdi)
  4033bc:	48 29 d1             	sub    %rdx,%rcx
  4033bf:	48 01 d7             	add    %rdx,%rdi
  4033c2:	eb df                	jmp    4033a3 <memset+0xa3>

00000000004033c4 <__lock>:
  4033c4:	0f be 0d f8 48 00 00 	movsbl 0x48f8(%rip),%ecx        # 407cc3 <__libc+0x3>
  4033cb:	85 c9                	test   %ecx,%ecx
  4033cd:	0f 84 a0 00 00 00    	je     403473 <__lock+0xaf>
  4033d3:	31 c0                	xor    %eax,%eax
  4033d5:	ba 01 00 00 80       	mov    $0x80000001,%edx
  4033da:	f0 0f b1 17          	lock cmpxchg %edx,(%rdi)
  4033de:	89 c2                	mov    %eax,%edx
  4033e0:	85 c9                	test   %ecx,%ecx
  4033e2:	79 07                	jns    4033eb <__lock+0x27>
  4033e4:	c6 05 d8 48 00 00 00 	movb   $0x0,0x48d8(%rip)        # 407cc3 <__libc+0x3>
  4033eb:	85 c0                	test   %eax,%eax
  4033ed:	0f 84 80 00 00 00    	je     403473 <__lock+0xaf>
  4033f3:	be 0a 00 00 00       	mov    $0xa,%esi
  4033f8:	85 d2                	test   %edx,%edx
  4033fa:	79 06                	jns    403402 <__lock+0x3e>
  4033fc:	81 c2 ff ff ff 7f    	add    $0x7fffffff,%edx
  403402:	8d 8a 01 00 00 80    	lea    -0x7fffffff(%rdx),%ecx
  403408:	89 d0                	mov    %edx,%eax
  40340a:	f0 0f b1 0f          	lock cmpxchg %ecx,(%rdi)
  40340e:	39 c2                	cmp    %eax,%edx
  403410:	74 61                	je     403473 <__lock+0xaf>
  403412:	89 c2                	mov    %eax,%edx
  403414:	ff ce                	dec    %esi
  403416:	75 e0                	jne    4033f8 <__lock+0x34>
  403418:	53                   	push   %rbx
  403419:	41 b8 01 00 00 00    	mov    $0x1,%r8d
  40341f:	f0 44 0f c1 07       	lock xadd %r8d,(%rdi)
  403424:	41 b9 ca 00 00 00    	mov    $0xca,%r9d
  40342a:	41 ff c0             	inc    %r8d
  40342d:	bb 80 00 00 00       	mov    $0x80,%ebx
  403432:	44 89 c2             	mov    %r8d,%edx
  403435:	45 85 c0             	test   %r8d,%r8d
  403438:	79 22                	jns    40345c <__lock+0x98>
  40343a:	49 63 d0             	movslq %r8d,%rdx
  40343d:	45 31 d2             	xor    %r10d,%r10d
  403440:	4c 89 c8             	mov    %r9,%rax
  403443:	48 89 de             	mov    %rbx,%rsi
  403446:	0f 05                	syscall
  403448:	48 83 f8 da          	cmp    $0xffffffffffffffda,%rax
  40344c:	75 07                	jne    403455 <__lock+0x91>
  40344e:	31 f6                	xor    %esi,%esi
  403450:	4c 89 c8             	mov    %r9,%rax
  403453:	0f 05                	syscall
  403455:	41 8d 90 ff ff ff 7f 	lea    0x7fffffff(%r8),%edx
  40345c:	44 8d 82 00 00 00 80 	lea    -0x80000000(%rdx),%r8d
  403463:	89 d0                	mov    %edx,%eax
  403465:	f0 44 0f b1 07       	lock cmpxchg %r8d,(%rdi)
  40346a:	41 89 c0             	mov    %eax,%r8d
  40346d:	39 c2                	cmp    %eax,%edx
  40346f:	75 c1                	jne    403432 <__lock+0x6e>
  403471:	5b                   	pop    %rbx
  403472:	c3                   	ret
  403473:	c3                   	ret

0000000000403474 <__unlock>:
  403474:	8b 07                	mov    (%rdi),%eax
  403476:	85 c0                	test   %eax,%eax
  403478:	79 33                	jns    4034ad <__unlock+0x39>
  40347a:	b8 ff ff ff 7f       	mov    $0x7fffffff,%eax
  40347f:	f0 0f c1 07          	lock xadd %eax,(%rdi)
  403483:	3d 01 00 00 80       	cmp    $0x80000001,%eax
  403488:	74 23                	je     4034ad <__unlock+0x39>
  40348a:	41 b8 ca 00 00 00    	mov    $0xca,%r8d
  403490:	ba 01 00 00 00       	mov    $0x1,%edx
  403495:	be 81 00 00 00       	mov    $0x81,%esi
  40349a:	4c 89 c0             	mov    %r8,%rax
  40349d:	0f 05                	syscall
  40349f:	48 83 f8 da          	cmp    $0xffffffffffffffda,%rax
  4034a3:	75 08                	jne    4034ad <__unlock+0x39>
  4034a5:	4c 89 c0             	mov    %r8,%rax
  4034a8:	48 89 d6             	mov    %rdx,%rsi
  4034ab:	0f 05                	syscall
  4034ad:	c3                   	ret

00000000004034ae <__init_tp>:
  4034ae:	53                   	push   %rbx
  4034af:	48 89 fb             	mov    %rdi,%rbx
  4034b2:	48 89 3f             	mov    %rdi,(%rdi)
  4034b5:	e8 fb 08 00 00       	call   403db5 <__set_thread_area>
  4034ba:	83 ca ff             	or     $0xffffffff,%edx
  4034bd:	85 c0                	test   %eax,%eax
  4034bf:	78 4d                	js     40350e <__init_tp+0x60>
  4034c1:	75 07                	jne    4034ca <__init_tp+0x1c>
  4034c3:	c6 05 f6 47 00 00 01 	movb   $0x1,0x47f6(%rip)        # 407cc0 <__libc>
  4034ca:	c7 43 40 01 00 00 00 	movl   $0x1,0x40(%rbx)
  4034d1:	b8 da 00 00 00       	mov    $0xda,%eax
  4034d6:	bf 28 7d 40 00       	mov    $0x407d28,%edi
  4034db:	0f 05                	syscall
  4034dd:	89 43 38             	mov    %eax,0x38(%rbx)
  4034e0:	48 8d 83 90 00 00 00 	lea    0x90(%rbx),%rax
  4034e7:	31 d2                	xor    %edx,%edx
  4034e9:	48 89 83 90 00 00 00 	mov    %rax,0x90(%rbx)
  4034f0:	48 8b 05 99 47 00 00 	mov    0x4799(%rip),%rax        # 407c90 <__sysinfo>
  4034f7:	48 c7 83 b0 00 00 00 	movq   $0x407cf8,0xb0(%rbx)
  4034fe:	f8 7c 40 00 
  403502:	48 89 43 20          	mov    %rax,0x20(%rbx)
  403506:	48 89 5b 10          	mov    %rbx,0x10(%rbx)
  40350a:	48 89 5b 18          	mov    %rbx,0x18(%rbx)
  40350e:	89 d0                	mov    %edx,%eax
  403510:	5b                   	pop    %rbx
  403511:	c3                   	ret

0000000000403512 <__copy_tls>:
  403512:	41 55                	push   %r13
  403514:	49 89 fd             	mov    %rdi,%r13
  403517:	41 54                	push   %r12
  403519:	4c 8d 67 08          	lea    0x8(%rdi),%r12
  40351d:	55                   	push   %rbp
  40351e:	53                   	push   %rbx
  40351f:	51                   	push   %rcx
  403520:	48 8b 05 b1 47 00 00 	mov    0x47b1(%rip),%rax        # 407cd8 <__libc+0x18>
  403527:	48 8b 1d b2 47 00 00 	mov    0x47b2(%rip),%rbx        # 407ce0 <__libc+0x20>
  40352e:	48 8b 2d 9b 47 00 00 	mov    0x479b(%rip),%rbp        # 407cd0 <__libc+0x10>
  403535:	48 8d 84 07 20 ff ff 	lea    -0xe0(%rdi,%rax,1),%rax
  40353c:	ff 
  40353d:	48 f7 db             	neg    %rbx
  403540:	48 21 c3             	and    %rax,%rbx
  403543:	48 85 ed             	test   %rbp,%rbp
  403546:	74 2a                	je     403572 <__copy_tls+0x60>
  403548:	48 89 d8             	mov    %rbx,%rax
  40354b:	48 2b 45 28          	sub    0x28(%rbp),%rax
  40354f:	48 8b 75 08          	mov    0x8(%rbp),%rsi
  403553:	48 89 df             	mov    %rbx,%rdi
  403556:	49 89 04 24          	mov    %rax,(%r12)
  40355a:	48 8b 55 10          	mov    0x10(%rbp),%rdx
  40355e:	49 83 c4 08          	add    $0x8,%r12
  403562:	48 2b 7d 28          	sub    0x28(%rbp),%rdi
  403566:	67 e8 62 fd ff ff    	addr32 call 4032ce <memcpy>
  40356c:	48 8b 6d 00          	mov    0x0(%rbp),%rbp
  403570:	eb d1                	jmp    403543 <__copy_tls+0x31>
  403572:	48 8b 05 6f 47 00 00 	mov    0x476f(%rip),%rax        # 407ce8 <__libc+0x28>
  403579:	49 89 45 00          	mov    %rax,0x0(%r13)
  40357d:	48 89 d8             	mov    %rbx,%rax
  403580:	4c 89 ab d8 00 00 00 	mov    %r13,0xd8(%rbx)
  403587:	4c 89 6b 08          	mov    %r13,0x8(%rbx)
  40358b:	5a                   	pop    %rdx
  40358c:	5b                   	pop    %rbx
  40358d:	5d                   	pop    %rbp
  40358e:	41 5c                	pop    %r12
  403590:	41 5d                	pop    %r13
  403592:	c3                   	ret

0000000000403593 <__init_tls>:
  403593:	41 54                	push   %r12
  403595:	44 8b 05 70 3c 00 00 	mov    0x3c70(%rip),%r8d        # 40720c <__default_stacksize>
  40359c:	45 31 d2             	xor    %r10d,%r10d
  40359f:	31 c9                	xor    %ecx,%ecx
  4035a1:	55                   	push   %rbp
  4035a2:	31 d2                	xor    %edx,%edx
  4035a4:	bd 00 00 80 00       	mov    $0x800000,%ebp
  4035a9:	53                   	push   %rbx
  4035aa:	4c 8b 5f 18          	mov    0x18(%rdi),%r11
  4035ae:	bb 00 00 00 00       	mov    $0x0,%ebx
  4035b3:	4c 8b 4f 28          	mov    0x28(%rdi),%r9
  4035b7:	4c 89 d8             	mov    %r11,%rax
  4035ba:	4d 85 c9             	test   %r9,%r9
  4035bd:	74 59                	je     403618 <__init_tls+0x85>
  4035bf:	8b 30                	mov    (%rax),%esi
  4035c1:	83 fe 06             	cmp    $0x6,%esi
  4035c4:	75 05                	jne    4035cb <__init_tls+0x38>
  4035c6:	4c 89 d9             	mov    %r11,%rcx
  4035c9:	eb 14                	jmp    4035df <__init_tls+0x4c>
  4035cb:	83 fe 02             	cmp    $0x2,%esi
  4035ce:	74 07                	je     4035d7 <__init_tls+0x44>
  4035d0:	83 fe 07             	cmp    $0x7,%esi
  4035d3:	74 37                	je     40360c <__init_tls+0x79>
  4035d5:	eb 0e                	jmp    4035e5 <__init_tls+0x52>
  4035d7:	48 85 db             	test   %rbx,%rbx
  4035da:	74 33                	je     40360f <__init_tls+0x7c>
  4035dc:	48 89 d9             	mov    %rbx,%rcx
  4035df:	48 2b 48 10          	sub    0x10(%rax),%rcx
  4035e3:	eb 2a                	jmp    40360f <__init_tls+0x7c>
  4035e5:	81 fe 51 e5 74 64    	cmp    $0x6474e551,%esi
  4035eb:	75 22                	jne    40360f <__init_tls+0x7c>
  4035ed:	48 8b 70 28          	mov    0x28(%rax),%rsi
  4035f1:	45 89 c4             	mov    %r8d,%r12d
  4035f4:	4c 39 e6             	cmp    %r12,%rsi
  4035f7:	76 16                	jbe    40360f <__init_tls+0x7c>
  4035f9:	48 81 fe 00 00 80 00 	cmp    $0x800000,%rsi
  403600:	41 b2 01             	mov    $0x1,%r10b
  403603:	48 0f 47 f5          	cmova  %rbp,%rsi
  403607:	49 89 f0             	mov    %rsi,%r8
  40360a:	eb 03                	jmp    40360f <__init_tls+0x7c>
  40360c:	48 89 c2             	mov    %rax,%rdx
  40360f:	49 ff c9             	dec    %r9
  403612:	48 03 47 20          	add    0x20(%rdi),%rax
  403616:	eb a2                	jmp    4035ba <__init_tls+0x27>
  403618:	45 84 d2             	test   %r10b,%r10b
  40361b:	74 07                	je     403624 <__init_tls+0x91>
  40361d:	44 89 05 e8 3b 00 00 	mov    %r8d,0x3be8(%rip)        # 40720c <__default_stacksize>
  403624:	48 85 d2             	test   %rdx,%rdx
  403627:	74 42                	je     40366b <__init_tls+0xd8>
  403629:	48 8b 42 20          	mov    0x20(%rdx),%rax
  40362d:	48 03 4a 10          	add    0x10(%rdx),%rcx
  403631:	48 c7 05 94 46 00 00 	movq   $0x407ae0,0x4694(%rip)        # 407cd0 <__libc+0x10>
  403638:	e0 7a 40 00 
  40363c:	48 89 0d a5 44 00 00 	mov    %rcx,0x44a5(%rip)        # 407ae8 <main_tls+0x8>
  403643:	48 89 05 a6 44 00 00 	mov    %rax,0x44a6(%rip)        # 407af0 <main_tls+0x10>
  40364a:	48 8b 42 28          	mov    0x28(%rdx),%rax
  40364e:	48 c7 05 8f 46 00 00 	movq   $0x1,0x468f(%rip)        # 407ce8 <__libc+0x28>
  403655:	01 00 00 00 
  403659:	48 89 05 98 44 00 00 	mov    %rax,0x4498(%rip)        # 407af8 <main_tls+0x18>
  403660:	48 8b 42 30          	mov    0x30(%rdx),%rax
  403664:	48 89 05 95 44 00 00 	mov    %rax,0x4495(%rip)        # 407b00 <main_tls+0x20>
  40366b:	48 8b 0d 86 44 00 00 	mov    0x4486(%rip),%rcx        # 407af8 <main_tls+0x18>
  403672:	48 8b 05 6f 44 00 00 	mov    0x446f(%rip),%rax        # 407ae8 <main_tls+0x8>
  403679:	48 8b 15 80 44 00 00 	mov    0x4480(%rip),%rdx        # 407b00 <main_tls+0x20>
  403680:	48 01 c8             	add    %rcx,%rax
  403683:	48 f7 d8             	neg    %rax
  403686:	48 8d 72 ff          	lea    -0x1(%rdx),%rsi
  40368a:	48 21 f0             	and    %rsi,%rax
  40368d:	48 01 c8             	add    %rcx,%rax
  403690:	48 89 05 61 44 00 00 	mov    %rax,0x4461(%rip)        # 407af8 <main_tls+0x18>
  403697:	48 89 05 6a 44 00 00 	mov    %rax,0x446a(%rip)        # 407b08 <main_tls+0x28>
  40369e:	48 83 fa 07          	cmp    $0x7,%rdx
  4036a2:	77 0b                	ja     4036af <__init_tls+0x11c>
  4036a4:	48 c7 05 51 44 00 00 	movq   $0x8,0x4451(%rip)        # 407b00 <main_tls+0x20>
  4036ab:	08 00 00 00 
  4036af:	48 8b 15 4a 44 00 00 	mov    0x444a(%rip),%rdx        # 407b00 <main_tls+0x20>
  4036b6:	bf 20 7b 40 00       	mov    $0x407b20,%edi
  4036bb:	48 8d 84 10 f7 00 00 	lea    0xf7(%rax,%rdx,1),%rax
  4036c2:	00 
  4036c3:	48 89 15 16 46 00 00 	mov    %rdx,0x4616(%rip)        # 407ce0 <__libc+0x20>
  4036ca:	48 83 e0 f8          	and    $0xfffffffffffffff8,%rax
  4036ce:	48 89 c6             	mov    %rax,%rsi
  4036d1:	48 89 05 00 46 00 00 	mov    %rax,0x4600(%rip)        # 407cd8 <__libc+0x18>
  4036d8:	48 3d 68 01 00 00    	cmp    $0x168,%rax
  4036de:	76 1e                	jbe    4036fe <__init_tls+0x16b>
  4036e0:	41 ba 22 00 00 00    	mov    $0x22,%r10d
  4036e6:	49 83 c8 ff          	or     $0xffffffffffffffff,%r8
  4036ea:	45 31 c9             	xor    %r9d,%r9d
  4036ed:	31 ff                	xor    %edi,%edi
  4036ef:	b8 09 00 00 00       	mov    $0x9,%eax
  4036f4:	ba 03 00 00 00       	mov    $0x3,%edx
  4036f9:	0f 05                	syscall
  4036fb:	48 89 c7             	mov    %rax,%rdi
  4036fe:	e8 0f fe ff ff       	call   403512 <__copy_tls>
  403703:	48 89 c7             	mov    %rax,%rdi
  403706:	e8 a3 fd ff ff       	call   4034ae <__init_tp>
  40370b:	85 c0                	test   %eax,%eax
  40370d:	79 01                	jns    403710 <__init_tls+0x17d>
  40370f:	f4                   	hlt
  403710:	5b                   	pop    %rbx
  403711:	5d                   	pop    %rbp
  403712:	41 5c                	pop    %r12
  403714:	c3                   	ret

0000000000403715 <__init_ssp>:
  403715:	52                   	push   %rdx
  403716:	48 85 ff             	test   %rdi,%rdi
  403719:	74 15                	je     403730 <__init_ssp+0x1b>
  40371b:	48 89 fe             	mov    %rdi,%rsi
  40371e:	ba 08 00 00 00       	mov    $0x8,%edx
  403723:	bf 30 7d 40 00       	mov    $0x407d30,%edi
  403728:	67 e8 a0 fb ff ff    	addr32 call 4032ce <memcpy>
  40372e:	eb 13                	jmp    403743 <__init_ssp+0x2e>
  403730:	b8 30 7d 40 00       	mov    $0x407d30,%eax
  403735:	48 69 c0 6d 4e c6 41 	imul   $0x41c64e6d,%rax,%rax
  40373c:	48 89 05 ed 45 00 00 	mov    %rax,0x45ed(%rip)        # 407d30 <__stack_chk_guard>
  403743:	48 8b 15 e6 45 00 00 	mov    0x45e6(%rip),%rdx        # 407d30 <__stack_chk_guard>
  40374a:	64 48 8b 04 25 00 00 	mov    %fs:0x0,%rax
  403751:	00 00 
  403753:	48 89 50 28          	mov    %rdx,0x28(%rax)
  403757:	58                   	pop    %rax
  403758:	c3                   	ret

0000000000403759 <__stack_chk_fail>:
  403759:	f4                   	hlt
  40375a:	c3                   	ret

000000000040375b <__errno_location>:
  40375b:	64 48 8b 04 25 00 00 	mov    %fs:0x0,%rax
  403762:	00 00 
  403764:	48 83 c0 3c          	add    $0x3c,%rax
  403768:	c3                   	ret

0000000000403769 <__strerror_l>:
  403769:	31 d2                	xor    %edx,%edx
  40376b:	0f b6 82 60 5c 40 00 	movzbl 0x405c60(%rdx),%eax
  403772:	89 d1                	mov    %edx,%ecx
  403774:	84 c0                	test   %al,%al
  403776:	74 07                	je     40377f <__strerror_l+0x16>
  403778:	48 ff c2             	inc    %rdx
  40377b:	39 f8                	cmp    %edi,%eax
  40377d:	75 ec                	jne    40376b <__strerror_l+0x2>
  40377f:	bf 40 55 40 00       	mov    $0x405540,%edi
  403784:	85 c9                	test   %ecx,%ecx
  403786:	74 0d                	je     403795 <__strerror_l+0x2c>
  403788:	8a 07                	mov    (%rdi),%al
  40378a:	48 ff c7             	inc    %rdi
  40378d:	84 c0                	test   %al,%al
  40378f:	75 f7                	jne    403788 <__strerror_l+0x1f>
  403791:	ff c9                	dec    %ecx
  403793:	eb ef                	jmp    403784 <__strerror_l+0x1b>
  403795:	48 8b 76 28          	mov    0x28(%rsi),%rsi
  403799:	e9 2f 00 00 00       	jmp    4037cd <__lctrans>

000000000040379e <strerror>:
  40379e:	64 48 8b 04 25 00 00 	mov    %fs:0x0,%rax
  4037a5:	00 00 
  4037a7:	48 8b b0 b0 00 00 00 	mov    0xb0(%rax),%rsi
  4037ae:	e9 b6 ff ff ff       	jmp    403769 <__strerror_l>

00000000004037b3 <_Exit>:
  4037b3:	48 63 ff             	movslq %edi,%rdi
  4037b6:	b8 e7 00 00 00       	mov    $0xe7,%eax
  4037bb:	0f 05                	syscall
  4037bd:	ba 3c 00 00 00       	mov    $0x3c,%edx
  4037c2:	48 89 d0             	mov    %rdx,%rax
  4037c5:	0f 05                	syscall
  4037c7:	eb f9                	jmp    4037c2 <_Exit+0xf>

00000000004037c9 <__lctrans_impl>:
  4037c9:	48 89 f8             	mov    %rdi,%rax
  4037cc:	c3                   	ret

00000000004037cd <__lctrans>:
  4037cd:	e9 f7 ff ff ff       	jmp    4037c9 <__lctrans_impl>

00000000004037d2 <__lctrans_cur>:
  4037d2:	64 48 8b 04 25 00 00 	mov    %fs:0x0,%rax
  4037d9:	00 00 
  4037db:	48 8b 80 b0 00 00 00 	mov    0xb0(%rax),%rax
  4037e2:	48 8b 70 28          	mov    0x28(%rax),%rsi
  4037e6:	e9 de ff ff ff       	jmp    4037c9 <__lctrans_impl>

00000000004037eb <__fpclassifyl>:
  4037eb:	48 8b 44 24 10       	mov    0x10(%rsp),%rax
  4037f0:	48 8b 54 24 08       	mov    0x8(%rsp),%rdx
  4037f5:	66 25 ff 7f          	and    $0x7fff,%ax
  4037f9:	48 89 d1             	mov    %rdx,%rcx
  4037fc:	48 c1 e9 3f          	shr    $0x3f,%rcx
  403800:	0f b7 f0             	movzwl %ax,%esi
  403803:	09 ce                	or     %ecx,%esi
  403805:	75 0a                	jne    403811 <__fpclassifyl+0x26>
  403807:	48 83 fa 01          	cmp    $0x1,%rdx
  40380b:	19 c0                	sbb    %eax,%eax
  40380d:	83 c0 03             	add    $0x3,%eax
  403810:	c3                   	ret
  403811:	66 3d ff 7f          	cmp    $0x7fff,%ax
  403815:	75 10                	jne    403827 <__fpclassifyl+0x3c>
  403817:	31 c0                	xor    %eax,%eax
  403819:	48 85 c9             	test   %rcx,%rcx
  40381c:	74 10                	je     40382e <__fpclassifyl+0x43>
  40381e:	31 c0                	xor    %eax,%eax
  403820:	48 01 d2             	add    %rdx,%rdx
  403823:	0f 94 c0             	sete   %al
  403826:	c3                   	ret
  403827:	89 c8                	mov    %ecx,%eax
  403829:	f7 d8                	neg    %eax
  40382b:	83 e0 04             	and    $0x4,%eax
  40382e:	c3                   	ret

000000000040382f <__signbitl>:
  40382f:	8b 44 24 10          	mov    0x10(%rsp),%eax
  403833:	66 c1 e8 0f          	shr    $0xf,%ax
  403837:	0f b7 c0             	movzwl %ax,%eax
  40383a:	c3                   	ret

000000000040383b <frexpl>:
  40383b:	53                   	push   %rbx
  40383c:	48 83 ec 10          	sub    $0x10,%rsp
  403840:	db 6c 24 20          	fldt   0x20(%rsp)
  403844:	48 8b 44 24 28       	mov    0x28(%rsp),%rax
  403849:	89 c1                	mov    %eax,%ecx
  40384b:	d9 c0                	fld    %st(0)
  40384d:	db 3c 24             	fstpt  (%rsp)
  403850:	66 81 e1 ff 7f       	and    $0x7fff,%cx
  403855:	75 36                	jne    40388d <frexpl+0x52>
  403857:	d9 ee                	fldz
  403859:	d9 c9                	fxch   %st(1)
  40385b:	df e9                	fucomip %st(1),%st
  40385d:	dd d8                	fstp   %st(0)
  40385f:	7a 02                	jp     403863 <frexpl+0x28>
  403861:	74 22                	je     403885 <frexpl+0x4a>
  403863:	db 6c 24 20          	fldt   0x20(%rsp)
  403867:	d8 0d 4f 24 00 00    	fmuls  0x244f(%rip)        # 405cbc <errid+0x5c>
  40386d:	51                   	push   %rcx
  40386e:	48 89 fb             	mov    %rdi,%rbx
  403871:	51                   	push   %rcx
  403872:	db 3c 24             	fstpt  (%rsp)
  403875:	e8 c1 ff ff ff       	call   40383b <frexpl>
  40387a:	83 2b 78             	subl   $0x78,(%rbx)
  40387d:	db 7c 24 30          	fstpt  0x30(%rsp)
  403881:	5e                   	pop    %rsi
  403882:	5f                   	pop    %rdi
  403883:	eb 30                	jmp    4038b5 <frexpl+0x7a>
  403885:	c7 07 00 00 00 00    	movl   $0x0,(%rdi)
  40388b:	eb 28                	jmp    4038b5 <frexpl+0x7a>
  40388d:	dd d8                	fstp   %st(0)
  40388f:	0f b7 d1             	movzwl %cx,%edx
  403892:	66 81 f9 ff 7f       	cmp    $0x7fff,%cx
  403897:	74 1c                	je     4038b5 <frexpl+0x7a>
  403899:	66 25 00 80          	and    $0x8000,%ax
  40389d:	81 ea fe 3f 00 00    	sub    $0x3ffe,%edx
  4038a3:	66 0d fe 3f          	or     $0x3ffe,%ax
  4038a7:	89 17                	mov    %edx,(%rdi)
  4038a9:	66 89 44 24 08       	mov    %ax,0x8(%rsp)
  4038ae:	db 2c 24             	fldt   (%rsp)
  4038b1:	db 7c 24 20          	fstpt  0x20(%rsp)
  4038b5:	db 6c 24 20          	fldt   0x20(%rsp)
  4038b9:	48 83 c4 10          	add    $0x10,%rsp
  4038bd:	5b                   	pop    %rbx
  4038be:	c3                   	ret

00000000004038bf <wctomb>:
  4038bf:	48 85 ff             	test   %rdi,%rdi
  4038c2:	74 0b                	je     4038cf <wctomb+0x10>
  4038c4:	50                   	push   %rax
  4038c5:	31 d2                	xor    %edx,%edx
  4038c7:	67 e8 3b 05 00 00    	addr32 call 403e08 <wcrtomb>
  4038cd:	5a                   	pop    %rdx
  4038ce:	c3                   	ret
  4038cf:	31 c0                	xor    %eax,%eax
  4038d1:	c3                   	ret

00000000004038d2 <__lockfile>:
  4038d2:	8b 8f 8c 00 00 00    	mov    0x8c(%rdi),%ecx
  4038d8:	64 48 8b 04 25 00 00 	mov    %fs:0x0,%rax
  4038df:	00 00 
  4038e1:	8b 50 38             	mov    0x38(%rax),%edx
  4038e4:	81 e1 ff ff ff bf    	and    $0xbfffffff,%ecx
  4038ea:	31 c0                	xor    %eax,%eax
  4038ec:	39 d1                	cmp    %edx,%ecx
  4038ee:	0f 84 87 00 00 00    	je     40397b <__lockfile+0xa9>
  4038f4:	4c 8d 8f 8c 00 00 00 	lea    0x8c(%rdi),%r9
  4038fb:	f0 0f b1 97 8c 00 00 	lock cmpxchg %edx,0x8c(%rdi)
  403902:	00 
  403903:	85 c0                	test   %eax,%eax
  403905:	74 6f                	je     403976 <__lockfile+0xa4>
  403907:	81 ca 00 00 00 40    	or     $0x40000000,%edx
  40390d:	41 54                	push   %r12
  40390f:	41 bc 80 00 00 00    	mov    $0x80,%r12d
  403915:	55                   	push   %rbp
  403916:	41 89 d0             	mov    %edx,%r8d
  403919:	bd ca 00 00 00       	mov    $0xca,%ebp
  40391e:	53                   	push   %rbx
  40391f:	31 db                	xor    %ebx,%ebx
  403921:	89 d8                	mov    %ebx,%eax
  403923:	f0 45 0f b1 01       	lock cmpxchg %r8d,(%r9)
  403928:	89 c1                	mov    %eax,%ecx
  40392a:	85 c0                	test   %eax,%eax
  40392c:	75 0a                	jne    403938 <__lockfile+0x66>
  40392e:	5b                   	pop    %rbx
  40392f:	b8 01 00 00 00       	mov    $0x1,%eax
  403934:	5d                   	pop    %rbp
  403935:	41 5c                	pop    %r12
  403937:	c3                   	ret
  403938:	89 ca                	mov    %ecx,%edx
  40393a:	81 ca 00 00 00 40    	or     $0x40000000,%edx
  403940:	0f ba e1 1e          	bt     $0x1e,%ecx
  403944:	73 23                	jae    403969 <__lockfile+0x97>
  403946:	48 63 d2             	movslq %edx,%rdx
  403949:	45 31 d2             	xor    %r10d,%r10d
  40394c:	48 89 e8             	mov    %rbp,%rax
  40394f:	4c 89 cf             	mov    %r9,%rdi
  403952:	4c 89 e6             	mov    %r12,%rsi
  403955:	0f 05                	syscall
  403957:	48 83 f8 da          	cmp    $0xffffffffffffffda,%rax
  40395b:	75 c4                	jne    403921 <__lockfile+0x4f>
  40395d:	45 31 d2             	xor    %r10d,%r10d
  403960:	31 f6                	xor    %esi,%esi
  403962:	48 89 e8             	mov    %rbp,%rax
  403965:	0f 05                	syscall
  403967:	eb b8                	jmp    403921 <__lockfile+0x4f>
  403969:	89 c8                	mov    %ecx,%eax
  40396b:	f0 41 0f b1 11       	lock cmpxchg %edx,(%r9)
  403970:	39 c8                	cmp    %ecx,%eax
  403972:	75 ad                	jne    403921 <__lockfile+0x4f>
  403974:	eb d0                	jmp    403946 <__lockfile+0x74>
  403976:	b8 01 00 00 00       	mov    $0x1,%eax
  40397b:	c3                   	ret

000000000040397c <__unlockfile>:
  40397c:	4c 8d 8f 8c 00 00 00 	lea    0x8c(%rdi),%r9
  403983:	31 c0                	xor    %eax,%eax
  403985:	87 87 8c 00 00 00    	xchg   %eax,0x8c(%rdi)
  40398b:	0f ba e0 1e          	bt     $0x1e,%eax
  40398f:	73 26                	jae    4039b7 <__unlockfile+0x3b>
  403991:	41 b8 ca 00 00 00    	mov    $0xca,%r8d
  403997:	ba 01 00 00 00       	mov    $0x1,%edx
  40399c:	be 81 00 00 00       	mov    $0x81,%esi
  4039a1:	4c 89 cf             	mov    %r9,%rdi
  4039a4:	4c 89 c0             	mov    %r8,%rax
  4039a7:	0f 05                	syscall
  4039a9:	48 83 f8 da          	cmp    $0xffffffffffffffda,%rax
  4039ad:	75 08                	jne    4039b7 <__unlockfile+0x3b>
  4039af:	4c 89 c0             	mov    %r8,%rax
  4039b2:	48 89 d6             	mov    %rdx,%rsi
  4039b5:	0f 05                	syscall
  4039b7:	c3                   	ret

00000000004039b8 <__overflow>:
  4039b8:	53                   	push   %rbx
  4039b9:	48 89 fb             	mov    %rdi,%rbx
  4039bc:	48 83 ec 10          	sub    $0x10,%rsp
  4039c0:	48 83 7f 20 00       	cmpq   $0x0,0x20(%rdi)
  4039c5:	40 88 74 24 0f       	mov    %sil,0xf(%rsp)
  4039ca:	74 0c                	je     4039d8 <__overflow+0x20>
  4039cc:	48 8b 53 28          	mov    0x28(%rbx),%rdx
  4039d0:	48 3b 53 20          	cmp    0x20(%rbx),%rdx
  4039d4:	75 10                	jne    4039e6 <__overflow+0x2e>
  4039d6:	eb 27                	jmp    4039ff <__overflow+0x47>
  4039d8:	e8 70 01 00 00       	call   403b4d <__towrite>
  4039dd:	85 c0                	test   %eax,%eax
  4039df:	74 eb                	je     4039cc <__overflow+0x14>
  4039e1:	83 c8 ff             	or     $0xffffffff,%eax
  4039e4:	eb 33                	jmp    403a19 <__overflow+0x61>
  4039e6:	0f b6 44 24 0f       	movzbl 0xf(%rsp),%eax
  4039eb:	3b 83 90 00 00 00    	cmp    0x90(%rbx),%eax
  4039f1:	74 0c                	je     4039ff <__overflow+0x47>
  4039f3:	48 8d 72 01          	lea    0x1(%rdx),%rsi
  4039f7:	48 89 73 28          	mov    %rsi,0x28(%rbx)
  4039fb:	88 02                	mov    %al,(%rdx)
  4039fd:	eb 1a                	jmp    403a19 <__overflow+0x61>
  4039ff:	ba 01 00 00 00       	mov    $0x1,%edx
  403a04:	48 8d 74 24 0f       	lea    0xf(%rsp),%rsi
  403a09:	48 89 df             	mov    %rbx,%rdi
  403a0c:	ff 53 48             	call   *0x48(%rbx)
  403a0f:	48 ff c8             	dec    %rax
  403a12:	75 cd                	jne    4039e1 <__overflow+0x29>
  403a14:	0f b6 44 24 0f       	movzbl 0xf(%rsp),%eax
  403a19:	48 83 c4 10          	add    $0x10,%rsp
  403a1d:	5b                   	pop    %rbx
  403a1e:	c3                   	ret

0000000000403a1f <__aio_close>:
  403a1f:	89 f8                	mov    %edi,%eax
  403a21:	c3                   	ret

0000000000403a22 <__stdio_close>:
  403a22:	50                   	push   %rax
  403a23:	8b 7f 78             	mov    0x78(%rdi),%edi
  403a26:	e8 f4 ff ff ff       	call   403a1f <__aio_close>
  403a2b:	48 63 f8             	movslq %eax,%rdi
  403a2e:	b8 03 00 00 00       	mov    $0x3,%eax
  403a33:	0f 05                	syscall
  403a35:	48 89 c7             	mov    %rax,%rdi
  403a38:	e8 a3 03 00 00       	call   403de0 <__syscall_ret>
  403a3d:	5a                   	pop    %rdx
  403a3e:	c3                   	ret

0000000000403a3f <__stdio_read>:
  403a3f:	41 54                	push   %r12
  403a41:	31 c0                	xor    %eax,%eax
  403a43:	49 89 f4             	mov    %rsi,%r12
  403a46:	55                   	push   %rbp
  403a47:	48 89 d5             	mov    %rdx,%rbp
  403a4a:	53                   	push   %rbx
  403a4b:	48 89 e9             	mov    %rbp,%rcx
  403a4e:	48 89 fb             	mov    %rdi,%rbx
  403a51:	48 83 ec 20          	sub    $0x20,%rsp
  403a55:	48 8b 57 60          	mov    0x60(%rdi),%rdx
  403a59:	48 89 34 24          	mov    %rsi,(%rsp)
  403a5d:	48 8b 77 58          	mov    0x58(%rdi),%rsi
  403a61:	48 85 d2             	test   %rdx,%rdx
  403a64:	48 89 54 24 18       	mov    %rdx,0x18(%rsp)
  403a69:	48 63 7f 78          	movslq 0x78(%rdi),%rdi
  403a6d:	0f 95 c0             	setne  %al
  403a70:	48 89 74 24 10       	mov    %rsi,0x10(%rsp)
  403a75:	48 29 c1             	sub    %rax,%rcx
  403a78:	48 89 4c 24 08       	mov    %rcx,0x8(%rsp)
  403a7d:	48 89 c8             	mov    %rcx,%rax
  403a80:	74 0d                	je     403a8f <__stdio_read+0x50>
  403a82:	48 89 e6             	mov    %rsp,%rsi
  403a85:	b8 13 00 00 00       	mov    $0x13,%eax
  403a8a:	ba 02 00 00 00       	mov    $0x2,%edx
  403a8f:	0f 05                	syscall
  403a91:	48 89 c7             	mov    %rax,%rdi
  403a94:	e8 47 03 00 00       	call   403de0 <__syscall_ret>
  403a99:	48 85 c0             	test   %rax,%rax
  403a9c:	7f 12                	jg     403ab0 <__stdio_read+0x71>
  403a9e:	48 83 f8 01          	cmp    $0x1,%rax
  403aa2:	19 c0                	sbb    %eax,%eax
  403aa4:	31 ed                	xor    %ebp,%ebp
  403aa6:	83 e0 f0             	and    $0xfffffff0,%eax
  403aa9:	83 c0 20             	add    $0x20,%eax
  403aac:	09 03                	or     %eax,(%rbx)
  403aae:	eb 37                	jmp    403ae7 <__stdio_read+0xa8>
  403ab0:	48 8b 4c 24 08       	mov    0x8(%rsp),%rcx
  403ab5:	48 39 c1             	cmp    %rax,%rcx
  403ab8:	73 2a                	jae    403ae4 <__stdio_read+0xa5>
  403aba:	48 8b 53 58          	mov    0x58(%rbx),%rdx
  403abe:	48 29 c8             	sub    %rcx,%rax
  403ac1:	48 01 d0             	add    %rdx,%rax
  403ac4:	48 83 7b 60 00       	cmpq   $0x0,0x60(%rbx)
  403ac9:	48 89 53 08          	mov    %rdx,0x8(%rbx)
  403acd:	48 89 43 10          	mov    %rax,0x10(%rbx)
  403ad1:	74 14                	je     403ae7 <__stdio_read+0xa8>
  403ad3:	48 8d 42 01          	lea    0x1(%rdx),%rax
  403ad7:	48 89 43 08          	mov    %rax,0x8(%rbx)
  403adb:	8a 02                	mov    (%rdx),%al
  403add:	41 88 44 2c ff       	mov    %al,-0x1(%r12,%rbp,1)
  403ae2:	eb 03                	jmp    403ae7 <__stdio_read+0xa8>
  403ae4:	48 89 c5             	mov    %rax,%rbp
  403ae7:	48 83 c4 20          	add    $0x20,%rsp
  403aeb:	48 89 e8             	mov    %rbp,%rax
  403aee:	5b                   	pop    %rbx
  403aef:	5d                   	pop    %rbp
  403af0:	41 5c                	pop    %r12
  403af2:	c3                   	ret

0000000000403af3 <__stdio_seek>:
  403af3:	8b 7f 78             	mov    0x78(%rdi),%edi
  403af6:	e9 ca 02 00 00       	jmp    403dc5 <__lseek>

0000000000403afb <__stdout_write>:
  403afb:	48 83 ec 18          	sub    $0x18,%rsp
  403aff:	49 89 f8             	mov    %rdi,%r8
  403b02:	49 89 f1             	mov    %rsi,%r9
  403b05:	49 89 d2             	mov    %rdx,%r10
  403b08:	48 c7 47 48 a6 3f 40 	movq   $0x403fa6,0x48(%rdi)
  403b0f:	00 
  403b10:	f6 07 40             	testb  $0x40,(%rdi)
  403b13:	75 25                	jne    403b3a <__stdout_write+0x3f>
  403b15:	48 63 7f 78          	movslq 0x78(%rdi),%rdi
  403b19:	48 8d 54 24 08       	lea    0x8(%rsp),%rdx
  403b1e:	b8 10 00 00 00       	mov    $0x10,%eax
  403b23:	be 13 54 00 00       	mov    $0x5413,%esi
  403b28:	0f 05                	syscall
  403b2a:	48 85 c0             	test   %rax,%rax
  403b2d:	74 0b                	je     403b3a <__stdout_write+0x3f>
  403b2f:	41 c7 80 90 00 00 00 	movl   $0xffffffff,0x90(%r8)
  403b36:	ff ff ff ff 
  403b3a:	4c 89 d2             	mov    %r10,%rdx
  403b3d:	4c 89 ce             	mov    %r9,%rsi
  403b40:	4c 89 c7             	mov    %r8,%rdi
  403b43:	e8 5e 04 00 00       	call   403fa6 <__stdio_write>
  403b48:	48 83 c4 18          	add    $0x18,%rsp
  403b4c:	c3                   	ret

0000000000403b4d <__towrite>:
  403b4d:	8b 97 88 00 00 00    	mov    0x88(%rdi),%edx
  403b53:	8d 42 ff             	lea    -0x1(%rdx),%eax
  403b56:	09 d0                	or     %edx,%eax
  403b58:	89 87 88 00 00 00    	mov    %eax,0x88(%rdi)
  403b5e:	8b 07                	mov    (%rdi),%eax
  403b60:	a8 08                	test   $0x8,%al
  403b62:	74 09                	je     403b6d <__towrite+0x20>
  403b64:	83 c8 20             	or     $0x20,%eax
  403b67:	89 07                	mov    %eax,(%rdi)
  403b69:	83 c8 ff             	or     $0xffffffff,%eax
  403b6c:	c3                   	ret
  403b6d:	48 8b 47 58          	mov    0x58(%rdi),%rax
  403b71:	48 c7 47 10 00 00 00 	movq   $0x0,0x10(%rdi)
  403b78:	00 
  403b79:	48 c7 47 08 00 00 00 	movq   $0x0,0x8(%rdi)
  403b80:	00 
  403b81:	48 89 47 38          	mov    %rax,0x38(%rdi)
  403b85:	48 89 47 28          	mov    %rax,0x28(%rdi)
  403b89:	48 03 47 60          	add    0x60(%rdi),%rax
  403b8d:	48 89 47 20          	mov    %rax,0x20(%rdi)
  403b91:	31 c0                	xor    %eax,%eax
  403b93:	c3                   	ret

0000000000403b94 <__towrite_needs_stdio_exit>:
  403b94:	e9 cc 03 00 00       	jmp    403f65 <__stdio_exit>

0000000000403b99 <__uflow>:
  403b99:	53                   	push   %rbx
  403b9a:	48 89 fb             	mov    %rdi,%rbx
  403b9d:	48 83 ec 10          	sub    $0x10,%rsp
  403ba1:	e8 dd 04 00 00       	call   404083 <__toread>
  403ba6:	85 c0                	test   %eax,%eax
  403ba8:	74 05                	je     403baf <__uflow+0x16>
  403baa:	83 c8 ff             	or     $0xffffffff,%eax
  403bad:	eb 1a                	jmp    403bc9 <__uflow+0x30>
  403baf:	ba 01 00 00 00       	mov    $0x1,%edx
  403bb4:	48 8d 74 24 0f       	lea    0xf(%rsp),%rsi
  403bb9:	48 89 df             	mov    %rbx,%rdi
  403bbc:	ff 53 40             	call   *0x40(%rbx)
  403bbf:	48 ff c8             	dec    %rax
  403bc2:	75 e6                	jne    403baa <__uflow+0x11>
  403bc4:	0f b6 44 24 0f       	movzbl 0xf(%rsp),%eax
  403bc9:	48 83 c4 10          	add    $0x10,%rsp
  403bcd:	5b                   	pop    %rbx
  403bce:	c3                   	ret

0000000000403bcf <fputs>:
  403bcf:	41 54                	push   %r12
  403bd1:	49 89 f4             	mov    %rsi,%r12
  403bd4:	55                   	push   %rbp
  403bd5:	48 89 fd             	mov    %rdi,%rbp
  403bd8:	53                   	push   %rbx
  403bd9:	67 e8 61 01 00 00    	addr32 call 403d40 <strlen>
  403bdf:	4c 89 e1             	mov    %r12,%rcx
  403be2:	48 89 ef             	mov    %rbp,%rdi
  403be5:	be 01 00 00 00       	mov    $0x1,%esi
  403bea:	48 89 c2             	mov    %rax,%rdx
  403bed:	48 89 c3             	mov    %rax,%rbx
  403bf0:	67 e8 c0 00 00 00    	addr32 call 403cb6 <fwrite>
  403bf6:	48 39 d8             	cmp    %rbx,%rax
  403bf9:	5b                   	pop    %rbx
  403bfa:	5d                   	pop    %rbp
  403bfb:	0f 95 c0             	setne  %al
  403bfe:	41 5c                	pop    %r12
  403c00:	0f b6 c0             	movzbl %al,%eax
  403c03:	f7 d8                	neg    %eax
  403c05:	c3                   	ret

0000000000403c06 <__fwritex>:
  403c06:	41 55                	push   %r13
  403c08:	49 89 fd             	mov    %rdi,%r13
  403c0b:	41 54                	push   %r12
  403c0d:	49 89 f4             	mov    %rsi,%r12
  403c10:	55                   	push   %rbp
  403c11:	53                   	push   %rbx
  403c12:	48 89 d3             	mov    %rdx,%rbx
  403c15:	41 50                	push   %r8
  403c17:	48 83 7a 20 00       	cmpq   $0x0,0x20(%rdx)
  403c1c:	74 23                	je     403c41 <__fwritex+0x3b>
  403c1e:	48 8b 43 20          	mov    0x20(%rbx),%rax
  403c22:	48 2b 43 28          	sub    0x28(%rbx),%rax
  403c26:	4c 39 e0             	cmp    %r12,%rax
  403c29:	73 26                	jae    403c51 <__fwritex+0x4b>
  403c2b:	48 8b 43 48          	mov    0x48(%rbx),%rax
  403c2f:	4c 89 e2             	mov    %r12,%rdx
  403c32:	59                   	pop    %rcx
  403c33:	4c 89 ee             	mov    %r13,%rsi
  403c36:	48 89 df             	mov    %rbx,%rdi
  403c39:	5b                   	pop    %rbx
  403c3a:	5d                   	pop    %rbp
  403c3b:	41 5c                	pop    %r12
  403c3d:	41 5d                	pop    %r13
  403c3f:	ff e0                	jmp    *%rax
  403c41:	48 89 d7             	mov    %rdx,%rdi
  403c44:	e8 04 ff ff ff       	call   403b4d <__towrite>
  403c49:	85 c0                	test   %eax,%eax
  403c4b:	74 d1                	je     403c1e <__fwritex+0x18>
  403c4d:	31 c0                	xor    %eax,%eax
  403c4f:	eb 5d                	jmp    403cae <__fwritex+0xa8>
  403c51:	83 bb 90 00 00 00 00 	cmpl   $0x0,0x90(%rbx)
  403c58:	4c 89 e5             	mov    %r12,%rbp
  403c5b:	78 19                	js     403c76 <__fwritex+0x70>
  403c5d:	48 85 ed             	test   %rbp,%rbp
  403c60:	74 11                	je     403c73 <__fwritex+0x6d>
  403c62:	41 80 7c 2d ff 0a    	cmpb   $0xa,-0x1(%r13,%rbp,1)
  403c68:	48 8d 45 ff          	lea    -0x1(%rbp),%rax
  403c6c:	74 21                	je     403c8f <__fwritex+0x89>
  403c6e:	48 89 c5             	mov    %rax,%rbp
  403c71:	eb ea                	jmp    403c5d <__fwritex+0x57>
  403c73:	4c 89 e5             	mov    %r12,%rbp
  403c76:	48 8b 7b 28          	mov    0x28(%rbx),%rdi
  403c7a:	48 89 ea             	mov    %rbp,%rdx
  403c7d:	4c 89 ee             	mov    %r13,%rsi
  403c80:	67 e8 48 f6 ff ff    	addr32 call 4032ce <memcpy>
  403c86:	48 01 6b 28          	add    %rbp,0x28(%rbx)
  403c8a:	4c 89 e0             	mov    %r12,%rax
  403c8d:	eb 1f                	jmp    403cae <__fwritex+0xa8>
  403c8f:	48 89 ea             	mov    %rbp,%rdx
  403c92:	4c 89 ee             	mov    %r13,%rsi
  403c95:	48 89 df             	mov    %rbx,%rdi
  403c98:	ff 53 48             	call   *0x48(%rbx)
  403c9b:	48 39 c5             	cmp    %rax,%rbp
  403c9e:	77 0e                	ja     403cae <__fwritex+0xa8>
  403ca0:	4c 89 e0             	mov    %r12,%rax
  403ca3:	49 01 ed             	add    %rbp,%r13
  403ca6:	48 29 e8             	sub    %rbp,%rax
  403ca9:	48 89 c5             	mov    %rax,%rbp
  403cac:	eb c8                	jmp    403c76 <__fwritex+0x70>
  403cae:	5a                   	pop    %rdx
  403caf:	5b                   	pop    %rbx
  403cb0:	5d                   	pop    %rbp
  403cb1:	41 5c                	pop    %r12
  403cb3:	41 5d                	pop    %r13
  403cb5:	c3                   	ret

0000000000403cb6 <fwrite>:
  403cb6:	41 57                	push   %r15
  403cb8:	b8 00 00 00 00       	mov    $0x0,%eax
  403cbd:	41 56                	push   %r14
  403cbf:	49 89 f6             	mov    %rsi,%r14
  403cc2:	41 55                	push   %r13
  403cc4:	4c 0f af f2          	imul   %rdx,%r14
  403cc8:	48 85 f6             	test   %rsi,%rsi
  403ccb:	49 89 cd             	mov    %rcx,%r13
  403cce:	41 54                	push   %r12
  403cd0:	49 89 fc             	mov    %rdi,%r12
  403cd3:	55                   	push   %rbp
  403cd4:	48 89 f5             	mov    %rsi,%rbp
  403cd7:	53                   	push   %rbx
  403cd8:	48 89 d3             	mov    %rdx,%rbx
  403cdb:	48 0f 44 d8          	cmove  %rax,%rbx
  403cdf:	41 50                	push   %r8
  403ce1:	8b 81 8c 00 00 00    	mov    0x8c(%rcx),%eax
  403ce7:	45 31 ff             	xor    %r15d,%r15d
  403cea:	85 c0                	test   %eax,%eax
  403cec:	78 0b                	js     403cf9 <fwrite+0x43>
  403cee:	48 89 cf             	mov    %rcx,%rdi
  403cf1:	e8 dc fb ff ff       	call   4038d2 <__lockfile>
  403cf6:	41 89 c7             	mov    %eax,%r15d
  403cf9:	4c 89 e7             	mov    %r12,%rdi
  403cfc:	4c 89 ea             	mov    %r13,%rdx
  403cff:	4c 89 f6             	mov    %r14,%rsi
  403d02:	e8 ff fe ff ff       	call   403c06 <__fwritex>
  403d07:	49 89 c4             	mov    %rax,%r12
  403d0a:	45 85 ff             	test   %r15d,%r15d
  403d0d:	74 08                	je     403d17 <fwrite+0x61>
  403d0f:	4c 89 ef             	mov    %r13,%rdi
  403d12:	e8 65 fc ff ff       	call   40397c <__unlockfile>
  403d17:	4d 39 e6             	cmp    %r12,%r14
  403d1a:	74 0b                	je     403d27 <fwrite+0x71>
  403d1c:	4c 89 e0             	mov    %r12,%rax
  403d1f:	31 d2                	xor    %edx,%edx
  403d21:	48 f7 f5             	div    %rbp
  403d24:	48 89 c3             	mov    %rax,%rbx
  403d27:	5a                   	pop    %rdx
  403d28:	48 89 d8             	mov    %rbx,%rax
  403d2b:	5b                   	pop    %rbx
  403d2c:	5d                   	pop    %rbp
  403d2d:	41 5c                	pop    %r12
  403d2f:	41 5d                	pop    %r13
  403d31:	41 5e                	pop    %r14
  403d33:	41 5f                	pop    %r15
  403d35:	c3                   	ret
  403d36:	66 2e 0f 1f 84 00 00 	cs nopw 0x0(%rax,%rax,1)
  403d3d:	00 00 00 

0000000000403d40 <strlen>:
  403d40:	40 f6 c7 07          	test   $0x7,%dil
  403d44:	74 67                	je     403dad <strlen+0x6d>
  403d46:	80 3f 00             	cmpb   $0x0,(%rdi)
  403d49:	74 67                	je     403db2 <strlen+0x72>
  403d4b:	48 89 f8             	mov    %rdi,%rax
  403d4e:	eb 05                	jmp    403d55 <strlen+0x15>
  403d50:	80 38 00             	cmpb   $0x0,(%rax)
  403d53:	74 54                	je     403da9 <strlen+0x69>
  403d55:	48 83 c0 01          	add    $0x1,%rax
  403d59:	a8 07                	test   $0x7,%al
  403d5b:	75 f3                	jne    403d50 <strlen+0x10>
  403d5d:	49 b8 ff fe fe fe fe 	movabs $0xfefefefefefefeff,%r8
  403d64:	fe fe fe 
  403d67:	48 8b 10             	mov    (%rax),%rdx
  403d6a:	48 be 80 80 80 80 80 	movabs $0x8080808080808080,%rsi
  403d71:	80 80 80 
  403d74:	4a 8d 0c 02          	lea    (%rdx,%r8,1),%rcx
  403d78:	48 f7 d2             	not    %rdx
  403d7b:	48 21 ca             	and    %rcx,%rdx
  403d7e:	48 85 f2             	test   %rsi,%rdx
  403d81:	75 21                	jne    403da4 <strlen+0x64>
  403d83:	0f 1f 44 00 00       	nopl   0x0(%rax,%rax,1)
  403d88:	48 83 c0 08          	add    $0x8,%rax
  403d8c:	48 8b 10             	mov    (%rax),%rdx
  403d8f:	4a 8d 0c 02          	lea    (%rdx,%r8,1),%rcx
  403d93:	48 f7 d2             	not    %rdx
  403d96:	48 21 ca             	and    %rcx,%rdx
  403d99:	48 85 f2             	test   %rsi,%rdx
  403d9c:	74 ea                	je     403d88 <strlen+0x48>
  403d9e:	eb 04                	jmp    403da4 <strlen+0x64>
  403da0:	48 83 c0 01          	add    $0x1,%rax
  403da4:	80 38 00             	cmpb   $0x0,(%rax)
  403da7:	75 f7                	jne    403da0 <strlen+0x60>
  403da9:	48 29 f8             	sub    %rdi,%rax
  403dac:	c3                   	ret
  403dad:	48 89 f8             	mov    %rdi,%rax
  403db0:	eb ab                	jmp    403d5d <strlen+0x1d>
  403db2:	31 c0                	xor    %eax,%eax
  403db4:	c3                   	ret

0000000000403db5 <__set_thread_area>:
  403db5:	48 89 fe             	mov    %rdi,%rsi
  403db8:	bf 02 10 00 00       	mov    $0x1002,%edi
  403dbd:	b8 9e 00 00 00       	mov    $0x9e,%eax
  403dc2:	0f 05                	syscall
  403dc4:	c3                   	ret

0000000000403dc5 <__lseek>:
  403dc5:	48 63 ff             	movslq %edi,%rdi
  403dc8:	48 63 d2             	movslq %edx,%rdx
  403dcb:	b8 08 00 00 00       	mov    $0x8,%eax
  403dd0:	0f 05                	syscall
  403dd2:	48 89 c7             	mov    %rax,%rdi
  403dd5:	e9 06 00 00 00       	jmp    403de0 <__syscall_ret>
  403dda:	66 0f 1f 44 00 00    	nopw   0x0(%rax,%rax,1)

0000000000403de0 <__syscall_ret>:
  403de0:	48 81 ff 00 f0 ff ff 	cmp    $0xfffffffffffff000,%rdi
  403de7:	77 07                	ja     403df0 <__syscall_ret+0x10>
  403de9:	48 89 f8             	mov    %rdi,%rax
  403dec:	c3                   	ret
  403ded:	0f 1f 00             	nopl   (%rax)
  403df0:	53                   	push   %rbx
  403df1:	48 89 fb             	mov    %rdi,%rbx
  403df4:	e8 62 f9 ff ff       	call   40375b <__errno_location>
  403df9:	89 df                	mov    %ebx,%edi
  403dfb:	f7 df                	neg    %edi
  403dfd:	89 38                	mov    %edi,(%rax)
  403dff:	48 c7 c0 ff ff ff ff 	mov    $0xffffffffffffffff,%rax
  403e06:	5b                   	pop    %rbx
  403e07:	c3                   	ret

0000000000403e08 <wcrtomb>:
  403e08:	b8 01 00 00 00       	mov    $0x1,%eax
  403e0d:	48 85 ff             	test   %rdi,%rdi
  403e10:	0f 84 00 01 00 00    	je     403f16 <wcrtomb+0x10e>
  403e16:	83 fe 7f             	cmp    $0x7f,%esi
  403e19:	0f 86 ef 00 00 00    	jbe    403f0e <wcrtomb+0x106>
  403e1f:	51                   	push   %rcx
  403e20:	89 f0                	mov    %esi,%eax
  403e22:	48 89 fa             	mov    %rdi,%rdx
  403e25:	64 48 8b 0c 25 00 00 	mov    %fs:0x0,%rcx
  403e2c:	00 00 
  403e2e:	48 8b 89 b0 00 00 00 	mov    0xb0(%rcx),%rcx
  403e35:	48 83 39 00          	cmpq   $0x0,(%rcx)
  403e39:	75 1b                	jne    403e56 <wcrtomb+0x4e>
  403e3b:	2d 80 df 00 00       	sub    $0xdf80,%eax
  403e40:	83 f8 7f             	cmp    $0x7f,%eax
  403e43:	0f 87 b4 00 00 00    	ja     403efd <wcrtomb+0xf5>
  403e49:	40 88 37             	mov    %sil,(%rdi)
  403e4c:	b8 01 00 00 00       	mov    $0x1,%eax
  403e51:	e9 b6 00 00 00       	jmp    403f0c <wcrtomb+0x104>
  403e56:	81 fe ff 07 00 00    	cmp    $0x7ff,%esi
  403e5c:	77 1d                	ja     403e7b <wcrtomb+0x73>
  403e5e:	89 f1                	mov    %esi,%ecx
  403e60:	83 e0 3f             	and    $0x3f,%eax
  403e63:	c1 f9 06             	sar    $0x6,%ecx
  403e66:	83 c8 80             	or     $0xffffff80,%eax
  403e69:	83 c9 c0             	or     $0xffffffc0,%ecx
  403e6c:	88 47 01             	mov    %al,0x1(%rdi)
  403e6f:	b8 02 00 00 00       	mov    $0x2,%eax
  403e74:	88 0f                	mov    %cl,(%rdi)
  403e76:	e9 91 00 00 00       	jmp    403f0c <wcrtomb+0x104>
  403e7b:	8d 8e 00 20 ff ff    	lea    -0xe000(%rsi),%ecx
  403e81:	81 f9 ff 1f 00 00    	cmp    $0x1fff,%ecx
  403e87:	76 08                	jbe    403e91 <wcrtomb+0x89>
  403e89:	81 fe ff d7 00 00    	cmp    $0xd7ff,%esi
  403e8f:	77 28                	ja     403eb9 <wcrtomb+0xb1>
  403e91:	89 c1                	mov    %eax,%ecx
  403e93:	c1 f9 0c             	sar    $0xc,%ecx
  403e96:	83 c9 e0             	or     $0xffffffe0,%ecx
  403e99:	88 0a                	mov    %cl,(%rdx)
  403e9b:	89 c1                	mov    %eax,%ecx
  403e9d:	83 e0 3f             	and    $0x3f,%eax
  403ea0:	c1 f9 06             	sar    $0x6,%ecx
  403ea3:	83 c8 80             	or     $0xffffff80,%eax
  403ea6:	83 e1 3f             	and    $0x3f,%ecx
  403ea9:	88 42 02             	mov    %al,0x2(%rdx)
  403eac:	b8 03 00 00 00       	mov    $0x3,%eax
  403eb1:	83 c9 80             	or     $0xffffff80,%ecx
  403eb4:	88 4a 01             	mov    %cl,0x1(%rdx)
  403eb7:	eb 53                	jmp    403f0c <wcrtomb+0x104>
  403eb9:	8d 8e 00 00 ff ff    	lea    -0x10000(%rsi),%ecx
  403ebf:	81 f9 ff ff 0f 00    	cmp    $0xfffff,%ecx
  403ec5:	77 36                	ja     403efd <wcrtomb+0xf5>
  403ec7:	89 f1                	mov    %esi,%ecx
  403ec9:	83 e0 3f             	and    $0x3f,%eax
  403ecc:	c1 f9 12             	sar    $0x12,%ecx
  403ecf:	83 c8 80             	or     $0xffffff80,%eax
  403ed2:	83 c9 f0             	or     $0xfffffff0,%ecx
  403ed5:	88 47 03             	mov    %al,0x3(%rdi)
  403ed8:	b8 04 00 00 00       	mov    $0x4,%eax
  403edd:	88 0f                	mov    %cl,(%rdi)
  403edf:	89 f1                	mov    %esi,%ecx
  403ee1:	c1 f9 0c             	sar    $0xc,%ecx
  403ee4:	83 e1 3f             	and    $0x3f,%ecx
  403ee7:	83 c9 80             	or     $0xffffff80,%ecx
  403eea:	88 4f 01             	mov    %cl,0x1(%rdi)
  403eed:	89 f1                	mov    %esi,%ecx
  403eef:	c1 f9 06             	sar    $0x6,%ecx
  403ef2:	83 e1 3f             	and    $0x3f,%ecx
  403ef5:	83 c9 80             	or     $0xffffff80,%ecx
  403ef8:	88 4f 02             	mov    %cl,0x2(%rdi)
  403efb:	eb 0f                	jmp    403f0c <wcrtomb+0x104>
  403efd:	e8 59 f8 ff ff       	call   40375b <__errno_location>
  403f02:	c7 00 54 00 00 00    	movl   $0x54,(%rax)
  403f08:	48 83 c8 ff          	or     $0xffffffffffffffff,%rax
  403f0c:	5a                   	pop    %rdx
  403f0d:	c3                   	ret
  403f0e:	40 88 37             	mov    %sil,(%rdi)
  403f11:	b8 01 00 00 00       	mov    $0x1,%eax
  403f16:	c3                   	ret

0000000000403f17 <close_file>:
  403f17:	48 85 ff             	test   %rdi,%rdi
  403f1a:	74 48                	je     403f64 <close_file+0x4d>
  403f1c:	53                   	push   %rbx
  403f1d:	8b 87 8c 00 00 00    	mov    0x8c(%rdi),%eax
  403f23:	48 89 fb             	mov    %rdi,%rbx
  403f26:	85 c0                	test   %eax,%eax
  403f28:	78 05                	js     403f2f <close_file+0x18>
  403f2a:	e8 a3 f9 ff ff       	call   4038d2 <__lockfile>
  403f2f:	48 8b 43 38          	mov    0x38(%rbx),%rax
  403f33:	48 39 43 28          	cmp    %rax,0x28(%rbx)
  403f37:	74 0a                	je     403f43 <close_file+0x2c>
  403f39:	31 d2                	xor    %edx,%edx
  403f3b:	31 f6                	xor    %esi,%esi
  403f3d:	48 89 df             	mov    %rbx,%rdi
  403f40:	ff 53 48             	call   *0x48(%rbx)
  403f43:	48 8b 73 08          	mov    0x8(%rbx),%rsi
  403f47:	48 8b 43 10          	mov    0x10(%rbx),%rax
  403f4b:	48 39 c6             	cmp    %rax,%rsi
  403f4e:	74 12                	je     403f62 <close_file+0x4b>
  403f50:	48 29 c6             	sub    %rax,%rsi
  403f53:	48 89 df             	mov    %rbx,%rdi
  403f56:	48 8b 43 50          	mov    0x50(%rbx),%rax
  403f5a:	ba 01 00 00 00       	mov    $0x1,%edx
  403f5f:	5b                   	pop    %rbx
  403f60:	ff e0                	jmp    *%rax
  403f62:	5b                   	pop    %rbx
  403f63:	c3                   	ret
  403f64:	c3                   	ret

0000000000403f65 <__stdio_exit>:
  403f65:	53                   	push   %rbx
  403f66:	e8 d1 d7 ff ff       	call   40173c <__ofl_lock>
  403f6b:	48 8b 18             	mov    (%rax),%rbx
  403f6e:	48 85 db             	test   %rbx,%rbx
  403f71:	74 0e                	je     403f81 <__stdio_exit+0x1c>
  403f73:	48 89 df             	mov    %rbx,%rdi
  403f76:	e8 9c ff ff ff       	call   403f17 <close_file>
  403f7b:	48 8b 5b 70          	mov    0x70(%rbx),%rbx
  403f7f:	eb ed                	jmp    403f6e <__stdio_exit+0x9>
  403f81:	48 8b 3d 88 30 00 00 	mov    0x3088(%rip),%rdi        # 407010 <__stdin_used>
  403f88:	e8 8a ff ff ff       	call   403f17 <close_file>
  403f8d:	48 8b 3d 74 31 00 00 	mov    0x3174(%rip),%rdi        # 407108 <__stdout_used>
  403f94:	e8 7e ff ff ff       	call   403f17 <close_file>
  403f99:	48 8b 3d e0 32 00 00 	mov    0x32e0(%rip),%rdi        # 407280 <__stderr_used>
  403fa0:	5b                   	pop    %rbx
  403fa1:	e9 71 ff ff ff       	jmp    403f17 <close_file>

0000000000403fa6 <__stdio_write>:
  403fa6:	41 57                	push   %r15
  403fa8:	41 bf 14 00 00 00    	mov    $0x14,%r15d
  403fae:	41 56                	push   %r14
  403fb0:	41 be 02 00 00 00    	mov    $0x2,%r14d
  403fb6:	41 55                	push   %r13
  403fb8:	49 89 d5             	mov    %rdx,%r13
  403fbb:	41 54                	push   %r12
  403fbd:	55                   	push   %rbp
  403fbe:	53                   	push   %rbx
  403fbf:	48 89 fb             	mov    %rdi,%rbx
  403fc2:	48 83 ec 28          	sub    $0x28,%rsp
  403fc6:	48 8b 47 38          	mov    0x38(%rdi),%rax
  403fca:	4c 8b 67 28          	mov    0x28(%rdi),%r12
  403fce:	48 89 74 24 10       	mov    %rsi,0x10(%rsp)
  403fd3:	48 89 e5             	mov    %rsp,%rbp
  403fd6:	48 89 04 24          	mov    %rax,(%rsp)
  403fda:	49 29 c4             	sub    %rax,%r12
  403fdd:	48 89 54 24 18       	mov    %rdx,0x18(%rsp)
  403fe2:	4c 89 64 24 08       	mov    %r12,0x8(%rsp)
  403fe7:	49 01 d4             	add    %rdx,%r12
  403fea:	48 63 7b 78          	movslq 0x78(%rbx),%rdi
  403fee:	49 63 d6             	movslq %r14d,%rdx
  403ff1:	4c 89 f8             	mov    %r15,%rax
  403ff4:	48 89 ee             	mov    %rbp,%rsi
  403ff7:	0f 05                	syscall
  403ff9:	48 89 c7             	mov    %rax,%rdi
  403ffc:	e8 df fd ff ff       	call   403de0 <__syscall_ret>
  404001:	49 39 c4             	cmp    %rax,%r12
  404004:	75 19                	jne    40401f <__stdio_write+0x79>
  404006:	48 8b 43 58          	mov    0x58(%rbx),%rax
  40400a:	48 8b 53 60          	mov    0x60(%rbx),%rdx
  40400e:	48 01 c2             	add    %rax,%rdx
  404011:	48 89 43 38          	mov    %rax,0x38(%rbx)
  404015:	48 89 53 20          	mov    %rdx,0x20(%rbx)
  404019:	48 89 43 28          	mov    %rax,0x28(%rbx)
  40401d:	eb 52                	jmp    404071 <__stdio_write+0xcb>
  40401f:	48 85 c0             	test   %rax,%rax
  404022:	79 27                	jns    40404b <__stdio_write+0xa5>
  404024:	48 c7 43 20 00 00 00 	movq   $0x0,0x20(%rbx)
  40402b:	00 
  40402c:	48 c7 43 38 00 00 00 	movq   $0x0,0x38(%rbx)
  404033:	00 
  404034:	48 c7 43 28 00 00 00 	movq   $0x0,0x28(%rbx)
  40403b:	00 
  40403c:	83 0b 20             	orl    $0x20,(%rbx)
  40403f:	41 83 fe 02          	cmp    $0x2,%r14d
  404043:	74 29                	je     40406e <__stdio_write+0xc8>
  404045:	4c 2b 6d 08          	sub    0x8(%rbp),%r13
  404049:	eb 26                	jmp    404071 <__stdio_write+0xcb>
  40404b:	48 8b 55 08          	mov    0x8(%rbp),%rdx
  40404f:	49 29 c4             	sub    %rax,%r12
  404052:	48 39 d0             	cmp    %rdx,%rax
  404055:	76 0a                	jbe    404061 <__stdio_write+0xbb>
  404057:	48 29 d0             	sub    %rdx,%rax
  40405a:	48 83 c5 10          	add    $0x10,%rbp
  40405e:	41 ff ce             	dec    %r14d
  404061:	48 01 45 00          	add    %rax,0x0(%rbp)
  404065:	48 29 45 08          	sub    %rax,0x8(%rbp)
  404069:	e9 7c ff ff ff       	jmp    403fea <__stdio_write+0x44>
  40406e:	45 31 ed             	xor    %r13d,%r13d
  404071:	48 83 c4 28          	add    $0x28,%rsp
  404075:	4c 89 e8             	mov    %r13,%rax
  404078:	5b                   	pop    %rbx
  404079:	5d                   	pop    %rbp
  40407a:	41 5c                	pop    %r12
  40407c:	41 5d                	pop    %r13
  40407e:	41 5e                	pop    %r14
  404080:	41 5f                	pop    %r15
  404082:	c3                   	ret

0000000000404083 <__toread>:
  404083:	8b 97 88 00 00 00    	mov    0x88(%rdi),%edx
  404089:	53                   	push   %rbx
  40408a:	48 89 fb             	mov    %rdi,%rbx
  40408d:	8d 42 ff             	lea    -0x1(%rdx),%eax
  404090:	09 d0                	or     %edx,%eax
  404092:	89 87 88 00 00 00    	mov    %eax,0x88(%rdi)
  404098:	48 8b 47 38          	mov    0x38(%rdi),%rax
  40409c:	48 39 47 28          	cmp    %rax,0x28(%rdi)
  4040a0:	74 07                	je     4040a9 <__toread+0x26>
  4040a2:	31 d2                	xor    %edx,%edx
  4040a4:	31 f6                	xor    %esi,%esi
  4040a6:	ff 57 48             	call   *0x48(%rdi)
  4040a9:	8b 03                	mov    (%rbx),%eax
  4040ab:	48 c7 43 20 00 00 00 	movq   $0x0,0x20(%rbx)
  4040b2:	00 
  4040b3:	48 c7 43 38 00 00 00 	movq   $0x0,0x38(%rbx)
  4040ba:	00 
  4040bb:	48 c7 43 28 00 00 00 	movq   $0x0,0x28(%rbx)
  4040c2:	00 
  4040c3:	a8 04                	test   $0x4,%al
  4040c5:	74 0a                	je     4040d1 <__toread+0x4e>
  4040c7:	83 c8 20             	or     $0x20,%eax
  4040ca:	89 03                	mov    %eax,(%rbx)
  4040cc:	83 c8 ff             	or     $0xffffffff,%eax
  4040cf:	eb 16                	jmp    4040e7 <__toread+0x64>
  4040d1:	48 8b 53 60          	mov    0x60(%rbx),%rdx
  4040d5:	48 03 53 58          	add    0x58(%rbx),%rdx
  4040d9:	c1 e0 1b             	shl    $0x1b,%eax
  4040dc:	48 89 53 10          	mov    %rdx,0x10(%rbx)
  4040e0:	c1 f8 1f             	sar    $0x1f,%eax
  4040e3:	48 89 53 08          	mov    %rdx,0x8(%rbx)
  4040e7:	5b                   	pop    %rbx
  4040e8:	c3                   	ret

00000000004040e9 <__toread_needs_stdio_exit>:
  4040e9:	e9 77 fe ff ff       	jmp    403f65 <__stdio_exit>

00000000004040ee <__do_global_ctors_aux>:
  4040ee:	55                   	push   %rbp
  4040ef:	48 89 e5             	mov    %rsp,%rbp
  4040f2:	53                   	push   %rbx
  4040f3:	bb e0 6f 40 00       	mov    $0x406fe0,%ebx
  4040f8:	52                   	push   %rdx
  4040f9:	48 8b 03             	mov    (%rbx),%rax
  4040fc:	48 83 f8 ff          	cmp    $0xffffffffffffffff,%rax
  404100:	74 08                	je     40410a <__do_global_ctors_aux+0x1c>
  404102:	ff d0                	call   *%rax
  404104:	48 83 eb 08          	sub    $0x8,%rbx
  404108:	eb ef                	jmp    4040f9 <__do_global_ctors_aux+0xb>
  40410a:	58                   	pop    %rax
  40410b:	5b                   	pop    %rbx
  40410c:	5d                   	pop    %rbp
  40410d:	c3                   	ret

Disassembly of section .fini:

000000000040410e <_fini>:
  40410e:	50                   	push   %rax
  40410f:	e8 53 cf ff ff       	call   401067 <__do_global_dtors_aux>
  404114:	58                   	pop    %rax
  404115:	c3                   	ret
