
service-reveng2:     file format elf64-x86-64


Disassembly of section .init:

0000000000401000 <_init>:
  401000:	50                   	push   %rax
  401001:	e8 c7 00 00 00       	call   4010cd <frame_dummy>
  401006:	e8 23 30 00 00       	call   40402e <__do_global_ctors_aux>
  40100b:	58                   	pop    %rax
  40100c:	c3                   	ret

Disassembly of section .text:

0000000000401010 <exit>:
  401010:	53                   	push   %rbx
  401011:	89 fb                	mov    %edi,%ebx
  401013:	e8 64 03 00 00       	call   40137c <__funcs_on_exit>
  401018:	e8 60 03 00 00       	call   40137d <__libc_exit_fini>
  40101d:	31 c0                	xor    %eax,%eax
  40101f:	e8 81 2e 00 00       	call   403ea5 <__stdio_exit>
  401024:	89 df                	mov    %ebx,%edi
  401026:	67 e8 47 27 00 00    	addr32 call 403773 <_Exit>

000000000040102c <_start>:
  40102c:	48 31 ed             	xor    %rbp,%rbp
  40102f:	48 89 e7             	mov    %rsp,%rdi
  401032:	48 8d 35 c7 ef bf ff 	lea    -0x401039(%rip),%rsi        # 0 <_init-0x401000>
  401039:	48 83 e4 f0          	and    $0xfffffffffffffff0,%rsp
  40103d:	e8 00 00 00 00       	call   401042 <_start_c>

0000000000401042 <_start_c>:
  401042:	48 8d 57 08          	lea    0x8(%rdi),%rdx
  401046:	48 8b 37             	mov    (%rdi),%rsi
  401049:	45 31 c9             	xor    %r9d,%r9d
  40104c:	49 c7 c0 4e 40 40 00 	mov    $0x40404e,%r8
  401053:	48 c7 c1 00 10 40 00 	mov    $0x401000,%rcx
  40105a:	48 c7 c7 e7 10 40 00 	mov    $0x4010e7,%rdi
  401061:	e9 e6 02 00 00       	jmp    40134c <__libc_start_main>
  401066:	90                   	nop

0000000000401067 <__do_global_dtors_aux>:
  401067:	80 3d b2 61 00 00 00 	cmpb   $0x0,0x61b2(%rip)        # 407220 <completed.5751>
  40106e:	75 5c                	jne    4010cc <__do_global_dtors_aux+0x65>
  401070:	55                   	push   %rbp
  401071:	48 89 e5             	mov    %rsp,%rbp
  401074:	41 54                	push   %r12
  401076:	41 bc f0 6f 40 00    	mov    $0x406ff0,%r12d
  40107c:	53                   	push   %rbx
  40107d:	bb f8 6f 40 00       	mov    $0x406ff8,%ebx
  401082:	48 81 eb f0 6f 40 00 	sub    $0x406ff0,%rbx
  401089:	48 c1 fb 03          	sar    $0x3,%rbx
  40108d:	48 ff cb             	dec    %rbx
  401090:	48 8b 05 91 61 00 00 	mov    0x6191(%rip),%rax        # 407228 <dtor_idx.5753>
  401097:	48 39 d8             	cmp    %rbx,%rax
  40109a:	73 10                	jae    4010ac <__do_global_dtors_aux+0x45>
  40109c:	48 ff c0             	inc    %rax
  40109f:	48 89 05 82 61 00 00 	mov    %rax,0x6182(%rip)        # 407228 <dtor_idx.5753>
  4010a6:	41 ff 14 c4          	call   *(%r12,%rax,8)
  4010aa:	eb e4                	jmp    401090 <__do_global_dtors_aux+0x29>
  4010ac:	b8 00 00 00 00       	mov    $0x0,%eax
  4010b1:	48 85 c0             	test   %rax,%rax
  4010b4:	74 0a                	je     4010c0 <__do_global_dtors_aux+0x59>
  4010b6:	bf c0 5c 40 00       	mov    $0x405cc0,%edi
  4010bb:	e8 40 ef bf ff       	call   0 <_init-0x401000>
  4010c0:	5b                   	pop    %rbx
  4010c1:	41 5c                	pop    %r12
  4010c3:	c6 05 56 61 00 00 01 	movb   $0x1,0x6156(%rip)        # 407220 <completed.5751>
  4010ca:	5d                   	pop    %rbp
  4010cb:	c3                   	ret
  4010cc:	c3                   	ret

00000000004010cd <frame_dummy>:
  4010cd:	b8 00 00 00 00       	mov    $0x0,%eax
  4010d2:	48 85 c0             	test   %rax,%rax
  4010d5:	74 0f                	je     4010e6 <frame_dummy+0x19>
  4010d7:	be 40 72 40 00       	mov    $0x407240,%esi
  4010dc:	bf c0 5c 40 00       	mov    $0x405cc0,%edi
  4010e1:	e9 1a ef bf ff       	jmp    0 <_init-0x401000>
  4010e6:	c3                   	ret

00000000004010e7 <main>:
  4010e7:	55                   	push   %rbp
  4010e8:	48 89 e5             	mov    %rsp,%rbp
  4010eb:	48 81 ec 10 04 00 00 	sub    $0x410,%rsp
  4010f2:	48 c7 45 f8 0c 50 40 	movq   $0x40500c,-0x8(%rbp)
  4010f9:	00 
  4010fa:	bf 18 50 40 00       	mov    $0x405018,%edi
  4010ff:	b8 00 00 00 00       	mov    $0x0,%eax
  401104:	e8 49 05 00 00       	call   401652 <printf>
  401109:	48 8b 05 28 3f 00 00 	mov    0x3f28(%rip),%rax        # 405038 <stdin>
  401110:	48 89 c7             	mov    %rax,%rdi
  401113:	e8 86 02 00 00       	call   40139e <fflush>
  401118:	48 8b 15 19 3f 00 00 	mov    0x3f19(%rip),%rdx        # 405038 <stdin>
  40111f:	48 8d 85 f0 fb ff ff 	lea    -0x410(%rbp),%rax
  401126:	be 00 04 00 00       	mov    $0x400,%esi
  40112b:	48 89 c7             	mov    %rax,%rdi
  40112e:	e8 a0 03 00 00       	call   4014d3 <fgets>
  401133:	48 8d 85 f0 fb ff ff 	lea    -0x410(%rbp),%rax
  40113a:	48 89 c7             	mov    %rax,%rdi
  40113d:	e8 9e 20 00 00       	call   4031e0 <strlen>
  401142:	48 83 e8 01          	sub    $0x1,%rax
  401146:	c6 84 05 f0 fb ff ff 	movb   $0x0,-0x410(%rbp,%rax,1)
  40114d:	00 
  40114e:	48 8d 95 f0 fb ff ff 	lea    -0x410(%rbp),%rdx
  401155:	48 8b 45 f8          	mov    -0x8(%rbp),%rax
  401159:	48 89 d6             	mov    %rdx,%rsi
  40115c:	48 89 c7             	mov    %rax,%rdi
  40115f:	e8 3c 20 00 00       	call   4031a0 <strcmp>
  401164:	85 c0                	test   %eax,%eax
  401166:	75 11                	jne    401179 <main+0x92>
  401168:	48 8b 05 99 5e 00 00 	mov    0x5e99(%rip),%rax        # 407008 <SECRET>
  40116f:	48 89 c7             	mov    %rax,%rdi
  401172:	e8 78 05 00 00       	call   4016ef <puts>
  401177:	eb 0a                	jmp    401183 <main+0x9c>
  401179:	bf 23 50 40 00       	mov    $0x405023,%edi
  40117e:	e8 6c 05 00 00       	call   4016ef <puts>
  401183:	b8 00 00 00 00       	mov    $0x0,%eax
  401188:	c9                   	leave
  401189:	c3                   	ret

000000000040118a <dummy>:
  40118a:	c3                   	ret

000000000040118b <dummy1>:
  40118b:	c3                   	ret

000000000040118c <__init_libc>:
  40118c:	53                   	push   %rbx
  40118d:	48 89 fa             	mov    %rdi,%rdx
  401190:	31 c0                	xor    %eax,%eax
  401192:	b9 4c 00 00 00       	mov    $0x4c,%ecx
  401197:	48 81 ec 50 01 00 00 	sub    $0x150,%rsp
  40119e:	48 89 15 23 69 00 00 	mov    %rdx,0x6923(%rip)        # 407ac8 <__environ>
  4011a5:	48 8d 7c 24 20       	lea    0x20(%rsp),%rdi
  4011aa:	f3 ab                	rep stos %eax,%es:(%rdi)
  4011ac:	31 c0                	xor    %eax,%eax
  4011ae:	48 8b 0c c2          	mov    (%rdx,%rax,8),%rcx
  4011b2:	48 ff c0             	inc    %rax
  4011b5:	48 85 c9             	test   %rcx,%rcx
  4011b8:	75 f4                	jne    4011ae <__init_libc+0x22>
  4011ba:	48 8d 04 c2          	lea    (%rdx,%rax,8),%rax
  4011be:	48 89 05 03 6b 00 00 	mov    %rax,0x6b03(%rip)        # 407cc8 <__libc+0x8>
  4011c5:	48 8b 18             	mov    (%rax),%rbx
  4011c8:	48 85 db             	test   %rbx,%rbx
  4011cb:	74 15                	je     4011e2 <__init_libc+0x56>
  4011cd:	48 83 fb 25          	cmp    $0x25,%rbx
  4011d1:	77 09                	ja     4011dc <__init_libc+0x50>
  4011d3:	48 8b 50 08          	mov    0x8(%rax),%rdx
  4011d7:	48 89 54 dc 20       	mov    %rdx,0x20(%rsp,%rbx,8)
  4011dc:	48 83 c0 10          	add    $0x10,%rax
  4011e0:	eb e3                	jmp    4011c5 <__init_libc+0x39>
  4011e2:	48 8b 84 24 a0 00 00 	mov    0xa0(%rsp),%rax
  4011e9:	00 
  4011ea:	48 89 05 af 6a 00 00 	mov    %rax,0x6aaf(%rip)        # 407ca0 <__hwcap>
  4011f1:	48 8b 84 24 20 01 00 	mov    0x120(%rsp),%rax
  4011f8:	00 
  4011f9:	48 85 c0             	test   %rax,%rax
  4011fc:	74 07                	je     401205 <__init_libc+0x79>
  4011fe:	48 89 05 8b 6a 00 00 	mov    %rax,0x6a8b(%rip)        # 407c90 <__sysinfo>
  401205:	48 8b 44 24 50       	mov    0x50(%rsp),%rax
  40120a:	48 89 05 df 6a 00 00 	mov    %rax,0x6adf(%rip)        # 407cf0 <__libc+0x30>
  401211:	48 85 f6             	test   %rsi,%rsi
  401214:	75 14                	jne    40122a <__init_libc+0x9e>
  401216:	48 8b b4 24 18 01 00 	mov    0x118(%rsp),%rsi
  40121d:	00 
  40121e:	b8 0d 51 40 00       	mov    $0x40510d,%eax
  401223:	48 85 f6             	test   %rsi,%rsi
  401226:	48 0f 44 f0          	cmove  %rax,%rsi
  40122a:	48 89 35 3f 60 00 00 	mov    %rsi,0x603f(%rip)        # 407270 <__progname_full>
  401231:	48 89 35 40 60 00 00 	mov    %rsi,0x6040(%rip)        # 407278 <__progname>
  401238:	48 ff c6             	inc    %rsi
  40123b:	8a 46 ff             	mov    -0x1(%rsi),%al
  40123e:	84 c0                	test   %al,%al
  401240:	74 06                	je     401248 <__init_libc+0xbc>
  401242:	3c 2f                	cmp    $0x2f,%al
  401244:	75 f2                	jne    401238 <__init_libc+0xac>
  401246:	eb e9                	jmp    401231 <__init_libc+0xa5>
  401248:	48 8d 7c 24 20       	lea    0x20(%rsp),%rdi
  40124d:	e8 01 23 00 00       	call   403553 <__init_tls>
  401252:	48 8b bc 24 e8 00 00 	mov    0xe8(%rsp),%rdi
  401259:	00 
  40125a:	e8 76 24 00 00       	call   4036d5 <__init_ssp>
  40125f:	48 8b 84 24 80 00 00 	mov    0x80(%rsp),%rax
  401266:	00 
  401267:	48 39 44 24 78       	cmp    %rax,0x78(%rsp)
  40126c:	75 1d                	jne    40128b <__init_libc+0xff>
  40126e:	48 8b 84 24 90 00 00 	mov    0x90(%rsp),%rax
  401275:	00 
  401276:	48 39 84 24 88 00 00 	cmp    %rax,0x88(%rsp)
  40127d:	00 
  40127e:	75 0b                	jne    40128b <__init_libc+0xff>
  401280:	48 83 bc 24 d8 00 00 	cmpq   $0x0,0xd8(%rsp)
  401287:	00 00 
  401289:	74 6a                	je     4012f5 <__init_libc+0x169>
  40128b:	ba 06 00 00 00       	mov    $0x6,%edx
  401290:	31 c0                	xor    %eax,%eax
  401292:	48 8d 7c 24 08       	lea    0x8(%rsp),%rdi
  401297:	be 03 00 00 00       	mov    $0x3,%esi
  40129c:	48 89 d1             	mov    %rdx,%rcx
  40129f:	4c 8d 44 24 08       	lea    0x8(%rsp),%r8
  4012a4:	f3 ab                	rep stos %eax,%es:(%rdi)
  4012a6:	c7 44 24 10 01 00 00 	movl   $0x1,0x10(%rsp)
  4012ad:	00 
  4012ae:	b8 07 00 00 00       	mov    $0x7,%eax
  4012b3:	4c 89 c7             	mov    %r8,%rdi
  4012b6:	c7 44 24 18 02 00 00 	movl   $0x2,0x18(%rsp)
  4012bd:	00 
  4012be:	48 89 ca             	mov    %rcx,%rdx
  4012c1:	0f 05                	syscall
  4012c3:	85 c0                	test   %eax,%eax
  4012c5:	79 01                	jns    4012c8 <__init_libc+0x13c>
  4012c7:	f4                   	hlt
  4012c8:	be 02 00 00 00       	mov    $0x2,%esi
  4012cd:	bf 2a 50 40 00       	mov    $0x40502a,%edi
  4012d2:	41 f6 44 d8 06 20    	testb  $0x20,0x6(%r8,%rbx,8)
  4012d8:	74 0b                	je     4012e5 <__init_libc+0x159>
  4012da:	48 89 f0             	mov    %rsi,%rax
  4012dd:	0f 05                	syscall
  4012df:	48 85 c0             	test   %rax,%rax
  4012e2:	79 01                	jns    4012e5 <__init_libc+0x159>
  4012e4:	f4                   	hlt
  4012e5:	48 ff c3             	inc    %rbx
  4012e8:	48 83 fb 03          	cmp    $0x3,%rbx
  4012ec:	75 e4                	jne    4012d2 <__init_libc+0x146>
  4012ee:	c6 05 cd 69 00 00 01 	movb   $0x1,0x69cd(%rip)        # 407cc2 <__libc+0x2>
  4012f5:	48 81 c4 50 01 00 00 	add    $0x150,%rsp
  4012fc:	5b                   	pop    %rbx
  4012fd:	c3                   	ret

00000000004012fe <__libc_start_init>:
  4012fe:	53                   	push   %rbx
  4012ff:	bb e0 6f 40 00       	mov    $0x406fe0,%ebx
  401304:	e8 f7 fc ff ff       	call   401000 <_init>
  401309:	48 81 fb e0 6f 40 00 	cmp    $0x406fe0,%rbx
  401310:	73 08                	jae    40131a <__libc_start_init+0x1c>
  401312:	ff 13                	call   *(%rbx)
  401314:	48 83 c3 08          	add    $0x8,%rbx
  401318:	eb ef                	jmp    401309 <__libc_start_init+0xb>
  40131a:	5b                   	pop    %rbx
  40131b:	c3                   	ret

000000000040131c <libc_start_main_stage2>:
  40131c:	41 55                	push   %r13
  40131e:	41 54                	push   %r12
  401320:	49 89 fc             	mov    %rdi,%r12
  401323:	55                   	push   %rbp
  401324:	48 89 d5             	mov    %rdx,%rbp
  401327:	53                   	push   %rbx
  401328:	50                   	push   %rax
  401329:	48 63 c6             	movslq %esi,%rax
  40132c:	48 89 c3             	mov    %rax,%rbx
  40132f:	4c 8d 6c c2 08       	lea    0x8(%rdx,%rax,8),%r13
  401334:	e8 c5 ff ff ff       	call   4012fe <__libc_start_init>
  401339:	89 df                	mov    %ebx,%edi
  40133b:	4c 89 ea             	mov    %r13,%rdx
  40133e:	48 89 ee             	mov    %rbp,%rsi
  401341:	41 ff d4             	call   *%r12
  401344:	89 c7                	mov    %eax,%edi
  401346:	67 e8 c4 fc ff ff    	addr32 call 401010 <exit>

000000000040134c <__libc_start_main>:
  40134c:	41 54                	push   %r12
  40134e:	48 63 c6             	movslq %esi,%rax
  401351:	49 89 fc             	mov    %rdi,%r12
  401354:	55                   	push   %rbp
  401355:	48 8d 7c c2 08       	lea    0x8(%rdx,%rax,8),%rdi
  40135a:	48 89 c5             	mov    %rax,%rbp
  40135d:	53                   	push   %rbx
  40135e:	48 8b 32             	mov    (%rdx),%rsi
  401361:	48 89 d3             	mov    %rdx,%rbx
  401364:	e8 23 fe ff ff       	call   40118c <__init_libc>
  401369:	b8 1c 13 40 00       	mov    $0x40131c,%eax
  40136e:	48 89 da             	mov    %rbx,%rdx
  401371:	89 ee                	mov    %ebp,%esi
  401373:	4c 89 e7             	mov    %r12,%rdi
  401376:	5b                   	pop    %rbx
  401377:	5d                   	pop    %rbp
  401378:	41 5c                	pop    %r12
  40137a:	ff e0                	jmp    *%rax

000000000040137c <__funcs_on_exit>:
  40137c:	c3                   	ret

000000000040137d <__libc_exit_fini>:
  40137d:	53                   	push   %rbx
  40137e:	bb e0 6f 40 00       	mov    $0x406fe0,%ebx
  401383:	48 81 fb e0 6f 40 00 	cmp    $0x406fe0,%rbx
  40138a:	76 0a                	jbe    401396 <__libc_exit_fini+0x19>
  40138c:	48 83 eb 08          	sub    $0x8,%rbx
  401390:	31 c0                	xor    %eax,%eax
  401392:	ff 13                	call   *(%rbx)
  401394:	eb ed                	jmp    401383 <__libc_exit_fini+0x6>
  401396:	31 c0                	xor    %eax,%eax
  401398:	5b                   	pop    %rbx
  401399:	e9 b0 2c 00 00       	jmp    40404e <_fini>

000000000040139e <fflush>:
  40139e:	41 54                	push   %r12
  4013a0:	55                   	push   %rbp
  4013a1:	53                   	push   %rbx
  4013a2:	48 85 ff             	test   %rdi,%rdi
  4013a5:	0f 85 8c 00 00 00    	jne    401437 <fflush+0x99>
  4013ab:	48 8b 05 56 5d 00 00 	mov    0x5d56(%rip),%rax        # 407108 <__stdout_used>
  4013b2:	31 ed                	xor    %ebp,%ebp
  4013b4:	48 85 c0             	test   %rax,%rax
  4013b7:	74 0e                	je     4013c7 <fflush+0x29>
  4013b9:	48 8b 3d 48 5d 00 00 	mov    0x5d48(%rip),%rdi        # 407108 <__stdout_used>
  4013c0:	e8 d9 ff ff ff       	call   40139e <fflush>
  4013c5:	89 c5                	mov    %eax,%ebp
  4013c7:	48 8b 05 b2 5e 00 00 	mov    0x5eb2(%rip),%rax        # 407280 <__stderr_used>
  4013ce:	48 85 c0             	test   %rax,%rax
  4013d1:	74 0e                	je     4013e1 <fflush+0x43>
  4013d3:	48 8b 3d a6 5e 00 00 	mov    0x5ea6(%rip),%rdi        # 407280 <__stderr_used>
  4013da:	e8 bf ff ff ff       	call   40139e <fflush>
  4013df:	09 c5                	or     %eax,%ebp
  4013e1:	e8 50 02 00 00       	call   401636 <__ofl_lock>
  4013e6:	48 8b 18             	mov    (%rax),%rbx
  4013e9:	48 85 db             	test   %rbx,%rbx
  4013ec:	74 3f                	je     40142d <fflush+0x8f>
  4013ee:	8b 83 8c 00 00 00    	mov    0x8c(%rbx),%eax
  4013f4:	45 31 e4             	xor    %r12d,%r12d
  4013f7:	85 c0                	test   %eax,%eax
  4013f9:	78 0b                	js     401406 <fflush+0x68>
  4013fb:	48 89 df             	mov    %rbx,%rdi
  4013fe:	e8 8f 24 00 00       	call   403892 <__lockfile>
  401403:	41 89 c4             	mov    %eax,%r12d
  401406:	48 8b 43 38          	mov    0x38(%rbx),%rax
  40140a:	48 39 43 28          	cmp    %rax,0x28(%rbx)
  40140e:	74 0a                	je     40141a <fflush+0x7c>
  401410:	48 89 df             	mov    %rbx,%rdi
  401413:	e8 86 ff ff ff       	call   40139e <fflush>
  401418:	09 c5                	or     %eax,%ebp
  40141a:	45 85 e4             	test   %r12d,%r12d
  40141d:	74 08                	je     401427 <fflush+0x89>
  40141f:	48 89 df             	mov    %rbx,%rdi
  401422:	e8 15 25 00 00       	call   40393c <__unlockfile>
  401427:	48 8b 5b 70          	mov    0x70(%rbx),%rbx
  40142b:	eb bc                	jmp    4013e9 <fflush+0x4b>
  40142d:	e8 16 02 00 00       	call   401648 <__ofl_unlock>
  401432:	e9 95 00 00 00       	jmp    4014cc <fflush+0x12e>
  401437:	8b 87 8c 00 00 00    	mov    0x8c(%rdi),%eax
  40143d:	48 89 fb             	mov    %rdi,%rbx
  401440:	31 ed                	xor    %ebp,%ebp
  401442:	85 c0                	test   %eax,%eax
  401444:	78 07                	js     40144d <fflush+0xaf>
  401446:	e8 47 24 00 00       	call   403892 <__lockfile>
  40144b:	89 c5                	mov    %eax,%ebp
  40144d:	48 8b 43 38          	mov    0x38(%rbx),%rax
  401451:	48 39 43 28          	cmp    %rax,0x28(%rbx)
  401455:	74 1f                	je     401476 <fflush+0xd8>
  401457:	31 d2                	xor    %edx,%edx
  401459:	31 f6                	xor    %esi,%esi
  40145b:	48 89 df             	mov    %rbx,%rdi
  40145e:	ff 53 48             	call   *0x48(%rbx)
  401461:	48 83 7b 28 00       	cmpq   $0x0,0x28(%rbx)
  401466:	75 0e                	jne    401476 <fflush+0xd8>
  401468:	85 ed                	test   %ebp,%ebp
  40146a:	74 5d                	je     4014c9 <fflush+0x12b>
  40146c:	48 89 df             	mov    %rbx,%rdi
  40146f:	e8 c8 24 00 00       	call   40393c <__unlockfile>
  401474:	eb 53                	jmp    4014c9 <fflush+0x12b>
  401476:	48 8b 73 08          	mov    0x8(%rbx),%rsi
  40147a:	48 8b 43 10          	mov    0x10(%rbx),%rax
  40147e:	48 39 c6             	cmp    %rax,%rsi
  401481:	74 0e                	je     401491 <fflush+0xf3>
  401483:	48 29 c6             	sub    %rax,%rsi
  401486:	ba 01 00 00 00       	mov    $0x1,%edx
  40148b:	48 89 df             	mov    %rbx,%rdi
  40148e:	ff 53 50             	call   *0x50(%rbx)
  401491:	48 c7 43 20 00 00 00 	movq   $0x0,0x20(%rbx)
  401498:	00 
  401499:	48 c7 43 38 00 00 00 	movq   $0x0,0x38(%rbx)
  4014a0:	00 
  4014a1:	48 c7 43 28 00 00 00 	movq   $0x0,0x28(%rbx)
  4014a8:	00 
  4014a9:	48 c7 43 10 00 00 00 	movq   $0x0,0x10(%rbx)
  4014b0:	00 
  4014b1:	48 c7 43 08 00 00 00 	movq   $0x0,0x8(%rbx)
  4014b8:	00 
  4014b9:	85 ed                	test   %ebp,%ebp
  4014bb:	74 0f                	je     4014cc <fflush+0x12e>
  4014bd:	48 89 df             	mov    %rbx,%rdi
  4014c0:	31 ed                	xor    %ebp,%ebp
  4014c2:	e8 75 24 00 00       	call   40393c <__unlockfile>
  4014c7:	eb 03                	jmp    4014cc <fflush+0x12e>
  4014c9:	83 cd ff             	or     $0xffffffff,%ebp
  4014cc:	89 e8                	mov    %ebp,%eax
  4014ce:	5b                   	pop    %rbx
  4014cf:	5d                   	pop    %rbp
  4014d0:	41 5c                	pop    %r12
  4014d2:	c3                   	ret

00000000004014d3 <fgets>:
  4014d3:	41 57                	push   %r15
  4014d5:	41 56                	push   %r14
  4014d7:	41 89 f6             	mov    %esi,%r14d
  4014da:	41 55                	push   %r13
  4014dc:	41 54                	push   %r12
  4014de:	49 89 fc             	mov    %rdi,%r12
  4014e1:	55                   	push   %rbp
  4014e2:	53                   	push   %rbx
  4014e3:	48 89 d3             	mov    %rdx,%rbx
  4014e6:	48 83 ec 18          	sub    $0x18,%rsp
  4014ea:	8b 82 8c 00 00 00    	mov    0x8c(%rdx),%eax
  4014f0:	c7 44 24 0c 00 00 00 	movl   $0x0,0xc(%rsp)
  4014f7:	00 
  4014f8:	85 c0                	test   %eax,%eax
  4014fa:	78 0c                	js     401508 <fgets+0x35>
  4014fc:	48 89 d7             	mov    %rdx,%rdi
  4014ff:	e8 8e 23 00 00       	call   403892 <__lockfile>
  401504:	89 44 24 0c          	mov    %eax,0xc(%rsp)
  401508:	45 8d 6e ff          	lea    -0x1(%r14),%r13d
  40150c:	41 ff ce             	dec    %r14d
  40150f:	4c 89 e5             	mov    %r12,%rbp
  401512:	7f 6e                	jg     401582 <fgets+0xaf>
  401514:	8b 93 88 00 00 00    	mov    0x88(%rbx),%edx
  40151a:	8d 42 ff             	lea    -0x1(%rdx),%eax
  40151d:	09 d0                	or     %edx,%eax
  40151f:	83 7c 24 0c 00       	cmpl   $0x0,0xc(%rsp)
  401524:	89 83 88 00 00 00    	mov    %eax,0x88(%rbx)
  40152a:	74 08                	je     401534 <fgets+0x61>
  40152c:	48 89 df             	mov    %rbx,%rdi
  40152f:	e8 08 24 00 00       	call   40393c <__unlockfile>
  401534:	45 85 ed             	test   %r13d,%r13d
  401537:	0f 85 e4 00 00 00    	jne    401621 <fgets+0x14e>
  40153d:	41 c6 04 24 00       	movb   $0x0,(%r12)
  401542:	e9 dd 00 00 00       	jmp    401624 <fgets+0x151>
  401547:	48 8b 7b 08          	mov    0x8(%rbx),%rdi
  40154b:	48 8b 53 10          	mov    0x10(%rbx),%rdx
  40154f:	48 39 d7             	cmp    %rdx,%rdi
  401552:	75 35                	jne    401589 <fgets+0xb6>
  401554:	48 8b 43 08          	mov    0x8(%rbx),%rax
  401558:	48 3b 43 10          	cmp    0x10(%rbx),%rax
  40155c:	0f 84 85 00 00 00    	je     4015e7 <fgets+0x114>
  401562:	48 8d 50 01          	lea    0x1(%rax),%rdx
  401566:	48 89 53 08          	mov    %rdx,0x8(%rbx)
  40156a:	0f b6 00             	movzbl (%rax),%eax
  40156d:	48 8d 55 01          	lea    0x1(%rbp),%rdx
  401571:	88 45 00             	mov    %al,0x0(%rbp)
  401574:	41 ff cd             	dec    %r13d
  401577:	48 89 d5             	mov    %rdx,%rbp
  40157a:	3c 0a                	cmp    $0xa,%al
  40157c:	0f 84 80 00 00 00    	je     401602 <fgets+0x12f>
  401582:	45 85 ed             	test   %r13d,%r13d
  401585:	75 c0                	jne    401547 <fgets+0x74>
  401587:	eb 79                	jmp    401602 <fgets+0x12f>
  401589:	48 29 fa             	sub    %rdi,%rdx
  40158c:	be 0a 00 00 00       	mov    $0xa,%esi
  401591:	67 e8 d9 1a 00 00    	addr32 call 403070 <memchr>
  401597:	49 89 c7             	mov    %rax,%r15
  40159a:	48 85 c0             	test   %rax,%rax
  40159d:	74 0c                	je     4015ab <fgets+0xd8>
  40159f:	49 89 c6             	mov    %rax,%r14
  4015a2:	4c 2b 73 08          	sub    0x8(%rbx),%r14
  4015a6:	49 ff c6             	inc    %r14
  4015a9:	eb 08                	jmp    4015b3 <fgets+0xe0>
  4015ab:	4c 8b 73 10          	mov    0x10(%rbx),%r14
  4015af:	4c 2b 73 08          	sub    0x8(%rbx),%r14
  4015b3:	49 63 c5             	movslq %r13d,%rax
  4015b6:	48 8b 73 08          	mov    0x8(%rbx),%rsi
  4015ba:	48 89 ef             	mov    %rbp,%rdi
  4015bd:	4c 39 f0             	cmp    %r14,%rax
  4015c0:	4c 0f 46 f0          	cmovbe %rax,%r14
  4015c4:	4c 89 f2             	mov    %r14,%rdx
  4015c7:	4c 01 f5             	add    %r14,%rbp
  4015ca:	45 29 f5             	sub    %r14d,%r13d
  4015cd:	67 e8 bb 1c 00 00    	addr32 call 40328e <memcpy>
  4015d3:	4c 01 73 08          	add    %r14,0x8(%rbx)
  4015d7:	4d 85 ff             	test   %r15,%r15
  4015da:	75 26                	jne    401602 <fgets+0x12f>
  4015dc:	45 85 ed             	test   %r13d,%r13d
  4015df:	0f 85 6f ff ff ff    	jne    401554 <fgets+0x81>
  4015e5:	eb 1b                	jmp    401602 <fgets+0x12f>
  4015e7:	48 89 df             	mov    %rbx,%rdi
  4015ea:	67 e8 69 25 00 00    	addr32 call 403b59 <__uflow>
  4015f0:	85 c0                	test   %eax,%eax
  4015f2:	0f 89 75 ff ff ff    	jns    40156d <fgets+0x9a>
  4015f8:	4c 39 e5             	cmp    %r12,%rbp
  4015fb:	74 10                	je     40160d <fgets+0x13a>
  4015fd:	f6 03 10             	testb  $0x10,(%rbx)
  401600:	74 0b                	je     40160d <fgets+0x13a>
  401602:	4d 85 e4             	test   %r12,%r12
  401605:	74 09                	je     401610 <fgets+0x13d>
  401607:	c6 45 00 00          	movb   $0x0,0x0(%rbp)
  40160b:	eb 03                	jmp    401610 <fgets+0x13d>
  40160d:	45 31 e4             	xor    %r12d,%r12d
  401610:	83 7c 24 0c 00       	cmpl   $0x0,0xc(%rsp)
  401615:	74 0d                	je     401624 <fgets+0x151>
  401617:	48 89 df             	mov    %rbx,%rdi
  40161a:	e8 1d 23 00 00       	call   40393c <__unlockfile>
  40161f:	eb 03                	jmp    401624 <fgets+0x151>
  401621:	45 31 e4             	xor    %r12d,%r12d
  401624:	48 83 c4 18          	add    $0x18,%rsp
  401628:	4c 89 e0             	mov    %r12,%rax
  40162b:	5b                   	pop    %rbx
  40162c:	5d                   	pop    %rbp
  40162d:	41 5c                	pop    %r12
  40162f:	41 5d                	pop    %r13
  401631:	41 5e                	pop    %r14
  401633:	41 5f                	pop    %r15
  401635:	c3                   	ret

0000000000401636 <__ofl_lock>:
  401636:	50                   	push   %rax
  401637:	bf 88 72 40 00       	mov    $0x407288,%edi
  40163c:	e8 43 1d 00 00       	call   403384 <__lock>
  401641:	b8 90 72 40 00       	mov    $0x407290,%eax
  401646:	5a                   	pop    %rdx
  401647:	c3                   	ret

0000000000401648 <__ofl_unlock>:
  401648:	bf 88 72 40 00       	mov    $0x407288,%edi
  40164d:	e9 e2 1d 00 00       	jmp    403434 <__unlock>

0000000000401652 <printf>:
  401652:	48 81 ec d8 00 00 00 	sub    $0xd8,%rsp
  401659:	48 89 74 24 28       	mov    %rsi,0x28(%rsp)
  40165e:	48 89 54 24 30       	mov    %rdx,0x30(%rsp)
  401663:	48 89 4c 24 38       	mov    %rcx,0x38(%rsp)
  401668:	4c 89 44 24 40       	mov    %r8,0x40(%rsp)
  40166d:	4c 89 4c 24 48       	mov    %r9,0x48(%rsp)
  401672:	84 c0                	test   %al,%al
  401674:	74 37                	je     4016ad <printf+0x5b>
  401676:	0f 29 44 24 50       	movaps %xmm0,0x50(%rsp)
  40167b:	0f 29 4c 24 60       	movaps %xmm1,0x60(%rsp)
  401680:	0f 29 54 24 70       	movaps %xmm2,0x70(%rsp)
  401685:	0f 29 9c 24 80 00 00 	movaps %xmm3,0x80(%rsp)
  40168c:	00 
  40168d:	0f 29 a4 24 90 00 00 	movaps %xmm4,0x90(%rsp)
  401694:	00 
  401695:	0f 29 ac 24 a0 00 00 	movaps %xmm5,0xa0(%rsp)
  40169c:	00 
  40169d:	0f 29 b4 24 b0 00 00 	movaps %xmm6,0xb0(%rsp)
  4016a4:	00 
  4016a5:	0f 29 bc 24 c0 00 00 	movaps %xmm7,0xc0(%rsp)
  4016ac:	00 
  4016ad:	48 8d 84 24 e0 00 00 	lea    0xe0(%rsp),%rax
  4016b4:	00 
  4016b5:	48 8d 54 24 08       	lea    0x8(%rsp),%rdx
  4016ba:	48 89 fe             	mov    %rdi,%rsi
  4016bd:	bf 20 71 40 00       	mov    $0x407120,%edi
  4016c2:	48 89 44 24 10       	mov    %rax,0x10(%rsp)
  4016c7:	48 8d 44 24 20       	lea    0x20(%rsp),%rax
  4016cc:	c7 44 24 08 08 00 00 	movl   $0x8,0x8(%rsp)
  4016d3:	00 
  4016d4:	c7 44 24 0c 30 00 00 	movl   $0x30,0xc(%rsp)
  4016db:	00 
  4016dc:	48 89 44 24 18       	mov    %rax,0x18(%rsp)
  4016e1:	67 e8 f0 17 00 00    	addr32 call 402ed7 <vfprintf>
  4016e7:	48 81 c4 d8 00 00 00 	add    $0xd8,%rsp
  4016ee:	c3                   	ret

00000000004016ef <puts>:
  4016ef:	55                   	push   %rbp
  4016f0:	31 ed                	xor    %ebp,%ebp
  4016f2:	53                   	push   %rbx
  4016f3:	48 89 fb             	mov    %rdi,%rbx
  4016f6:	51                   	push   %rcx
  4016f7:	8b 05 af 5a 00 00    	mov    0x5aaf(%rip),%eax        # 4071ac <__stdout_FILE+0x8c>
  4016fd:	85 c0                	test   %eax,%eax
  4016ff:	78 0c                	js     40170d <puts+0x1e>
  401701:	bf 20 71 40 00       	mov    $0x407120,%edi
  401706:	e8 87 21 00 00       	call   403892 <__lockfile>
  40170b:	89 c5                	mov    %eax,%ebp
  40170d:	be 20 71 40 00       	mov    $0x407120,%esi
  401712:	48 89 df             	mov    %rbx,%rdi
  401715:	67 e8 74 24 00 00    	addr32 call 403b8f <fputs>
  40171b:	ba 01 00 00 00       	mov    $0x1,%edx
  401720:	85 c0                	test   %eax,%eax
  401722:	78 40                	js     401764 <puts+0x75>
  401724:	83 3d 85 5a 00 00 0a 	cmpl   $0xa,0x5a85(%rip)        # 4071b0 <__stdout_FILE+0x90>
  40172b:	74 22                	je     40174f <puts+0x60>
  40172d:	48 8b 05 14 5a 00 00 	mov    0x5a14(%rip),%rax        # 407148 <__stdout_FILE+0x28>
  401734:	48 3b 05 05 5a 00 00 	cmp    0x5a05(%rip),%rax        # 407140 <__stdout_FILE+0x20>
  40173b:	74 12                	je     40174f <puts+0x60>
  40173d:	48 8d 50 01          	lea    0x1(%rax),%rdx
  401741:	48 89 15 00 5a 00 00 	mov    %rdx,0x5a00(%rip)        # 407148 <__stdout_FILE+0x28>
  401748:	31 d2                	xor    %edx,%edx
  40174a:	c6 00 0a             	movb   $0xa,(%rax)
  40174d:	eb 15                	jmp    401764 <puts+0x75>
  40174f:	be 0a 00 00 00       	mov    $0xa,%esi
  401754:	bf 20 71 40 00       	mov    $0x407120,%edi
  401759:	67 e8 19 22 00 00    	addr32 call 403978 <__overflow>
  40175f:	c1 e8 1f             	shr    $0x1f,%eax
  401762:	89 c2                	mov    %eax,%edx
  401764:	89 d3                	mov    %edx,%ebx
  401766:	f7 db                	neg    %ebx
  401768:	85 ed                	test   %ebp,%ebp
  40176a:	74 0a                	je     401776 <puts+0x87>
  40176c:	bf 20 71 40 00       	mov    $0x407120,%edi
  401771:	e8 c6 21 00 00       	call   40393c <__unlockfile>
  401776:	89 d8                	mov    %ebx,%eax
  401778:	5a                   	pop    %rdx
  401779:	5b                   	pop    %rbx
  40177a:	5d                   	pop    %rbp
  40177b:	c3                   	ret

000000000040177c <pop_arg>:
  40177c:	83 ee 09             	sub    $0x9,%esi
  40177f:	83 fe 11             	cmp    $0x11,%esi
  401782:	0f 87 58 01 00 00    	ja     4018e0 <pop_arg+0x164>
  401788:	ff 24 f5 48 50 40 00 	jmp    *0x405048(,%rsi,8)
  40178f:	8b 0a                	mov    (%rdx),%ecx
  401791:	83 f9 2f             	cmp    $0x2f,%ecx
  401794:	77 0d                	ja     4017a3 <pop_arg+0x27>
  401796:	89 c8                	mov    %ecx,%eax
  401798:	83 c1 08             	add    $0x8,%ecx
  40179b:	48 03 42 10          	add    0x10(%rdx),%rax
  40179f:	89 0a                	mov    %ecx,(%rdx)
  4017a1:	eb 0c                	jmp    4017af <pop_arg+0x33>
  4017a3:	48 8b 42 08          	mov    0x8(%rdx),%rax
  4017a7:	48 8d 48 08          	lea    0x8(%rax),%rcx
  4017ab:	48 89 4a 08          	mov    %rcx,0x8(%rdx)
  4017af:	48 63 00             	movslq (%rax),%rax
  4017b2:	48 89 07             	mov    %rax,(%rdi)
  4017b5:	c3                   	ret
  4017b6:	8b 0a                	mov    (%rdx),%ecx
  4017b8:	83 f9 2f             	cmp    $0x2f,%ecx
  4017bb:	77 0d                	ja     4017ca <pop_arg+0x4e>
  4017bd:	89 c8                	mov    %ecx,%eax
  4017bf:	83 c1 08             	add    $0x8,%ecx
  4017c2:	48 03 42 10          	add    0x10(%rdx),%rax
  4017c6:	89 0a                	mov    %ecx,(%rdx)
  4017c8:	eb 0c                	jmp    4017d6 <pop_arg+0x5a>
  4017ca:	48 8b 42 08          	mov    0x8(%rdx),%rax
  4017ce:	48 8d 48 08          	lea    0x8(%rax),%rcx
  4017d2:	48 89 4a 08          	mov    %rcx,0x8(%rdx)
  4017d6:	8b 00                	mov    (%rax),%eax
  4017d8:	eb d8                	jmp    4017b2 <pop_arg+0x36>
  4017da:	8b 0a                	mov    (%rdx),%ecx
  4017dc:	83 f9 2f             	cmp    $0x2f,%ecx
  4017df:	77 0d                	ja     4017ee <pop_arg+0x72>
  4017e1:	89 c8                	mov    %ecx,%eax
  4017e3:	83 c1 08             	add    $0x8,%ecx
  4017e6:	48 03 42 10          	add    0x10(%rdx),%rax
  4017ea:	89 0a                	mov    %ecx,(%rdx)
  4017ec:	eb 0c                	jmp    4017fa <pop_arg+0x7e>
  4017ee:	48 8b 42 08          	mov    0x8(%rdx),%rax
  4017f2:	48 8d 48 08          	lea    0x8(%rax),%rcx
  4017f6:	48 89 4a 08          	mov    %rcx,0x8(%rdx)
  4017fa:	48 0f bf 00          	movswq (%rax),%rax
  4017fe:	eb b2                	jmp    4017b2 <pop_arg+0x36>
  401800:	8b 0a                	mov    (%rdx),%ecx
  401802:	83 f9 2f             	cmp    $0x2f,%ecx
  401805:	77 0d                	ja     401814 <pop_arg+0x98>
  401807:	89 c8                	mov    %ecx,%eax
  401809:	83 c1 08             	add    $0x8,%ecx
  40180c:	48 03 42 10          	add    0x10(%rdx),%rax
  401810:	89 0a                	mov    %ecx,(%rdx)
  401812:	eb 0c                	jmp    401820 <pop_arg+0xa4>
  401814:	48 8b 42 08          	mov    0x8(%rdx),%rax
  401818:	48 8d 48 08          	lea    0x8(%rax),%rcx
  40181c:	48 89 4a 08          	mov    %rcx,0x8(%rdx)
  401820:	0f b7 00             	movzwl (%rax),%eax
  401823:	eb 8d                	jmp    4017b2 <pop_arg+0x36>
  401825:	8b 0a                	mov    (%rdx),%ecx
  401827:	83 f9 2f             	cmp    $0x2f,%ecx
  40182a:	77 0d                	ja     401839 <pop_arg+0xbd>
  40182c:	89 c8                	mov    %ecx,%eax
  40182e:	83 c1 08             	add    $0x8,%ecx
  401831:	48 03 42 10          	add    0x10(%rdx),%rax
  401835:	89 0a                	mov    %ecx,(%rdx)
  401837:	eb 0c                	jmp    401845 <pop_arg+0xc9>
  401839:	48 8b 42 08          	mov    0x8(%rdx),%rax
  40183d:	48 8d 48 08          	lea    0x8(%rax),%rcx
  401841:	48 89 4a 08          	mov    %rcx,0x8(%rdx)
  401845:	48 0f be 00          	movsbq (%rax),%rax
  401849:	e9 64 ff ff ff       	jmp    4017b2 <pop_arg+0x36>
  40184e:	8b 0a                	mov    (%rdx),%ecx
  401850:	83 f9 2f             	cmp    $0x2f,%ecx
  401853:	77 0d                	ja     401862 <pop_arg+0xe6>
  401855:	89 c8                	mov    %ecx,%eax
  401857:	83 c1 08             	add    $0x8,%ecx
  40185a:	48 03 42 10          	add    0x10(%rdx),%rax
  40185e:	89 0a                	mov    %ecx,(%rdx)
  401860:	eb 0c                	jmp    40186e <pop_arg+0xf2>
  401862:	48 8b 42 08          	mov    0x8(%rdx),%rax
  401866:	48 8d 48 08          	lea    0x8(%rax),%rcx
  40186a:	48 89 4a 08          	mov    %rcx,0x8(%rdx)
  40186e:	0f b6 00             	movzbl (%rax),%eax
  401871:	e9 3c ff ff ff       	jmp    4017b2 <pop_arg+0x36>
  401876:	8b 0a                	mov    (%rdx),%ecx
  401878:	83 f9 2f             	cmp    $0x2f,%ecx
  40187b:	77 0d                	ja     40188a <pop_arg+0x10e>
  40187d:	89 c8                	mov    %ecx,%eax
  40187f:	83 c1 08             	add    $0x8,%ecx
  401882:	48 03 42 10          	add    0x10(%rdx),%rax
  401886:	89 0a                	mov    %ecx,(%rdx)
  401888:	eb 0c                	jmp    401896 <pop_arg+0x11a>
  40188a:	48 8b 42 08          	mov    0x8(%rdx),%rax
  40188e:	48 8d 48 08          	lea    0x8(%rax),%rcx
  401892:	48 89 4a 08          	mov    %rcx,0x8(%rdx)
  401896:	48 8b 00             	mov    (%rax),%rax
  401899:	e9 14 ff ff ff       	jmp    4017b2 <pop_arg+0x36>
  40189e:	8b 4a 04             	mov    0x4(%rdx),%ecx
  4018a1:	81 f9 af 00 00 00    	cmp    $0xaf,%ecx
  4018a7:	77 0e                	ja     4018b7 <pop_arg+0x13b>
  4018a9:	89 c8                	mov    %ecx,%eax
  4018ab:	83 c1 10             	add    $0x10,%ecx
  4018ae:	48 03 42 10          	add    0x10(%rdx),%rax
  4018b2:	89 4a 04             	mov    %ecx,0x4(%rdx)
  4018b5:	eb 0c                	jmp    4018c3 <pop_arg+0x147>
  4018b7:	48 8b 42 08          	mov    0x8(%rdx),%rax
  4018bb:	48 8d 48 08          	lea    0x8(%rax),%rcx
  4018bf:	48 89 4a 08          	mov    %rcx,0x8(%rdx)
  4018c3:	dd 00                	fldl   (%rax)
  4018c5:	db 3f                	fstpt  (%rdi)
  4018c7:	c3                   	ret
  4018c8:	48 8b 42 08          	mov    0x8(%rdx),%rax
  4018cc:	48 83 c0 0f          	add    $0xf,%rax
  4018d0:	48 83 e0 f0          	and    $0xfffffffffffffff0,%rax
  4018d4:	48 8d 48 10          	lea    0x10(%rax),%rcx
  4018d8:	48 89 4a 08          	mov    %rcx,0x8(%rdx)
  4018dc:	db 28                	fldt   (%rax)
  4018de:	db 3f                	fstpt  (%rdi)
  4018e0:	c3                   	ret

00000000004018e1 <fmt_u>:
  4018e1:	48 89 f8             	mov    %rdi,%rax
  4018e4:	b9 0a 00 00 00       	mov    $0xa,%ecx
  4018e9:	48 85 c0             	test   %rax,%rax
  4018ec:	74 0f                	je     4018fd <fmt_u+0x1c>
  4018ee:	31 d2                	xor    %edx,%edx
  4018f0:	48 ff ce             	dec    %rsi
  4018f3:	48 f7 f1             	div    %rcx
  4018f6:	83 c2 30             	add    $0x30,%edx
  4018f9:	88 16                	mov    %dl,(%rsi)
  4018fb:	eb ec                	jmp    4018e9 <fmt_u+0x8>
  4018fd:	48 89 f0             	mov    %rsi,%rax
  401900:	c3                   	ret

0000000000401901 <getint>:
  401901:	31 c0                	xor    %eax,%eax
  401903:	41 83 c8 ff          	or     $0xffffffff,%r8d
  401907:	48 8b 0f             	mov    (%rdi),%rcx
  40190a:	0f be 11             	movsbl (%rcx),%edx
  40190d:	83 ea 30             	sub    $0x30,%edx
  401910:	83 fa 09             	cmp    $0x9,%edx
  401913:	77 26                	ja     40193b <getint+0x3a>
  401915:	3d cc cc cc 0c       	cmp    $0xccccccc,%eax
  40191a:	77 14                	ja     401930 <getint+0x2f>
  40191c:	6b f0 f6             	imul   $0xfffffff6,%eax,%esi
  40191f:	81 c6 ff ff ff 7f    	add    $0x7fffffff,%esi
  401925:	39 f2                	cmp    %esi,%edx
  401927:	7f 07                	jg     401930 <getint+0x2f>
  401929:	6b c0 0a             	imul   $0xa,%eax,%eax
  40192c:	01 d0                	add    %edx,%eax
  40192e:	eb 03                	jmp    401933 <getint+0x32>
  401930:	44 89 c0             	mov    %r8d,%eax
  401933:	48 ff c1             	inc    %rcx
  401936:	48 89 0f             	mov    %rcx,(%rdi)
  401939:	eb cc                	jmp    401907 <getint+0x6>
  40193b:	c3                   	ret

000000000040193c <out>:
  40193c:	48 89 f0             	mov    %rsi,%rax
  40193f:	48 89 d6             	mov    %rdx,%rsi
  401942:	f6 07 20             	testb  $0x20,(%rdi)
  401945:	75 0b                	jne    401952 <out+0x16>
  401947:	48 89 fa             	mov    %rdi,%rdx
  40194a:	48 89 c7             	mov    %rax,%rdi
  40194d:	e9 74 22 00 00       	jmp    403bc6 <__fwritex>
  401952:	c3                   	ret

0000000000401953 <pad>:
  401953:	41 54                	push   %r12
  401955:	55                   	push   %rbp
  401956:	53                   	push   %rbx
  401957:	48 81 ec 10 01 00 00 	sub    $0x110,%rsp
  40195e:	64 48 8b 04 25 28 00 	mov    %fs:0x28,%rax
  401965:	00 00 
  401967:	48 89 84 24 08 01 00 	mov    %rax,0x108(%rsp)
  40196e:	00 
  40196f:	31 c0                	xor    %eax,%eax
  401971:	41 81 e0 00 20 01 00 	and    $0x12000,%r8d
  401978:	75 6f                	jne    4019e9 <pad+0x96>
  40197a:	39 d1                	cmp    %edx,%ecx
  40197c:	7d 6b                	jge    4019e9 <pad+0x96>
  40197e:	89 d3                	mov    %edx,%ebx
  401980:	ba 00 01 00 00       	mov    $0x100,%edx
  401985:	48 89 fd             	mov    %rdi,%rbp
  401988:	40 0f be f6          	movsbl %sil,%esi
  40198c:	29 cb                	sub    %ecx,%ebx
  40198e:	48 8d 7c 24 08       	lea    0x8(%rsp),%rdi
  401993:	81 fb 00 01 00 00    	cmp    $0x100,%ebx
  401999:	41 89 dc             	mov    %ebx,%r12d
  40199c:	0f 4e d3             	cmovle %ebx,%edx
  40199f:	48 63 d2             	movslq %edx,%rdx
  4019a2:	67 e8 18 19 00 00    	addr32 call 4032c0 <memset>
  4019a8:	41 81 fc ff 00 00 00 	cmp    $0xff,%r12d
  4019af:	7e 1b                	jle    4019cc <pad+0x79>
  4019b1:	ba 00 01 00 00       	mov    $0x100,%edx
  4019b6:	48 8d 74 24 08       	lea    0x8(%rsp),%rsi
  4019bb:	48 89 ef             	mov    %rbp,%rdi
  4019be:	41 81 ec 00 01 00 00 	sub    $0x100,%r12d
  4019c5:	e8 72 ff ff ff       	call   40193c <out>
  4019ca:	eb dc                	jmp    4019a8 <pad+0x55>
  4019cc:	89 da                	mov    %ebx,%edx
  4019ce:	48 8d 74 24 08       	lea    0x8(%rsp),%rsi
  4019d3:	48 89 ef             	mov    %rbp,%rdi
  4019d6:	c1 ea 08             	shr    $0x8,%edx
  4019d9:	69 d2 00 ff ff ff    	imul   $0xffffff00,%edx,%edx
  4019df:	01 da                	add    %ebx,%edx
  4019e1:	48 63 d2             	movslq %edx,%rdx
  4019e4:	e8 53 ff ff ff       	call   40193c <out>
  4019e9:	48 8b 84 24 08 01 00 	mov    0x108(%rsp),%rax
  4019f0:	00 
  4019f1:	64 48 33 04 25 28 00 	xor    %fs:0x28,%rax
  4019f8:	00 00 
  4019fa:	74 06                	je     401a02 <pad+0xaf>
  4019fc:	67 e8 17 1d 00 00    	addr32 call 403719 <__stack_chk_fail>
  401a02:	48 81 c4 10 01 00 00 	add    $0x110,%rsp
  401a09:	5b                   	pop    %rbx
  401a0a:	5d                   	pop    %rbp
  401a0b:	41 5c                	pop    %r12
  401a0d:	c3                   	ret

0000000000401a0e <fmt_fp>:
  401a0e:	41 57                	push   %r15
  401a10:	41 56                	push   %r14
  401a12:	41 55                	push   %r13
  401a14:	45 89 c5             	mov    %r8d,%r13d
  401a17:	41 54                	push   %r12
  401a19:	55                   	push   %rbp
  401a1a:	53                   	push   %rbx
  401a1b:	89 d3                	mov    %edx,%ebx
  401a1d:	48 81 ec 58 1d 00 00 	sub    $0x1d58,%rsp
  401a24:	48 89 7c 24 08       	mov    %rdi,0x8(%rsp)
  401a29:	89 74 24 24          	mov    %esi,0x24(%rsp)
  401a2d:	89 4c 24 58          	mov    %ecx,0x58(%rsp)
  401a31:	64 48 8b 04 25 28 00 	mov    %fs:0x28,%rax
  401a38:	00 00 
  401a3a:	48 89 84 24 48 1d 00 	mov    %rax,0x1d48(%rsp)
  401a41:	00 
  401a42:	31 c0                	xor    %eax,%eax
  401a44:	c7 44 24 70 00 00 00 	movl   $0x0,0x70(%rsp)
  401a4b:	00 
  401a4c:	ff b4 24 98 1d 00 00 	push   0x1d98(%rsp)
  401a53:	ff b4 24 98 1d 00 00 	push   0x1d98(%rsp)
  401a5a:	67 e8 8f 1d 00 00    	addr32 call 4037ef <__signbitl>
  401a60:	5f                   	pop    %rdi
  401a61:	41 58                	pop    %r8
  401a63:	85 c0                	test   %eax,%eax
  401a65:	74 21                	je     401a88 <fmt_fp+0x7a>
  401a67:	db ac 24 90 1d 00 00 	fldt   0x1d90(%rsp)
  401a6e:	41 be 01 00 00 00    	mov    $0x1,%r14d
  401a74:	48 c7 44 24 40 d8 50 	movq   $0x4050d8,0x40(%rsp)
  401a7b:	40 00 
  401a7d:	d9 e0                	fchs
  401a7f:	db bc 24 90 1d 00 00 	fstpt  0x1d90(%rsp)
  401a86:	eb 35                	jmp    401abd <fmt_fp+0xaf>
  401a88:	0f ba 64 24 58 0b    	btl    $0xb,0x58(%rsp)
  401a8e:	72 1e                	jb     401aae <fmt_fp+0xa0>
  401a90:	44 8b 74 24 58       	mov    0x58(%rsp),%r14d
  401a95:	ba de 50 40 00       	mov    $0x4050de,%edx
  401a9a:	b8 d9 50 40 00       	mov    $0x4050d9,%eax
  401a9f:	41 83 e6 01          	and    $0x1,%r14d
  401aa3:	48 0f 45 c2          	cmovne %rdx,%rax
  401aa7:	48 89 44 24 40       	mov    %rax,0x40(%rsp)
  401aac:	eb 0f                	jmp    401abd <fmt_fp+0xaf>
  401aae:	48 c7 44 24 40 db 50 	movq   $0x4050db,0x40(%rsp)
  401ab5:	40 00 
  401ab7:	41 be 01 00 00 00    	mov    $0x1,%r14d
  401abd:	ff b4 24 98 1d 00 00 	push   0x1d98(%rsp)
  401ac4:	ff b4 24 98 1d 00 00 	push   0x1d98(%rsp)
  401acb:	67 e8 da 1c 00 00    	addr32 call 4037ab <__fpclassifyl>
  401ad1:	59                   	pop    %rcx
  401ad2:	5e                   	pop    %rsi
  401ad3:	ff c8                	dec    %eax
  401ad5:	7f 75                	jg     401b4c <fmt_fp+0x13e>
  401ad7:	db ac 24 90 1d 00 00 	fldt   0x1d90(%rsp)
  401ade:	44 89 e8             	mov    %r13d,%eax
  401ae1:	bb eb 50 40 00       	mov    $0x4050eb,%ebx
  401ae6:	ba ef 50 40 00       	mov    $0x4050ef,%edx
  401aeb:	83 e0 20             	and    $0x20,%eax
  401aee:	48 0f 44 da          	cmove  %rdx,%rbx
  401af2:	df e8                	fucomip %st(0),%st
  401af4:	7a 02                	jp     401af8 <fmt_fp+0xea>
  401af6:	74 10                	je     401b08 <fmt_fp+0xfa>
  401af8:	85 c0                	test   %eax,%eax
  401afa:	bb f3 50 40 00       	mov    $0x4050f3,%ebx
  401aff:	b8 f7 50 40 00       	mov    $0x4050f7,%eax
  401b04:	48 0f 44 d8          	cmove  %rax,%rbx
  401b08:	44 8b 44 24 58       	mov    0x58(%rsp),%r8d
  401b0d:	8b 54 24 24          	mov    0x24(%rsp),%edx
  401b11:	41 8d 6e 03          	lea    0x3(%r14),%ebp
  401b15:	be 20 00 00 00       	mov    $0x20,%esi
  401b1a:	48 8b 7c 24 08       	mov    0x8(%rsp),%rdi
  401b1f:	89 e9                	mov    %ebp,%ecx
  401b21:	41 81 e0 ff ff fe ff 	and    $0xfffeffff,%r8d
  401b28:	e8 26 fe ff ff       	call   401953 <pad>
  401b2d:	48 8b 74 24 40       	mov    0x40(%rsp),%rsi
  401b32:	48 8b 7c 24 08       	mov    0x8(%rsp),%rdi
  401b37:	49 63 d6             	movslq %r14d,%rdx
  401b3a:	e8 fd fd ff ff       	call   40193c <out>
  401b3f:	ba 03 00 00 00       	mov    $0x3,%edx
  401b44:	48 89 de             	mov    %rbx,%rsi
  401b47:	e9 65 02 00 00       	jmp    401db1 <fmt_fp+0x3a3>
  401b4c:	ff b4 24 98 1d 00 00 	push   0x1d98(%rsp)
  401b53:	ff b4 24 98 1d 00 00 	push   0x1d98(%rsp)
  401b5a:	48 8d bc 24 80 00 00 	lea    0x80(%rsp),%rdi
  401b61:	00 
  401b62:	67 e8 93 1c 00 00    	addr32 call 4037fb <frexpl>
  401b68:	d8 c0                	fadd   %st(0),%st
  401b6a:	db 7c 24 20          	fstpt  0x20(%rsp)
  401b6e:	58                   	pop    %rax
  401b6f:	5a                   	pop    %rdx
  401b70:	d9 ee                	fldz
  401b72:	db 6c 24 10          	fldt   0x10(%rsp)
  401b76:	df e9                	fucomip %st(1),%st
  401b78:	db 7c 24 30          	fstpt  0x30(%rsp)
  401b7c:	7a 02                	jp     401b80 <fmt_fp+0x172>
  401b7e:	74 04                	je     401b84 <fmt_fp+0x176>
  401b80:	ff 4c 24 70          	decl   0x70(%rsp)
  401b84:	45 89 ea             	mov    %r13d,%r10d
  401b87:	41 83 ca 20          	or     $0x20,%r10d
  401b8b:	41 83 fa 61          	cmp    $0x61,%r10d
  401b8f:	0f 85 57 02 00 00    	jne    401dec <fmt_fp+0x3de>
  401b95:	41 f6 c5 20          	test   $0x20,%r13b
  401b99:	74 06                	je     401ba1 <fmt_fp+0x193>
  401b9b:	48 83 44 24 40 09    	addq   $0x9,0x40(%rsp)
  401ba1:	41 83 c6 02          	add    $0x2,%r14d
  401ba5:	83 fb 0e             	cmp    $0xe,%ebx
  401ba8:	77 42                	ja     401bec <fmt_fp+0x1de>
  401baa:	d9 05 40 39 00 00    	flds   0x3940(%rip)        # 4054f0 <states+0x1d0>
  401bb0:	b8 0f 00 00 00       	mov    $0xf,%eax
  401bb5:	29 d8                	sub    %ebx,%eax
  401bb7:	ff c8                	dec    %eax
  401bb9:	83 f8 ff             	cmp    $0xffffffff,%eax
  401bbc:	74 0a                	je     401bc8 <fmt_fp+0x1ba>
  401bbe:	db 2d 5c 39 00 00    	fldt   0x395c(%rip)        # 405520 <states+0x200>
  401bc4:	de c9                	fmulp  %st,%st(1)
  401bc6:	eb ef                	jmp    401bb7 <fmt_fp+0x1a9>
  401bc8:	48 8b 44 24 40       	mov    0x40(%rsp),%rax
  401bcd:	db 6c 24 10          	fldt   0x10(%rsp)
  401bd1:	80 38 2d             	cmpb   $0x2d,(%rax)
  401bd4:	75 0e                	jne    401be4 <fmt_fp+0x1d6>
  401bd6:	d9 e0                	fchs
  401bd8:	d8 e1                	fsub   %st(1),%st
  401bda:	de c1                	faddp  %st,%st(1)
  401bdc:	d9 e0                	fchs
  401bde:	db 7c 24 10          	fstpt  0x10(%rsp)
  401be2:	eb 08                	jmp    401bec <fmt_fp+0x1de>
  401be4:	d8 c1                	fadd   %st(1),%st
  401be6:	de e1                	fsubp  %st,%st(1)
  401be8:	db 7c 24 10          	fstpt  0x10(%rsp)
  401bec:	8b 44 24 70          	mov    0x70(%rsp),%eax
  401bf0:	8b 7c 24 70          	mov    0x70(%rsp),%edi
  401bf4:	48 8d ac 24 2f 1d 00 	lea    0x1d2f(%rsp),%rbp
  401bfb:	00 
  401bfc:	48 89 ee             	mov    %rbp,%rsi
  401bff:	c1 f8 1f             	sar    $0x1f,%eax
  401c02:	31 c7                	xor    %eax,%edi
  401c04:	29 c7                	sub    %eax,%edi
  401c06:	48 63 ff             	movslq %edi,%rdi
  401c09:	e8 d3 fc ff ff       	call   4018e1 <fmt_u>
  401c0e:	48 39 e8             	cmp    %rbp,%rax
  401c11:	75 10                	jne    401c23 <fmt_fp+0x215>
  401c13:	c6 84 24 2e 1d 00 00 	movb   $0x30,0x1d2e(%rsp)
  401c1a:	30 
  401c1b:	48 8d 84 24 2e 1d 00 	lea    0x1d2e(%rsp),%rax
  401c22:	00 
  401c23:	8b 54 24 70          	mov    0x70(%rsp),%edx
  401c27:	44 8b 44 24 58       	mov    0x58(%rsp),%r8d
  401c2c:	4c 8d 78 fe          	lea    -0x2(%rax),%r15
  401c30:	44 89 ee             	mov    %r13d,%esi
  401c33:	83 e6 20             	and    $0x20,%esi
  401c36:	40 b7 01             	mov    $0x1,%dil
  401c39:	c1 fa 1f             	sar    $0x1f,%edx
  401c3c:	41 83 e0 08          	and    $0x8,%r8d
  401c40:	83 e2 02             	and    $0x2,%edx
  401c43:	83 c2 2b             	add    $0x2b,%edx
  401c46:	88 50 ff             	mov    %dl,-0x1(%rax)
  401c49:	41 8d 55 0f          	lea    0xf(%r13),%edx
  401c4d:	88 50 fe             	mov    %dl,-0x2(%rax)
  401c50:	48 8d 84 24 2f 1d 00 	lea    0x1d2f(%rsp),%rax
  401c57:	00 
  401c58:	d9 7c 24 6e          	fnstcw 0x6e(%rsp)
  401c5c:	48 89 c1             	mov    %rax,%rcx
  401c5f:	66 8b 54 24 6e       	mov    0x6e(%rsp),%dx
  401c64:	80 ce 0c             	or     $0xc,%dh
  401c67:	66 89 54 24 6c       	mov    %dx,0x6c(%rsp)
  401c6c:	db 6c 24 10          	fldt   0x10(%rsp)
  401c70:	4c 8d 68 01          	lea    0x1(%rax),%r13
  401c74:	d9 c0                	fld    %st(0)
  401c76:	d9 6c 24 6c          	fldcw  0x6c(%rsp)
  401c7a:	db 5c 24 28          	fistpl 0x28(%rsp)
  401c7e:	d9 6c 24 6e          	fldcw  0x6e(%rsp)
  401c82:	48 63 54 24 28       	movslq 0x28(%rsp),%rdx
  401c87:	44 8a 9a 10 53 40 00 	mov    0x405310(%rdx),%r11b
  401c8e:	da 64 24 28          	fisubl 0x28(%rsp)
  401c92:	41 09 f3             	or     %esi,%r11d
  401c95:	db 2d 85 38 00 00    	fldt   0x3885(%rip)        # 405520 <states+0x200>
  401c9b:	44 88 18             	mov    %r11b,(%rax)
  401c9e:	de c9                	fmulp  %st,%st(1)
  401ca0:	d9 c0                	fld    %st(0)
  401ca2:	db 7c 24 10          	fstpt  0x10(%rsp)
  401ca6:	48 39 c8             	cmp    %rcx,%rax
  401ca9:	75 25                	jne    401cd0 <fmt_fp+0x2c2>
  401cab:	db 6c 24 30          	fldt   0x30(%rsp)
  401caf:	df e9                	fucomip %st(1),%st
  401cb1:	dd d8                	fstp   %st(0)
  401cb3:	0f 9a c2             	setp   %dl
  401cb6:	0f 45 d7             	cmovne %edi,%edx
  401cb9:	84 d2                	test   %dl,%dl
  401cbb:	75 09                	jne    401cc6 <fmt_fp+0x2b8>
  401cbd:	85 db                	test   %ebx,%ebx
  401cbf:	7f 05                	jg     401cc6 <fmt_fp+0x2b8>
  401cc1:	45 85 c0             	test   %r8d,%r8d
  401cc4:	74 21                	je     401ce7 <fmt_fp+0x2d9>
  401cc6:	c6 40 01 2e          	movb   $0x2e,0x1(%rax)
  401cca:	4c 8d 68 02          	lea    0x2(%rax),%r13
  401cce:	eb 02                	jmp    401cd2 <fmt_fp+0x2c4>
  401cd0:	dd d8                	fstp   %st(0)
  401cd2:	db 6c 24 30          	fldt   0x30(%rsp)
  401cd6:	db 6c 24 10          	fldt   0x10(%rsp)
  401cda:	df e9                	fucomip %st(1),%st
  401cdc:	dd d8                	fstp   %st(0)
  401cde:	7b 05                	jnp    401ce5 <fmt_fp+0x2d7>
  401ce0:	4c 89 e8             	mov    %r13,%rax
  401ce3:	eb 87                	jmp    401c6c <fmt_fp+0x25e>
  401ce5:	75 f9                	jne    401ce0 <fmt_fp+0x2d2>
  401ce7:	4c 8d a4 24 2f 1d 00 	lea    0x1d2f(%rsp),%r12
  401cee:	00 
  401cef:	b8 fd ff ff 7f       	mov    $0x7ffffffd,%eax
  401cf4:	49 63 f6             	movslq %r14d,%rsi
  401cf7:	48 63 d3             	movslq %ebx,%rdx
  401cfa:	4d 29 fc             	sub    %r15,%r12
  401cfd:	4c 29 e0             	sub    %r12,%rax
  401d00:	48 29 f0             	sub    %rsi,%rax
  401d03:	48 39 c2             	cmp    %rax,%rdx
  401d06:	7e 08                	jle    401d10 <fmt_fp+0x302>
  401d08:	83 c8 ff             	or     $0xffffffff,%eax
  401d0b:	e9 45 08 00 00       	jmp    402555 <fmt_fp+0xb47>
  401d10:	49 29 cd             	sub    %rcx,%r13
  401d13:	85 db                	test   %ebx,%ebx
  401d15:	74 0e                	je     401d25 <fmt_fp+0x317>
  401d17:	49 8d 45 ff          	lea    -0x1(%r13),%rax
  401d1b:	42 8d 5c 23 02       	lea    0x2(%rbx,%r12,1),%ebx
  401d20:	48 39 c2             	cmp    %rax,%rdx
  401d23:	7d 04                	jge    401d29 <fmt_fp+0x31b>
  401d25:	43 8d 1c 2c          	lea    (%r12,%r13,1),%ebx
  401d29:	42 8d 2c 33          	lea    (%rbx,%r14,1),%ebp
  401d2d:	44 8b 44 24 58       	mov    0x58(%rsp),%r8d
  401d32:	8b 54 24 24          	mov    0x24(%rsp),%edx
  401d36:	be 20 00 00 00       	mov    $0x20,%esi
  401d3b:	48 8b 7c 24 08       	mov    0x8(%rsp),%rdi
  401d40:	89 e9                	mov    %ebp,%ecx
  401d42:	e8 0c fc ff ff       	call   401953 <pad>
  401d47:	48 8b 74 24 40       	mov    0x40(%rsp),%rsi
  401d4c:	48 8b 7c 24 08       	mov    0x8(%rsp),%rdi
  401d51:	49 63 d6             	movslq %r14d,%rdx
  401d54:	e8 e3 fb ff ff       	call   40193c <out>
  401d59:	44 8b 44 24 58       	mov    0x58(%rsp),%r8d
  401d5e:	8b 54 24 24          	mov    0x24(%rsp),%edx
  401d62:	89 e9                	mov    %ebp,%ecx
  401d64:	48 8b 7c 24 08       	mov    0x8(%rsp),%rdi
  401d69:	be 30 00 00 00       	mov    $0x30,%esi
  401d6e:	41 81 f0 00 00 01 00 	xor    $0x10000,%r8d
  401d75:	e8 d9 fb ff ff       	call   401953 <pad>
  401d7a:	48 8b 7c 24 08       	mov    0x8(%rsp),%rdi
  401d7f:	4c 89 ea             	mov    %r13,%rdx
  401d82:	48 8d b4 24 2f 1d 00 	lea    0x1d2f(%rsp),%rsi
  401d89:	00 
  401d8a:	45 01 e5             	add    %r12d,%r13d
  401d8d:	e8 aa fb ff ff       	call   40193c <out>
  401d92:	44 29 eb             	sub    %r13d,%ebx
  401d95:	48 8b 7c 24 08       	mov    0x8(%rsp),%rdi
  401d9a:	45 31 c0             	xor    %r8d,%r8d
  401d9d:	89 da                	mov    %ebx,%edx
  401d9f:	be 30 00 00 00       	mov    $0x30,%esi
  401da4:	31 c9                	xor    %ecx,%ecx
  401da6:	e8 a8 fb ff ff       	call   401953 <pad>
  401dab:	4c 89 e2             	mov    %r12,%rdx
  401dae:	4c 89 fe             	mov    %r15,%rsi
  401db1:	48 8b 7c 24 08       	mov    0x8(%rsp),%rdi
  401db6:	e8 81 fb ff ff       	call   40193c <out>
  401dbb:	44 8b 44 24 58       	mov    0x58(%rsp),%r8d
  401dc0:	8b 54 24 24          	mov    0x24(%rsp),%edx
  401dc4:	89 e9                	mov    %ebp,%ecx
  401dc6:	48 8b 7c 24 08       	mov    0x8(%rsp),%rdi
  401dcb:	be 20 00 00 00       	mov    $0x20,%esi
  401dd0:	41 81 f0 00 20 00 00 	xor    $0x2000,%r8d
  401dd7:	e8 77 fb ff ff       	call   401953 <pad>
  401ddc:	8b 44 24 24          	mov    0x24(%rsp),%eax
  401de0:	3b 6c 24 24          	cmp    0x24(%rsp),%ebp
  401de4:	0f 4d c5             	cmovge %ebp,%eax
  401de7:	e9 69 07 00 00       	jmp    402555 <fmt_fp+0xb47>
  401dec:	85 db                	test   %ebx,%ebx
  401dee:	79 05                	jns    401df5 <fmt_fp+0x3e7>
  401df0:	bb 06 00 00 00       	mov    $0x6,%ebx
  401df5:	db 6c 24 30          	fldt   0x30(%rsp)
  401df9:	db 6c 24 10          	fldt   0x10(%rsp)
  401dfd:	df e9                	fucomip %st(1),%st
  401dff:	dd d8                	fstp   %st(0)
  401e01:	7a 02                	jp     401e05 <fmt_fp+0x3f7>
  401e03:	74 13                	je     401e18 <fmt_fp+0x40a>
  401e05:	db 6c 24 10          	fldt   0x10(%rsp)
  401e09:	d8 0d f1 36 00 00    	fmuls  0x36f1(%rip)        # 405500 <states+0x1e0>
  401e0f:	83 6c 24 70 1c       	subl   $0x1c,0x70(%rsp)
  401e14:	db 7c 24 10          	fstpt  0x10(%rsp)
  401e18:	8b 74 24 70          	mov    0x70(%rsp),%esi
  401e1c:	48 8d 44 24 74       	lea    0x74(%rsp),%rax
  401e21:	85 f6                	test   %esi,%esi
  401e23:	78 08                	js     401e2d <fmt_fp+0x41f>
  401e25:	48 8d 84 24 1c 1c 00 	lea    0x1c1c(%rsp),%rax
  401e2c:	00 
  401e2d:	d9 7c 24 6e          	fnstcw 0x6e(%rsp)
  401e31:	48 89 44 24 28       	mov    %rax,0x28(%rsp)
  401e36:	48 8b 6c 24 28       	mov    0x28(%rsp),%rbp
  401e3b:	66 8b 44 24 6e       	mov    0x6e(%rsp),%ax
  401e40:	80 cc 0c             	or     $0xc,%ah
  401e43:	66 89 44 24 6c       	mov    %ax,0x6c(%rsp)
  401e48:	db 6c 24 10          	fldt   0x10(%rsp)
  401e4c:	48 83 c5 04          	add    $0x4,%rbp
  401e50:	d9 6c 24 6c          	fldcw  0x6c(%rsp)
  401e54:	df 7c 24 60          	fistpll 0x60(%rsp)
  401e58:	d9 6c 24 6e          	fldcw  0x6e(%rsp)
  401e5c:	48 8b 44 24 60       	mov    0x60(%rsp),%rax
  401e61:	89 45 fc             	mov    %eax,-0x4(%rbp)
  401e64:	89 c0                	mov    %eax,%eax
  401e66:	48 89 44 24 50       	mov    %rax,0x50(%rsp)
  401e6b:	df 6c 24 50          	fildll 0x50(%rsp)
  401e6f:	db 6c 24 10          	fldt   0x10(%rsp)
  401e73:	de e1                	fsubp  %st,%st(1)
  401e75:	d8 0d 89 36 00 00    	fmuls  0x3689(%rip)        # 405504 <states+0x1e4>
  401e7b:	d9 c0                	fld    %st(0)
  401e7d:	db 7c 24 10          	fstpt  0x10(%rsp)
  401e81:	db 6c 24 30          	fldt   0x30(%rsp)
  401e85:	d9 c9                	fxch   %st(1)
  401e87:	df e9                	fucomip %st(1),%st
  401e89:	dd d8                	fstp   %st(0)
  401e8b:	7a bb                	jp     401e48 <fmt_fp+0x43a>
  401e8d:	75 b9                	jne    401e48 <fmt_fp+0x43a>
  401e8f:	4c 8b 7c 24 28       	mov    0x28(%rsp),%r15
  401e94:	31 c0                	xor    %eax,%eax
  401e96:	41 b9 1d 00 00 00    	mov    $0x1d,%r9d
  401e9c:	41 b8 00 ca 9a 3b    	mov    $0x3b9aca00,%r8d
  401ea2:	85 f6                	test   %esi,%esi
  401ea4:	7e 4f                	jle    401ef5 <fmt_fp+0x4e7>
  401ea6:	83 fe 1d             	cmp    $0x1d,%esi
  401ea9:	44 89 c9             	mov    %r9d,%ecx
  401eac:	48 8d 7d fc          	lea    -0x4(%rbp),%rdi
  401eb0:	0f 4e ce             	cmovle %esi,%ecx
  401eb3:	31 c0                	xor    %eax,%eax
  401eb5:	49 39 ff             	cmp    %rdi,%r15
  401eb8:	77 18                	ja     401ed2 <fmt_fp+0x4c4>
  401eba:	8b 17                	mov    (%rdi),%edx
  401ebc:	89 c0                	mov    %eax,%eax
  401ebe:	48 83 ef 04          	sub    $0x4,%rdi
  401ec2:	48 d3 e2             	shl    %cl,%rdx
  401ec5:	48 01 d0             	add    %rdx,%rax
  401ec8:	31 d2                	xor    %edx,%edx
  401eca:	49 f7 f0             	div    %r8
  401ecd:	89 57 04             	mov    %edx,0x4(%rdi)
  401ed0:	eb e3                	jmp    401eb5 <fmt_fp+0x4a7>
  401ed2:	85 c0                	test   %eax,%eax
  401ed4:	74 14                	je     401eea <fmt_fp+0x4dc>
  401ed6:	41 89 47 fc          	mov    %eax,-0x4(%r15)
  401eda:	49 83 ef 04          	sub    $0x4,%r15
  401ede:	eb 0a                	jmp    401eea <fmt_fp+0x4dc>
  401ee0:	83 7d fc 00          	cmpl   $0x0,-0x4(%rbp)
  401ee4:	75 09                	jne    401eef <fmt_fp+0x4e1>
  401ee6:	48 83 ed 04          	sub    $0x4,%rbp
  401eea:	4c 39 fd             	cmp    %r15,%rbp
  401eed:	77 f1                	ja     401ee0 <fmt_fp+0x4d2>
  401eef:	29 ce                	sub    %ecx,%esi
  401ef1:	b0 01                	mov    $0x1,%al
  401ef3:	eb ad                	jmp    401ea2 <fmt_fp+0x494>
  401ef5:	84 c0                	test   %al,%al
  401ef7:	74 04                	je     401efd <fmt_fp+0x4ef>
  401ef9:	89 74 24 70          	mov    %esi,0x70(%rsp)
  401efd:	8d 43 1d             	lea    0x1d(%rbx),%eax
  401f00:	b9 09 00 00 00       	mov    $0x9,%ecx
  401f05:	31 d2                	xor    %edx,%edx
  401f07:	f7 f1                	div    %ecx
  401f09:	31 d2                	xor    %edx,%edx
  401f0b:	44 8d 48 01          	lea    0x1(%rax),%r9d
  401f0f:	8b 44 24 70          	mov    0x70(%rsp),%eax
  401f13:	4e 8d 1c 8d 00 00 00 	lea    0x0(,%r9,4),%r11
  401f1a:	00 
  401f1b:	85 c0                	test   %eax,%eax
  401f1d:	0f 89 8b 00 00 00    	jns    401fae <fmt_fp+0x5a0>
  401f23:	b9 09 00 00 00       	mov    $0x9,%ecx
  401f28:	83 f8 f7             	cmp    $0xfffffff7,%eax
  401f2b:	7c 04                	jl     401f31 <fmt_fp+0x523>
  401f2d:	89 c1                	mov    %eax,%ecx
  401f2f:	f7 d9                	neg    %ecx
  401f31:	bf 00 ca 9a 3b       	mov    $0x3b9aca00,%edi
  401f36:	41 b8 01 00 00 00    	mov    $0x1,%r8d
  401f3c:	4c 89 fa             	mov    %r15,%rdx
  401f3f:	31 f6                	xor    %esi,%esi
  401f41:	d3 ff                	sar    %cl,%edi
  401f43:	41 d3 e0             	shl    %cl,%r8d
  401f46:	89 7c 24 10          	mov    %edi,0x10(%rsp)
  401f4a:	41 ff c8             	dec    %r8d
  401f4d:	48 39 ea             	cmp    %rbp,%rdx
  401f50:	73 1e                	jae    401f70 <fmt_fp+0x562>
  401f52:	8b 3a                	mov    (%rdx),%edi
  401f54:	48 83 c2 04          	add    $0x4,%rdx
  401f58:	41 89 fc             	mov    %edi,%r12d
  401f5b:	41 d3 ec             	shr    %cl,%r12d
  401f5e:	44 01 e6             	add    %r12d,%esi
  401f61:	89 72 fc             	mov    %esi,-0x4(%rdx)
  401f64:	89 fe                	mov    %edi,%esi
  401f66:	44 21 c6             	and    %r8d,%esi
  401f69:	0f af 74 24 10       	imul   0x10(%rsp),%esi
  401f6e:	eb dd                	jmp    401f4d <fmt_fp+0x53f>
  401f70:	41 83 3f 00          	cmpl   $0x0,(%r15)
  401f74:	75 04                	jne    401f7a <fmt_fp+0x56c>
  401f76:	49 83 c7 04          	add    $0x4,%r15
  401f7a:	85 f6                	test   %esi,%esi
  401f7c:	74 07                	je     401f85 <fmt_fp+0x577>
  401f7e:	89 75 00             	mov    %esi,0x0(%rbp)
  401f81:	48 83 c5 04          	add    $0x4,%rbp
  401f85:	48 8b 74 24 28       	mov    0x28(%rsp),%rsi
  401f8a:	41 83 fa 66          	cmp    $0x66,%r10d
  401f8e:	48 89 ea             	mov    %rbp,%rdx
  401f91:	49 0f 45 f7          	cmovne %r15,%rsi
  401f95:	48 29 f2             	sub    %rsi,%rdx
  401f98:	48 c1 fa 02          	sar    $0x2,%rdx
  401f9c:	4c 39 ca             	cmp    %r9,%rdx
  401f9f:	7e 04                	jle    401fa5 <fmt_fp+0x597>
  401fa1:	4a 8d 2c 1e          	lea    (%rsi,%r11,1),%rbp
  401fa5:	01 c8                	add    %ecx,%eax
  401fa7:	b2 01                	mov    $0x1,%dl
  401fa9:	e9 6d ff ff ff       	jmp    401f1b <fmt_fp+0x50d>
  401fae:	84 d2                	test   %dl,%dl
  401fb0:	74 04                	je     401fb6 <fmt_fp+0x5a8>
  401fb2:	89 44 24 70          	mov    %eax,0x70(%rsp)
  401fb6:	45 31 e4             	xor    %r12d,%r12d
  401fb9:	49 39 ef             	cmp    %rbp,%r15
  401fbc:	73 24                	jae    401fe2 <fmt_fp+0x5d4>
  401fbe:	4c 8b 64 24 28       	mov    0x28(%rsp),%r12
  401fc3:	41 8b 17             	mov    (%r15),%edx
  401fc6:	b8 0a 00 00 00       	mov    $0xa,%eax
  401fcb:	4d 29 fc             	sub    %r15,%r12
  401fce:	49 c1 fc 02          	sar    $0x2,%r12
  401fd2:	47 8d 24 e4          	lea    (%r12,%r12,8),%r12d
  401fd6:	39 c2                	cmp    %eax,%edx
  401fd8:	72 08                	jb     401fe2 <fmt_fp+0x5d4>
  401fda:	6b c0 0a             	imul   $0xa,%eax,%eax
  401fdd:	41 ff c4             	inc    %r12d
  401fe0:	eb f4                	jmp    401fd6 <fmt_fp+0x5c8>
  401fe2:	31 c0                	xor    %eax,%eax
  401fe4:	41 83 fa 66          	cmp    $0x66,%r10d
  401fe8:	89 d9                	mov    %ebx,%ecx
  401fea:	0f 95 c0             	setne  %al
  401fed:	41 0f af c4          	imul   %r12d,%eax
  401ff1:	29 c1                	sub    %eax,%ecx
  401ff3:	85 db                	test   %ebx,%ebx
  401ff5:	89 c8                	mov    %ecx,%eax
  401ff7:	0f 95 c1             	setne  %cl
  401ffa:	31 d2                	xor    %edx,%edx
  401ffc:	41 83 fa 67          	cmp    $0x67,%r10d
  402000:	0f 94 c2             	sete   %dl
  402003:	21 ca                	and    %ecx,%edx
  402005:	29 d0                	sub    %edx,%eax
  402007:	48 89 ea             	mov    %rbp,%rdx
  40200a:	48 2b 54 24 28       	sub    0x28(%rsp),%rdx
  40200f:	48 c1 fa 02          	sar    $0x2,%rdx
  402013:	48 63 c8             	movslq %eax,%rcx
  402016:	48 ff ca             	dec    %rdx
  402019:	48 8d 14 d2          	lea    (%rdx,%rdx,8),%rdx
  40201d:	48 39 d1             	cmp    %rdx,%rcx
  402020:	0f 8d 22 01 00 00    	jge    402148 <fmt_fp+0x73a>
  402026:	05 00 40 02 00       	add    $0x24000,%eax
  40202b:	b9 09 00 00 00       	mov    $0x9,%ecx
  402030:	be 0a 00 00 00       	mov    $0xa,%esi
  402035:	99                   	cltd
  402036:	f7 f9                	idiv   %ecx
  402038:	48 8b 4c 24 28       	mov    0x28(%rsp),%rcx
  40203d:	48 98                	cltq
  40203f:	ff c2                	inc    %edx
  402041:	48 8d 8c 81 04 00 ff 	lea    -0xfffc(%rcx,%rax,4),%rcx
  402048:	ff 
  402049:	83 fa 09             	cmp    $0x9,%edx
  40204c:	74 07                	je     402055 <fmt_fp+0x647>
  40204e:	6b f6 0a             	imul   $0xa,%esi,%esi
  402051:	ff c2                	inc    %edx
  402053:	eb f4                	jmp    402049 <fmt_fp+0x63b>
  402055:	8b 39                	mov    (%rcx),%edi
  402057:	31 d2                	xor    %edx,%edx
  402059:	89 f8                	mov    %edi,%eax
  40205b:	f7 f6                	div    %esi
  40205d:	85 d2                	test   %edx,%edx
  40205f:	75 0d                	jne    40206e <fmt_fp+0x660>
  402061:	4c 8d 41 04          	lea    0x4(%rcx),%r8
  402065:	4c 39 c5             	cmp    %r8,%rbp
  402068:	0f 84 c3 00 00 00    	je     402131 <fmt_fp+0x723>
  40206e:	a8 01                	test   $0x1,%al
  402070:	75 13                	jne    402085 <fmt_fp+0x677>
  402072:	81 fe 00 ca 9a 3b    	cmp    $0x3b9aca00,%esi
  402078:	75 13                	jne    40208d <fmt_fp+0x67f>
  40207a:	49 39 cf             	cmp    %rcx,%r15
  40207d:	73 0e                	jae    40208d <fmt_fp+0x67f>
  40207f:	f6 41 fc 01          	testb  $0x1,-0x4(%rcx)
  402083:	74 08                	je     40208d <fmt_fp+0x67f>
  402085:	db 2d 85 34 00 00    	fldt   0x3485(%rip)        # 405510 <states+0x1f0>
  40208b:	eb 06                	jmp    402093 <fmt_fp+0x685>
  40208d:	d9 05 61 34 00 00    	flds   0x3461(%rip)        # 4054f4 <states+0x1d4>
  402093:	89 f0                	mov    %esi,%eax
  402095:	d1 f8                	sar    $1,%eax
  402097:	39 d0                	cmp    %edx,%eax
  402099:	77 0f                	ja     4020aa <fmt_fp+0x69c>
  40209b:	75 17                	jne    4020b4 <fmt_fp+0x6a6>
  40209d:	48 8d 41 04          	lea    0x4(%rcx),%rax
  4020a1:	d9 e8                	fld1
  4020a3:	48 39 c5             	cmp    %rax,%rbp
  4020a6:	75 0a                	jne    4020b2 <fmt_fp+0x6a4>
  4020a8:	eb 10                	jmp    4020ba <fmt_fp+0x6ac>
  4020aa:	d9 05 4c 34 00 00    	flds   0x344c(%rip)        # 4054fc <states+0x1dc>
  4020b0:	eb 08                	jmp    4020ba <fmt_fp+0x6ac>
  4020b2:	dd d8                	fstp   %st(0)
  4020b4:	d9 05 3e 34 00 00    	flds   0x343e(%rip)        # 4054f8 <states+0x1d8>
  4020ba:	45 85 f6             	test   %r14d,%r14d
  4020bd:	74 12                	je     4020d1 <fmt_fp+0x6c3>
  4020bf:	48 8b 44 24 40       	mov    0x40(%rsp),%rax
  4020c4:	80 38 2d             	cmpb   $0x2d,(%rax)
  4020c7:	75 08                	jne    4020d1 <fmt_fp+0x6c3>
  4020c9:	d9 c9                	fxch   %st(1)
  4020cb:	d9 e0                	fchs
  4020cd:	d9 c9                	fxch   %st(1)
  4020cf:	d9 e0                	fchs
  4020d1:	d8 c1                	fadd   %st(1),%st
  4020d3:	29 d7                	sub    %edx,%edi
  4020d5:	df e9                	fucomip %st(1),%st
  4020d7:	dd d8                	fstp   %st(0)
  4020d9:	7a 06                	jp     4020e1 <fmt_fp+0x6d3>
  4020db:	75 04                	jne    4020e1 <fmt_fp+0x6d3>
  4020dd:	89 39                	mov    %edi,(%rcx)
  4020df:	eb 50                	jmp    402131 <fmt_fp+0x723>
  4020e1:	01 fe                	add    %edi,%esi
  4020e3:	89 31                	mov    %esi,(%rcx)
  4020e5:	81 39 ff c9 9a 3b    	cmpl   $0x3b9ac9ff,(%rcx)
  4020eb:	76 20                	jbe    40210d <fmt_fp+0x6ff>
  4020ed:	48 83 e9 04          	sub    $0x4,%rcx
  4020f1:	c7 41 04 00 00 00 00 	movl   $0x0,0x4(%rcx)
  4020f8:	49 39 cf             	cmp    %rcx,%r15
  4020fb:	76 0c                	jbe    402109 <fmt_fp+0x6fb>
  4020fd:	41 c7 47 fc 00 00 00 	movl   $0x0,-0x4(%r15)
  402104:	00 
  402105:	49 83 ef 04          	sub    $0x4,%r15
  402109:	ff 01                	incl   (%rcx)
  40210b:	eb d8                	jmp    4020e5 <fmt_fp+0x6d7>
  40210d:	4c 8b 64 24 28       	mov    0x28(%rsp),%r12
  402112:	41 8b 17             	mov    (%r15),%edx
  402115:	b8 0a 00 00 00       	mov    $0xa,%eax
  40211a:	4d 29 fc             	sub    %r15,%r12
  40211d:	49 c1 fc 02          	sar    $0x2,%r12
  402121:	47 8d 24 e4          	lea    (%r12,%r12,8),%r12d
  402125:	39 c2                	cmp    %eax,%edx
  402127:	72 08                	jb     402131 <fmt_fp+0x723>
  402129:	6b c0 0a             	imul   $0xa,%eax,%eax
  40212c:	41 ff c4             	inc    %r12d
  40212f:	eb f4                	jmp    402125 <fmt_fp+0x717>
  402131:	48 83 c1 04          	add    $0x4,%rcx
  402135:	48 39 cd             	cmp    %rcx,%rbp
  402138:	48 0f 47 e9          	cmova  %rcx,%rbp
  40213c:	eb 0a                	jmp    402148 <fmt_fp+0x73a>
  40213e:	83 7d fc 00          	cmpl   $0x0,-0x4(%rbp)
  402142:	75 09                	jne    40214d <fmt_fp+0x73f>
  402144:	48 83 ed 04          	sub    $0x4,%rbp
  402148:	4c 39 fd             	cmp    %r15,%rbp
  40214b:	77 f1                	ja     40213e <fmt_fp+0x730>
  40214d:	41 83 fa 67          	cmp    $0x67,%r10d
  402151:	0f 85 93 00 00 00    	jne    4021ea <fmt_fp+0x7dc>
  402157:	85 db                	test   %ebx,%ebx
  402159:	75 05                	jne    402160 <fmt_fp+0x752>
  40215b:	bb 01 00 00 00       	mov    $0x1,%ebx
  402160:	44 39 e3             	cmp    %r12d,%ebx
  402163:	7e 12                	jle    402177 <fmt_fp+0x769>
  402165:	41 83 fc fc          	cmp    $0xfffffffc,%r12d
  402169:	7c 0c                	jl     402177 <fmt_fp+0x769>
  40216b:	41 8d 44 24 01       	lea    0x1(%r12),%eax
  402170:	41 ff cd             	dec    %r13d
  402173:	29 c3                	sub    %eax,%ebx
  402175:	eb 06                	jmp    40217d <fmt_fp+0x76f>
  402177:	41 83 ed 02          	sub    $0x2,%r13d
  40217b:	ff cb                	dec    %ebx
  40217d:	f6 44 24 58 08       	testb  $0x8,0x58(%rsp)
  402182:	75 66                	jne    4021ea <fmt_fp+0x7dc>
  402184:	b9 09 00 00 00       	mov    $0x9,%ecx
  402189:	4c 39 fd             	cmp    %r15,%rbp
  40218c:	76 1f                	jbe    4021ad <fmt_fp+0x79f>
  40218e:	8b 7d fc             	mov    -0x4(%rbp),%edi
  402191:	85 ff                	test   %edi,%edi
  402193:	74 18                	je     4021ad <fmt_fp+0x79f>
  402195:	31 c9                	xor    %ecx,%ecx
  402197:	be 0a 00 00 00       	mov    $0xa,%esi
  40219c:	89 f8                	mov    %edi,%eax
  40219e:	31 d2                	xor    %edx,%edx
  4021a0:	f7 f6                	div    %esi
  4021a2:	85 d2                	test   %edx,%edx
  4021a4:	75 07                	jne    4021ad <fmt_fp+0x79f>
  4021a6:	6b f6 0a             	imul   $0xa,%esi,%esi
  4021a9:	ff c1                	inc    %ecx
  4021ab:	eb ef                	jmp    40219c <fmt_fp+0x78e>
  4021ad:	48 89 e8             	mov    %rbp,%rax
  4021b0:	48 2b 44 24 28       	sub    0x28(%rsp),%rax
  4021b5:	44 89 ea             	mov    %r13d,%edx
  4021b8:	48 63 f1             	movslq %ecx,%rsi
  4021bb:	48 c1 f8 02          	sar    $0x2,%rax
  4021bf:	83 ca 20             	or     $0x20,%edx
  4021c2:	48 63 db             	movslq %ebx,%rbx
  4021c5:	48 ff c8             	dec    %rax
  4021c8:	48 8d 04 c0          	lea    (%rax,%rax,8),%rax
  4021cc:	83 fa 66             	cmp    $0x66,%edx
  4021cf:	74 06                	je     4021d7 <fmt_fp+0x7c9>
  4021d1:	49 63 cc             	movslq %r12d,%rcx
  4021d4:	48 01 c8             	add    %rcx,%rax
  4021d7:	48 29 f0             	sub    %rsi,%rax
  4021da:	ba 00 00 00 00       	mov    $0x0,%edx
  4021df:	48 0f 48 c2          	cmovs  %rdx,%rax
  4021e3:	48 39 d8             	cmp    %rbx,%rax
  4021e6:	48 0f 4e d8          	cmovle %rax,%rbx
  4021ea:	81 fb fd ff ff 7f    	cmp    $0x7ffffffd,%ebx
  4021f0:	0f 8f 12 fb ff ff    	jg     401d08 <fmt_fp+0x2fa>
  4021f6:	8b 44 24 58          	mov    0x58(%rsp),%eax
  4021fa:	83 e0 08             	and    $0x8,%eax
  4021fd:	89 44 24 30          	mov    %eax,0x30(%rsp)
  402201:	09 d8                	or     %ebx,%eax
  402203:	89 44 24 5c          	mov    %eax,0x5c(%rsp)
  402207:	0f 95 c0             	setne  %al
  40220a:	0f b6 c0             	movzbl %al,%eax
  40220d:	8d 44 03 01          	lea    0x1(%rbx,%rax,1),%eax
  402211:	41 89 c1             	mov    %eax,%r9d
  402214:	44 89 e8             	mov    %r13d,%eax
  402217:	83 c8 20             	or     $0x20,%eax
  40221a:	89 44 24 50          	mov    %eax,0x50(%rsp)
  40221e:	b8 ff ff ff 7f       	mov    $0x7fffffff,%eax
  402223:	44 29 c8             	sub    %r9d,%eax
  402226:	83 7c 24 50 66       	cmpl   $0x66,0x50(%rsp)
  40222b:	41 89 c3             	mov    %eax,%r11d
  40222e:	75 19                	jne    402249 <fmt_fp+0x83b>
  402230:	41 39 c4             	cmp    %eax,%r12d
  402233:	0f 8f cf fa ff ff    	jg     401d08 <fmt_fp+0x2fa>
  402239:	45 85 e4             	test   %r12d,%r12d
  40223c:	7e 7f                	jle    4022bd <fmt_fp+0x8af>
  40223e:	44 89 c8             	mov    %r9d,%eax
  402241:	44 01 e0             	add    %r12d,%eax
  402244:	41 89 c1             	mov    %eax,%r9d
  402247:	eb 74                	jmp    4022bd <fmt_fp+0x8af>
  402249:	44 89 e0             	mov    %r12d,%eax
  40224c:	48 8d b4 24 2f 1d 00 	lea    0x1d2f(%rsp),%rsi
  402253:	00 
  402254:	c1 f8 1f             	sar    $0x1f,%eax
  402257:	89 c7                	mov    %eax,%edi
  402259:	44 31 e7             	xor    %r12d,%edi
  40225c:	29 c7                	sub    %eax,%edi
  40225e:	48 63 ff             	movslq %edi,%rdi
  402261:	e8 7b f6 ff ff       	call   4018e1 <fmt_u>
  402266:	48 8d 94 24 2f 1d 00 	lea    0x1d2f(%rsp),%rdx
  40226d:	00 
  40226e:	48 89 d1             	mov    %rdx,%rcx
  402271:	48 29 c1             	sub    %rax,%rcx
  402274:	48 ff c9             	dec    %rcx
  402277:	7f 08                	jg     402281 <fmt_fp+0x873>
  402279:	48 ff c8             	dec    %rax
  40227c:	c6 00 30             	movb   $0x30,(%rax)
  40227f:	eb ed                	jmp    40226e <fmt_fp+0x860>
  402281:	41 c1 fc 1f          	sar    $0x1f,%r12d
  402285:	48 8d 48 fe          	lea    -0x2(%rax),%rcx
  402289:	44 88 68 fe          	mov    %r13b,-0x2(%rax)
  40228d:	4d 63 eb             	movslq %r11d,%r13
  402290:	41 83 e4 02          	and    $0x2,%r12d
  402294:	48 89 4c 24 48       	mov    %rcx,0x48(%rsp)
  402299:	41 83 c4 2b          	add    $0x2b,%r12d
  40229d:	44 88 60 ff          	mov    %r12b,-0x1(%rax)
  4022a1:	48 8d 84 24 2f 1d 00 	lea    0x1d2f(%rsp),%rax
  4022a8:	00 
  4022a9:	48 29 c8             	sub    %rcx,%rax
  4022ac:	4c 39 e8             	cmp    %r13,%rax
  4022af:	0f 8f 53 fa ff ff    	jg     401d08 <fmt_fp+0x2fa>
  4022b5:	44 89 c9             	mov    %r9d,%ecx
  4022b8:	01 c1                	add    %eax,%ecx
  4022ba:	41 89 c9             	mov    %ecx,%r9d
  4022bd:	b8 ff ff ff 7f       	mov    $0x7fffffff,%eax
  4022c2:	44 29 f0             	sub    %r14d,%eax
  4022c5:	44 39 c8             	cmp    %r9d,%eax
  4022c8:	0f 8c 3a fa ff ff    	jl     401d08 <fmt_fp+0x2fa>
  4022ce:	44 89 c8             	mov    %r9d,%eax
  4022d1:	44 8b 44 24 58       	mov    0x58(%rsp),%r8d
  4022d6:	8b 54 24 24          	mov    0x24(%rsp),%edx
  4022da:	be 20 00 00 00       	mov    $0x20,%esi
  4022df:	44 01 f0             	add    %r14d,%eax
  4022e2:	48 8b 7c 24 08       	mov    0x8(%rsp),%rdi
  4022e7:	89 c1                	mov    %eax,%ecx
  4022e9:	89 44 24 10          	mov    %eax,0x10(%rsp)
  4022ed:	e8 61 f6 ff ff       	call   401953 <pad>
  4022f2:	48 8b 74 24 40       	mov    0x40(%rsp),%rsi
  4022f7:	48 8b 7c 24 08       	mov    0x8(%rsp),%rdi
  4022fc:	49 63 d6             	movslq %r14d,%rdx
  4022ff:	e8 38 f6 ff ff       	call   40193c <out>
  402304:	44 8b 44 24 58       	mov    0x58(%rsp),%r8d
  402309:	8b 4c 24 10          	mov    0x10(%rsp),%ecx
  40230d:	be 30 00 00 00       	mov    $0x30,%esi
  402312:	8b 54 24 24          	mov    0x24(%rsp),%edx
  402316:	48 8b 7c 24 08       	mov    0x8(%rsp),%rdi
  40231b:	41 81 f0 00 00 01 00 	xor    $0x10000,%r8d
  402322:	e8 2c f6 ff ff       	call   401953 <pad>
  402327:	83 7c 24 50 66       	cmpl   $0x66,0x50(%rsp)
  40232c:	0f 85 f8 00 00 00    	jne    40242a <fmt_fp+0xa1c>
  402332:	4c 39 7c 24 28       	cmp    %r15,0x28(%rsp)
  402337:	4d 89 fe             	mov    %r15,%r14
  40233a:	4c 0f 46 74 24 28    	cmovbe 0x28(%rsp),%r14
  402340:	4c 8d ac 24 2f 1d 00 	lea    0x1d2f(%rsp),%r13
  402347:	00 
  402348:	4d 89 f4             	mov    %r14,%r12
  40234b:	4c 3b 64 24 28       	cmp    0x28(%rsp),%r12
  402350:	77 4d                	ja     40239f <fmt_fp+0x991>
  402352:	4d 8d 7d 09          	lea    0x9(%r13),%r15
  402356:	41 8b 3c 24          	mov    (%r12),%edi
  40235a:	4c 89 fe             	mov    %r15,%rsi
  40235d:	e8 7f f5 ff ff       	call   4018e1 <fmt_u>
  402362:	4d 39 e6             	cmp    %r12,%r14
  402365:	74 0d                	je     402374 <fmt_fp+0x966>
  402367:	4c 39 e8             	cmp    %r13,%rax
  40236a:	76 19                	jbe    402385 <fmt_fp+0x977>
  40236c:	48 ff c8             	dec    %rax
  40236f:	c6 00 30             	movb   $0x30,(%rax)
  402372:	eb f3                	jmp    402367 <fmt_fp+0x959>
  402374:	4c 39 f8             	cmp    %r15,%rax
  402377:	75 0c                	jne    402385 <fmt_fp+0x977>
  402379:	c6 84 24 37 1d 00 00 	movb   $0x30,0x1d37(%rsp)
  402380:	30 
  402381:	49 8d 45 08          	lea    0x8(%r13),%rax
  402385:	49 8d 55 09          	lea    0x9(%r13),%rdx
  402389:	48 8b 7c 24 08       	mov    0x8(%rsp),%rdi
  40238e:	48 89 c6             	mov    %rax,%rsi
  402391:	49 83 c4 04          	add    $0x4,%r12
  402395:	48 29 c2             	sub    %rax,%rdx
  402398:	e8 9f f5 ff ff       	call   40193c <out>
  40239d:	eb ac                	jmp    40234b <fmt_fp+0x93d>
  40239f:	83 7c 24 5c 00       	cmpl   $0x0,0x5c(%rsp)
  4023a4:	74 63                	je     402409 <fmt_fp+0x9fb>
  4023a6:	48 8b 7c 24 08       	mov    0x8(%rsp),%rdi
  4023ab:	ba 01 00 00 00       	mov    $0x1,%edx
  4023b0:	be fb 50 40 00       	mov    $0x4050fb,%esi
  4023b5:	4c 8d ac 24 2f 1d 00 	lea    0x1d2f(%rsp),%r13
  4023bc:	00 
  4023bd:	e8 7a f5 ff ff       	call   40193c <out>
  4023c2:	49 39 ec             	cmp    %rbp,%r12
  4023c5:	73 44                	jae    40240b <fmt_fp+0x9fd>
  4023c7:	85 db                	test   %ebx,%ebx
  4023c9:	7e 40                	jle    40240b <fmt_fp+0x9fd>
  4023cb:	41 8b 3c 24          	mov    (%r12),%edi
  4023cf:	49 8d 75 09          	lea    0x9(%r13),%rsi
  4023d3:	e8 09 f5 ff ff       	call   4018e1 <fmt_u>
  4023d8:	4c 39 e8             	cmp    %r13,%rax
  4023db:	76 08                	jbe    4023e5 <fmt_fp+0x9d7>
  4023dd:	48 ff c8             	dec    %rax
  4023e0:	c6 00 30             	movb   $0x30,(%rax)
  4023e3:	eb f3                	jmp    4023d8 <fmt_fp+0x9ca>
  4023e5:	83 fb 09             	cmp    $0x9,%ebx
  4023e8:	ba 09 00 00 00       	mov    $0x9,%edx
  4023ed:	48 8b 7c 24 08       	mov    0x8(%rsp),%rdi
  4023f2:	48 89 c6             	mov    %rax,%rsi
  4023f5:	0f 4e d3             	cmovle %ebx,%edx
  4023f8:	49 83 c4 04          	add    $0x4,%r12
  4023fc:	83 eb 09             	sub    $0x9,%ebx
  4023ff:	48 63 d2             	movslq %edx,%rdx
  402402:	e8 35 f5 ff ff       	call   40193c <out>
  402407:	eb b9                	jmp    4023c2 <fmt_fp+0x9b4>
  402409:	31 db                	xor    %ebx,%ebx
  40240b:	48 8b 7c 24 08       	mov    0x8(%rsp),%rdi
  402410:	8d 53 09             	lea    0x9(%rbx),%edx
  402413:	45 31 c0             	xor    %r8d,%r8d
  402416:	b9 09 00 00 00       	mov    $0x9,%ecx
  40241b:	be 30 00 00 00       	mov    $0x30,%esi
  402420:	e8 2e f5 ff ff       	call   401953 <pad>
  402425:	e9 f9 00 00 00       	jmp    402523 <fmt_fp+0xb15>
  40242a:	4c 39 fd             	cmp    %r15,%rbp
  40242d:	77 04                	ja     402433 <fmt_fp+0xa25>
  40242f:	49 8d 6f 04          	lea    0x4(%r15),%rbp
  402433:	4c 89 7c 24 28       	mov    %r15,0x28(%rsp)
  402438:	4c 8d ac 24 2f 1d 00 	lea    0x1d2f(%rsp),%r13
  40243f:	00 
  402440:	48 39 6c 24 28       	cmp    %rbp,0x28(%rsp)
  402445:	0f 83 a2 00 00 00    	jae    4024ed <fmt_fp+0xadf>
  40244b:	85 db                	test   %ebx,%ebx
  40244d:	0f 88 9a 00 00 00    	js     4024ed <fmt_fp+0xadf>
  402453:	48 8b 44 24 28       	mov    0x28(%rsp),%rax
  402458:	4d 8d 65 09          	lea    0x9(%r13),%r12
  40245c:	4c 89 e6             	mov    %r12,%rsi
  40245f:	8b 38                	mov    (%rax),%edi
  402461:	e8 7b f4 ff ff       	call   4018e1 <fmt_u>
  402466:	4c 39 e0             	cmp    %r12,%rax
  402469:	75 0c                	jne    402477 <fmt_fp+0xa69>
  40246b:	c6 84 24 37 1d 00 00 	movb   $0x30,0x1d37(%rsp)
  402472:	30 
  402473:	49 8d 45 08          	lea    0x8(%r13),%rax
  402477:	49 89 c4             	mov    %rax,%r12
  40247a:	4c 39 7c 24 28       	cmp    %r15,0x28(%rsp)
  40247f:	74 0f                	je     402490 <fmt_fp+0xa82>
  402481:	4d 39 ec             	cmp    %r13,%r12
  402484:	76 3b                	jbe    4024c1 <fmt_fp+0xab3>
  402486:	49 ff cc             	dec    %r12
  402489:	41 c6 04 24 30       	movb   $0x30,(%r12)
  40248e:	eb f1                	jmp    402481 <fmt_fp+0xa73>
  402490:	48 8b 7c 24 08       	mov    0x8(%rsp),%rdi
  402495:	48 89 c6             	mov    %rax,%rsi
  402498:	ba 01 00 00 00       	mov    $0x1,%edx
  40249d:	49 ff c4             	inc    %r12
  4024a0:	e8 97 f4 ff ff       	call   40193c <out>
  4024a5:	8b 44 24 30          	mov    0x30(%rsp),%eax
  4024a9:	09 d8                	or     %ebx,%eax
  4024ab:	74 14                	je     4024c1 <fmt_fp+0xab3>
  4024ad:	48 8b 7c 24 08       	mov    0x8(%rsp),%rdi
  4024b2:	ba 01 00 00 00       	mov    $0x1,%edx
  4024b7:	be fb 50 40 00       	mov    $0x4050fb,%esi
  4024bc:	e8 7b f4 ff ff       	call   40193c <out>
  4024c1:	4d 8d 75 09          	lea    0x9(%r13),%r14
  4024c5:	48 63 d3             	movslq %ebx,%rdx
  4024c8:	48 8b 7c 24 08       	mov    0x8(%rsp),%rdi
  4024cd:	4c 89 e6             	mov    %r12,%rsi
  4024d0:	4d 29 e6             	sub    %r12,%r14
  4024d3:	4c 39 f2             	cmp    %r14,%rdx
  4024d6:	49 0f 4f d6          	cmovg  %r14,%rdx
  4024da:	44 29 f3             	sub    %r14d,%ebx
  4024dd:	e8 5a f4 ff ff       	call   40193c <out>
  4024e2:	48 83 44 24 28 04    	addq   $0x4,0x28(%rsp)
  4024e8:	e9 53 ff ff ff       	jmp    402440 <fmt_fp+0xa32>
  4024ed:	48 8b 7c 24 08       	mov    0x8(%rsp),%rdi
  4024f2:	8d 53 12             	lea    0x12(%rbx),%edx
  4024f5:	be 30 00 00 00       	mov    $0x30,%esi
  4024fa:	45 31 c0             	xor    %r8d,%r8d
  4024fd:	b9 12 00 00 00       	mov    $0x12,%ecx
  402502:	e8 4c f4 ff ff       	call   401953 <pad>
  402507:	48 8b 74 24 48       	mov    0x48(%rsp),%rsi
  40250c:	48 8b 7c 24 08       	mov    0x8(%rsp),%rdi
  402511:	48 8d 94 24 2f 1d 00 	lea    0x1d2f(%rsp),%rdx
  402518:	00 
  402519:	48 2b 54 24 48       	sub    0x48(%rsp),%rdx
  40251e:	e8 19 f4 ff ff       	call   40193c <out>
  402523:	44 8b 44 24 58       	mov    0x58(%rsp),%r8d
  402528:	8b 4c 24 10          	mov    0x10(%rsp),%ecx
  40252c:	be 20 00 00 00       	mov    $0x20,%esi
  402531:	8b 54 24 24          	mov    0x24(%rsp),%edx
  402535:	48 8b 7c 24 08       	mov    0x8(%rsp),%rdi
  40253a:	41 81 f0 00 20 00 00 	xor    $0x2000,%r8d
  402541:	e8 0d f4 ff ff       	call   401953 <pad>
  402546:	8b 5c 24 24          	mov    0x24(%rsp),%ebx
  40254a:	39 5c 24 10          	cmp    %ebx,0x10(%rsp)
  40254e:	89 d8                	mov    %ebx,%eax
  402550:	0f 4d 44 24 10       	cmovge 0x10(%rsp),%eax
  402555:	48 8b 9c 24 48 1d 00 	mov    0x1d48(%rsp),%rbx
  40255c:	00 
  40255d:	64 48 33 1c 25 28 00 	xor    %fs:0x28,%rbx
  402564:	00 00 
  402566:	74 06                	je     40256e <fmt_fp+0xb60>
  402568:	67 e8 ab 11 00 00    	addr32 call 403719 <__stack_chk_fail>
  40256e:	48 81 c4 58 1d 00 00 	add    $0x1d58,%rsp
  402575:	5b                   	pop    %rbx
  402576:	5d                   	pop    %rbp
  402577:	41 5c                	pop    %r12
  402579:	41 5d                	pop    %r13
  40257b:	41 5e                	pop    %r14
  40257d:	41 5f                	pop    %r15
  40257f:	c3                   	ret

0000000000402580 <printf_core>:
  402580:	41 57                	push   %r15
  402582:	45 31 ff             	xor    %r15d,%r15d
  402585:	41 56                	push   %r14
  402587:	41 55                	push   %r13
  402589:	41 54                	push   %r12
  40258b:	55                   	push   %rbp
  40258c:	53                   	push   %rbx
  40258d:	48 81 ec b8 00 00 00 	sub    $0xb8,%rsp
  402594:	48 89 7c 24 10       	mov    %rdi,0x10(%rsp)
  402599:	48 89 54 24 18       	mov    %rdx,0x18(%rsp)
  40259e:	48 89 4c 24 30       	mov    %rcx,0x30(%rsp)
  4025a3:	4c 89 44 24 28       	mov    %r8,0x28(%rsp)
  4025a8:	64 48 8b 04 25 28 00 	mov    %fs:0x28,%rax
  4025af:	00 00 
  4025b1:	48 89 84 24 a8 00 00 	mov    %rax,0xa8(%rsp)
  4025b8:	00 
  4025b9:	31 c0                	xor    %eax,%eax
  4025bb:	48 89 74 24 50       	mov    %rsi,0x50(%rsp)
  4025c0:	c7 44 24 20 00 00 00 	movl   $0x0,0x20(%rsp)
  4025c7:	00 
  4025c8:	c7 44 24 24 00 00 00 	movl   $0x0,0x24(%rsp)
  4025cf:	00 
  4025d0:	4c 8b 64 24 50       	mov    0x50(%rsp),%r12
  4025d5:	44 01 7c 24 20       	add    %r15d,0x20(%rsp)
  4025da:	41 80 3c 24 00       	cmpb   $0x0,(%r12)
  4025df:	0f 84 ad 07 00 00    	je     402d92 <printf_core+0x812>
  4025e5:	4c 8b 6c 24 50       	mov    0x50(%rsp),%r13
  4025ea:	41 8a 45 00          	mov    0x0(%r13),%al
  4025ee:	84 c0                	test   %al,%al
  4025f0:	74 20                	je     402612 <printf_core+0x92>
  4025f2:	3c 25                	cmp    $0x25,%al
  4025f4:	74 1c                	je     402612 <printf_core+0x92>
  4025f6:	49 ff c5             	inc    %r13
  4025f9:	4c 89 6c 24 50       	mov    %r13,0x50(%rsp)
  4025fe:	eb e5                	jmp    4025e5 <printf_core+0x65>
  402600:	80 78 01 25          	cmpb   $0x25,0x1(%rax)
  402604:	75 16                	jne    40261c <printf_core+0x9c>
  402606:	48 83 c0 02          	add    $0x2,%rax
  40260a:	49 ff c5             	inc    %r13
  40260d:	48 89 44 24 50       	mov    %rax,0x50(%rsp)
  402612:	48 8b 44 24 50       	mov    0x50(%rsp),%rax
  402617:	80 38 25             	cmpb   $0x25,(%rax)
  40261a:	74 e4                	je     402600 <printf_core+0x80>
  40261c:	b8 ff ff ff 7f       	mov    $0x7fffffff,%eax
  402621:	2b 44 24 20          	sub    0x20(%rsp),%eax
  402625:	4d 29 e5             	sub    %r12,%r13
  402628:	89 44 24 3c          	mov    %eax,0x3c(%rsp)
  40262c:	48 98                	cltq
  40262e:	49 39 c5             	cmp    %rax,%r13
  402631:	0f 8f c8 07 00 00    	jg     402dff <printf_core+0x87f>
  402637:	48 83 7c 24 10 00    	cmpq   $0x0,0x10(%rsp)
  40263d:	45 89 ef             	mov    %r13d,%r15d
  402640:	74 10                	je     402652 <printf_core+0xd2>
  402642:	48 8b 7c 24 10       	mov    0x10(%rsp),%rdi
  402647:	49 63 d5             	movslq %r13d,%rdx
  40264a:	4c 89 e6             	mov    %r12,%rsi
  40264d:	e8 ea f2 ff ff       	call   40193c <out>
  402652:	45 85 ed             	test   %r13d,%r13d
  402655:	74 10                	je     402667 <printf_core+0xe7>
  402657:	44 39 7c 24 3c       	cmp    %r15d,0x3c(%rsp)
  40265c:	0f 8d 6e ff ff ff    	jge    4025d0 <printf_core+0x50>
  402662:	e9 98 07 00 00       	jmp    402dff <printf_core+0x87f>
  402667:	48 8b 44 24 50       	mov    0x50(%rsp),%rax
  40266c:	0f be 68 01          	movsbl 0x1(%rax),%ebp
  402670:	83 ed 30             	sub    $0x30,%ebp
  402673:	83 fd 09             	cmp    $0x9,%ebp
  402676:	77 14                	ja     40268c <printf_core+0x10c>
  402678:	80 78 02 24          	cmpb   $0x24,0x2(%rax)
  40267c:	75 0e                	jne    40268c <printf_core+0x10c>
  40267e:	48 83 c0 03          	add    $0x3,%rax
  402682:	c7 44 24 24 01 00 00 	movl   $0x1,0x24(%rsp)
  402689:	00 
  40268a:	eb 06                	jmp    402692 <printf_core+0x112>
  40268c:	48 ff c0             	inc    %rax
  40268f:	83 cd ff             	or     $0xffffffff,%ebp
  402692:	48 89 44 24 50       	mov    %rax,0x50(%rsp)
  402697:	be 89 28 01 00       	mov    $0x12889,%esi
  40269c:	bf 01 00 00 00       	mov    $0x1,%edi
  4026a1:	c7 44 24 0c 00 00 00 	movl   $0x0,0xc(%rsp)
  4026a8:	00 
  4026a9:	48 8b 44 24 50       	mov    0x50(%rsp),%rax
  4026ae:	0f be 08             	movsbl (%rax),%ecx
  4026b1:	89 ca                	mov    %ecx,%edx
  4026b3:	83 e9 20             	sub    $0x20,%ecx
  4026b6:	83 f9 1f             	cmp    $0x1f,%ecx
  4026b9:	77 17                	ja     4026d2 <printf_core+0x152>
  4026bb:	0f a3 ce             	bt     %ecx,%esi
  4026be:	73 12                	jae    4026d2 <printf_core+0x152>
  4026c0:	89 fa                	mov    %edi,%edx
  4026c2:	48 ff c0             	inc    %rax
  4026c5:	d3 e2                	shl    %cl,%edx
  4026c7:	48 89 44 24 50       	mov    %rax,0x50(%rsp)
  4026cc:	09 54 24 0c          	or     %edx,0xc(%rsp)
  4026d0:	eb d7                	jmp    4026a9 <printf_core+0x129>
  4026d2:	80 fa 2a             	cmp    $0x2a,%dl
  4026d5:	0f 85 bf 00 00 00    	jne    40279a <printf_core+0x21a>
  4026db:	48 0f be 48 01       	movsbq 0x1(%rax),%rcx
  4026e0:	48 89 ca             	mov    %rcx,%rdx
  4026e3:	83 e9 30             	sub    $0x30,%ecx
  4026e6:	83 f9 09             	cmp    $0x9,%ecx
  4026e9:	77 3f                	ja     40272a <printf_core+0x1aa>
  4026eb:	80 78 02 24          	cmpb   $0x24,0x2(%rax)
  4026ef:	75 39                	jne    40272a <printf_core+0x1aa>
  4026f1:	48 8b 4c 24 28       	mov    0x28(%rsp),%rcx
  4026f6:	48 8b 7c 24 30       	mov    0x30(%rsp),%rdi
  4026fb:	48 83 c0 03          	add    $0x3,%rax
  4026ff:	c7 44 24 24 01 00 00 	movl   $0x1,0x24(%rsp)
  402706:	00 
  402707:	c7 84 91 40 ff ff ff 	movl   $0xa,-0xc0(%rcx,%rdx,4)
  40270e:	0a 00 00 00 
  402712:	48 0f be 50 fe       	movsbq -0x2(%rax),%rdx
  402717:	48 89 44 24 50       	mov    %rax,0x50(%rsp)
  40271c:	48 c1 e2 04          	shl    $0x4,%rdx
  402720:	44 8b b4 17 00 fd ff 	mov    -0x300(%rdi,%rdx,1),%r14d
  402727:	ff 
  402728:	eb 5e                	jmp    402788 <printf_core+0x208>
  40272a:	83 7c 24 24 00       	cmpl   $0x0,0x24(%rsp)
  40272f:	74 10                	je     402741 <printf_core+0x1c1>
  402731:	e8 e5 0f 00 00       	call   40371b <__errno_location>
  402736:	c7 00 16 00 00 00    	movl   $0x16,(%rax)
  40273c:	e9 c9 06 00 00       	jmp    402e0a <printf_core+0x88a>
  402741:	48 83 7c 24 10 00    	cmpq   $0x0,0x10(%rsp)
  402747:	45 89 ee             	mov    %r13d,%r14d
  40274a:	74 37                	je     402783 <printf_core+0x203>
  40274c:	48 8b 44 24 18       	mov    0x18(%rsp),%rax
  402751:	8b 10                	mov    (%rax),%edx
  402753:	83 fa 2f             	cmp    $0x2f,%edx
  402756:	77 12                	ja     40276a <printf_core+0x1ea>
  402758:	48 8b 4c 24 18       	mov    0x18(%rsp),%rcx
  40275d:	89 d0                	mov    %edx,%eax
  40275f:	83 c2 08             	add    $0x8,%edx
  402762:	48 03 41 10          	add    0x10(%rcx),%rax
  402766:	89 11                	mov    %edx,(%rcx)
  402768:	eb 16                	jmp    402780 <printf_core+0x200>
  40276a:	48 8b 44 24 18       	mov    0x18(%rsp),%rax
  40276f:	48 8b 4c 24 18       	mov    0x18(%rsp),%rcx
  402774:	48 8b 40 08          	mov    0x8(%rax),%rax
  402778:	48 8d 50 08          	lea    0x8(%rax),%rdx
  40277c:	48 89 51 08          	mov    %rdx,0x8(%rcx)
  402780:	44 8b 30             	mov    (%rax),%r14d
  402783:	48 ff 44 24 50       	incq   0x50(%rsp)
  402788:	45 85 f6             	test   %r14d,%r14d
  40278b:	79 22                	jns    4027af <printf_core+0x22f>
  40278d:	81 4c 24 0c 00 20 00 	orl    $0x2000,0xc(%rsp)
  402794:	00 
  402795:	41 f7 de             	neg    %r14d
  402798:	eb 15                	jmp    4027af <printf_core+0x22f>
  40279a:	48 8d 7c 24 50       	lea    0x50(%rsp),%rdi
  40279f:	e8 5d f1 ff ff       	call   401901 <getint>
  4027a4:	41 89 c6             	mov    %eax,%r14d
  4027a7:	85 c0                	test   %eax,%eax
  4027a9:	0f 88 50 06 00 00    	js     402dff <printf_core+0x87f>
  4027af:	48 8b 44 24 50       	mov    0x50(%rsp),%rax
  4027b4:	80 38 2e             	cmpb   $0x2e,(%rax)
  4027b7:	0f 85 cd 00 00 00    	jne    40288a <printf_core+0x30a>
  4027bd:	80 78 01 2a          	cmpb   $0x2a,0x1(%rax)
  4027c1:	0f 85 a6 00 00 00    	jne    40286d <printf_core+0x2ed>
  4027c7:	48 0f be 48 02       	movsbq 0x2(%rax),%rcx
  4027cc:	48 89 ca             	mov    %rcx,%rdx
  4027cf:	83 e9 30             	sub    $0x30,%ecx
  4027d2:	83 f9 09             	cmp    $0x9,%ecx
  4027d5:	77 37                	ja     40280e <printf_core+0x28e>
  4027d7:	80 78 03 24          	cmpb   $0x24,0x3(%rax)
  4027db:	75 31                	jne    40280e <printf_core+0x28e>
  4027dd:	48 8b 4c 24 28       	mov    0x28(%rsp),%rcx
  4027e2:	48 8b 7c 24 30       	mov    0x30(%rsp),%rdi
  4027e7:	48 83 c0 04          	add    $0x4,%rax
  4027eb:	c7 84 91 40 ff ff ff 	movl   $0xa,-0xc0(%rcx,%rdx,4)
  4027f2:	0a 00 00 00 
  4027f6:	48 0f be 50 fe       	movsbq -0x2(%rax),%rdx
  4027fb:	48 89 44 24 50       	mov    %rax,0x50(%rsp)
  402800:	48 c1 e2 04          	shl    $0x4,%rdx
  402804:	48 63 9c 17 00 fd ff 	movslq -0x300(%rdi,%rdx,1),%rbx
  40280b:	ff 
  40280c:	eb 53                	jmp    402861 <printf_core+0x2e1>
  40280e:	83 7c 24 24 00       	cmpl   $0x0,0x24(%rsp)
  402813:	0f 85 18 ff ff ff    	jne    402731 <printf_core+0x1b1>
  402819:	48 83 7c 24 10 00    	cmpq   $0x0,0x10(%rsp)
  40281f:	49 63 dd             	movslq %r13d,%rbx
  402822:	74 37                	je     40285b <printf_core+0x2db>
  402824:	48 8b 44 24 18       	mov    0x18(%rsp),%rax
  402829:	8b 10                	mov    (%rax),%edx
  40282b:	83 fa 2f             	cmp    $0x2f,%edx
  40282e:	77 12                	ja     402842 <printf_core+0x2c2>
  402830:	48 8b 4c 24 18       	mov    0x18(%rsp),%rcx
  402835:	89 d0                	mov    %edx,%eax
  402837:	83 c2 08             	add    $0x8,%edx
  40283a:	48 03 41 10          	add    0x10(%rcx),%rax
  40283e:	89 11                	mov    %edx,(%rcx)
  402840:	eb 16                	jmp    402858 <printf_core+0x2d8>
  402842:	48 8b 44 24 18       	mov    0x18(%rsp),%rax
  402847:	48 8b 4c 24 18       	mov    0x18(%rsp),%rcx
  40284c:	48 8b 40 08          	mov    0x8(%rax),%rax
  402850:	48 8d 50 08          	lea    0x8(%rax),%rdx
  402854:	48 89 51 08          	mov    %rdx,0x8(%rcx)
  402858:	48 63 18             	movslq (%rax),%rbx
  40285b:	48 83 44 24 50 02    	addq   $0x2,0x50(%rsp)
  402861:	89 d8                	mov    %ebx,%eax
  402863:	f7 d0                	not    %eax
  402865:	c1 e8 1f             	shr    $0x1f,%eax
  402868:	41 89 c1             	mov    %eax,%r9d
  40286b:	eb 24                	jmp    402891 <printf_core+0x311>
  40286d:	48 ff c0             	inc    %rax
  402870:	48 8d 7c 24 50       	lea    0x50(%rsp),%rdi
  402875:	48 89 44 24 50       	mov    %rax,0x50(%rsp)
  40287a:	e8 82 f0 ff ff       	call   401901 <getint>
  40287f:	41 b9 01 00 00 00    	mov    $0x1,%r9d
  402885:	48 63 d8             	movslq %eax,%rbx
  402888:	eb 07                	jmp    402891 <printf_core+0x311>
  40288a:	45 89 e9             	mov    %r13d,%r9d
  40288d:	48 83 cb ff          	or     $0xffffffffffffffff,%rbx
  402891:	45 31 d2             	xor    %r10d,%r10d
  402894:	48 8b 44 24 50       	mov    0x50(%rsp),%rax
  402899:	0f be 10             	movsbl (%rax),%edx
  40289c:	83 ea 41             	sub    $0x41,%edx
  40289f:	83 fa 39             	cmp    $0x39,%edx
  4028a2:	0f 87 89 fe ff ff    	ja     402731 <printf_core+0x1b1>
  4028a8:	48 8d 50 01          	lea    0x1(%rax),%rdx
  4028ac:	48 89 54 24 50       	mov    %rdx,0x50(%rsp)
  4028b1:	44 89 d2             	mov    %r10d,%edx
  4028b4:	0f be 00             	movsbl (%rax),%eax
  4028b7:	48 6b d2 3a          	imul   $0x3a,%rdx,%rdx
  4028bb:	83 e8 41             	sub    $0x41,%eax
  4028be:	48 98                	cltq
  4028c0:	0f b6 b4 10 20 53 40 	movzbl 0x405320(%rax,%rdx,1),%esi
  4028c7:	00 
  4028c8:	8d 46 ff             	lea    -0x1(%rsi),%eax
  4028cb:	83 f8 07             	cmp    $0x7,%eax
  4028ce:	77 05                	ja     4028d5 <printf_core+0x355>
  4028d0:	41 89 f2             	mov    %esi,%r10d
  4028d3:	eb bf                	jmp    402894 <printf_core+0x314>
  4028d5:	85 f6                	test   %esi,%esi
  4028d7:	0f 84 54 fe ff ff    	je     402731 <printf_core+0x1b1>
  4028dd:	83 fe 1b             	cmp    $0x1b,%esi
  4028e0:	75 09                	jne    4028eb <printf_core+0x36b>
  4028e2:	85 ed                	test   %ebp,%ebp
  4028e4:	78 4e                	js     402934 <printf_core+0x3b4>
  4028e6:	e9 46 fe ff ff       	jmp    402731 <printf_core+0x1b1>
  4028eb:	85 ed                	test   %ebp,%ebp
  4028ed:	78 1f                	js     40290e <printf_core+0x38e>
  4028ef:	48 8b 44 24 28       	mov    0x28(%rsp),%rax
  4028f4:	48 63 ed             	movslq %ebp,%rbp
  4028f7:	89 34 a8             	mov    %esi,(%rax,%rbp,4)
  4028fa:	48 8b 44 24 30       	mov    0x30(%rsp),%rax
  4028ff:	48 c1 e5 04          	shl    $0x4,%rbp
  402903:	0f 28 04 28          	movaps (%rax,%rbp,1),%xmm0
  402907:	0f 29 44 24 60       	movaps %xmm0,0x60(%rsp)
  40290c:	eb 26                	jmp    402934 <printf_core+0x3b4>
  40290e:	48 83 7c 24 10 00    	cmpq   $0x0,0x10(%rsp)
  402914:	75 0d                	jne    402923 <printf_core+0x3a3>
  402916:	c7 44 24 20 00 00 00 	movl   $0x0,0x20(%rsp)
  40291d:	00 
  40291e:	e9 85 05 00 00       	jmp    402ea8 <printf_core+0x928>
  402923:	48 8b 54 24 18       	mov    0x18(%rsp),%rdx
  402928:	48 8d 7c 24 60       	lea    0x60(%rsp),%rdi
  40292d:	e8 4a ee ff ff       	call   40177c <pop_arg>
  402932:	eb 0c                	jmp    402940 <printf_core+0x3c0>
  402934:	48 83 7c 24 10 00    	cmpq   $0x0,0x10(%rsp)
  40293a:	0f 84 90 fc ff ff    	je     4025d0 <printf_core+0x50>
  402940:	48 8b 44 24 50       	mov    0x50(%rsp),%rax
  402945:	44 0f be 40 ff       	movsbl -0x1(%rax),%r8d
  40294a:	44 89 c5             	mov    %r8d,%ebp
  40294d:	45 85 d2             	test   %r10d,%r10d
  402950:	74 11                	je     402963 <printf_core+0x3e3>
  402952:	44 89 c0             	mov    %r8d,%eax
  402955:	83 e0 0f             	and    $0xf,%eax
  402958:	3c 03                	cmp    $0x3,%al
  40295a:	75 07                	jne    402963 <printf_core+0x3e3>
  40295c:	83 e5 df             	and    $0xffffffdf,%ebp
  40295f:	44 0f be c5          	movsbl %bpl,%r8d
  402963:	0f ba 64 24 0c 0d    	btl    $0xd,0xc(%rsp)
  402969:	73 08                	jae    402973 <printf_core+0x3f3>
  40296b:	81 64 24 0c ff ff fe 	andl   $0xfffeffff,0xc(%rsp)
  402972:	ff 
  402973:	41 8d 40 bf          	lea    -0x41(%r8),%eax
  402977:	83 f8 37             	cmp    $0x37,%eax
  40297a:	0f 87 22 03 00 00    	ja     402ca2 <printf_core+0x722>
  402980:	ff 24 c5 10 51 40 00 	jmp    *0x405110(,%rax,8)
  402987:	44 89 d0             	mov    %r10d,%eax
  40298a:	83 f8 07             	cmp    $0x7,%eax
  40298d:	0f 87 c4 fc ff ff    	ja     402657 <printf_core+0xd7>
  402993:	ff 24 c5 d0 52 40 00 	jmp    *0x4052d0(,%rax,8)
  40299a:	48 8b 44 24 60       	mov    0x60(%rsp),%rax
  40299f:	8b 4c 24 20          	mov    0x20(%rsp),%ecx
  4029a3:	89 08                	mov    %ecx,(%rax)
  4029a5:	e9 26 fc ff ff       	jmp    4025d0 <printf_core+0x50>
  4029aa:	48 8b 44 24 60       	mov    0x60(%rsp),%rax
  4029af:	8b 7c 24 20          	mov    0x20(%rsp),%edi
  4029b3:	66 89 38             	mov    %di,(%rax)
  4029b6:	e9 15 fc ff ff       	jmp    4025d0 <printf_core+0x50>
  4029bb:	48 8b 44 24 60       	mov    0x60(%rsp),%rax
  4029c0:	8a 5c 24 20          	mov    0x20(%rsp),%bl
  4029c4:	88 18                	mov    %bl,(%rax)
  4029c6:	e9 05 fc ff ff       	jmp    4025d0 <printf_core+0x50>
  4029cb:	48 63 44 24 20       	movslq 0x20(%rsp),%rax
  4029d0:	48 8b 54 24 60       	mov    0x60(%rsp),%rdx
  4029d5:	48 89 02             	mov    %rax,(%rdx)
  4029d8:	e9 f3 fb ff ff       	jmp    4025d0 <printf_core+0x50>
  4029dd:	83 fb 10             	cmp    $0x10,%ebx
  4029e0:	b8 10 00 00 00       	mov    $0x10,%eax
  4029e5:	41 b8 78 00 00 00    	mov    $0x78,%r8d
  4029eb:	0f 42 d8             	cmovb  %eax,%ebx
  4029ee:	83 4c 24 0c 08       	orl    $0x8,0xc(%rsp)
  4029f3:	48 8b 54 24 60       	mov    0x60(%rsp),%rdx
  4029f8:	44 89 c1             	mov    %r8d,%ecx
  4029fb:	4c 8d a4 24 a8 00 00 	lea    0xa8(%rsp),%r12
  402a02:	00 
  402a03:	83 e1 20             	and    $0x20,%ecx
  402a06:	48 89 d0             	mov    %rdx,%rax
  402a09:	48 85 c0             	test   %rax,%rax
  402a0c:	74 1c                	je     402a2a <printf_core+0x4aa>
  402a0e:	48 89 c6             	mov    %rax,%rsi
  402a11:	49 ff cc             	dec    %r12
  402a14:	48 c1 e8 04          	shr    $0x4,%rax
  402a18:	83 e6 0f             	and    $0xf,%esi
  402a1b:	40 8a be 10 53 40 00 	mov    0x405310(%rsi),%dil
  402a22:	09 cf                	or     %ecx,%edi
  402a24:	41 88 3c 24          	mov    %dil,(%r12)
  402a28:	eb df                	jmp    402a09 <printf_core+0x489>
  402a2a:	48 85 d2             	test   %rdx,%rdx
  402a2d:	0f 84 dd 00 00 00    	je     402b10 <printf_core+0x590>
  402a33:	f6 44 24 0c 08       	testb  $0x8,0xc(%rsp)
  402a38:	0f 84 d2 00 00 00    	je     402b10 <printf_core+0x590>
  402a3e:	41 c1 f8 04          	sar    $0x4,%r8d
  402a42:	41 bf 02 00 00 00    	mov    $0x2,%r15d
  402a48:	49 63 e8             	movslq %r8d,%rbp
  402a4b:	48 81 c5 fd 50 40 00 	add    $0x4050fd,%rbp
  402a52:	e9 c1 00 00 00       	jmp    402b18 <printf_core+0x598>
  402a57:	48 8b 44 24 60       	mov    0x60(%rsp),%rax
  402a5c:	4c 8d a4 24 a8 00 00 	lea    0xa8(%rsp),%r12
  402a63:	00 
  402a64:	48 85 c0             	test   %rax,%rax
  402a67:	74 15                	je     402a7e <printf_core+0x4fe>
  402a69:	89 c2                	mov    %eax,%edx
  402a6b:	49 ff cc             	dec    %r12
  402a6e:	48 c1 e8 03          	shr    $0x3,%rax
  402a72:	83 e2 07             	and    $0x7,%edx
  402a75:	83 c2 30             	add    $0x30,%edx
  402a78:	41 88 14 24          	mov    %dl,(%r12)
  402a7c:	eb e6                	jmp    402a64 <printf_core+0x4e4>
  402a7e:	f6 44 24 0c 08       	testb  $0x8,0xc(%rsp)
  402a83:	0f 84 87 00 00 00    	je     402b10 <printf_core+0x590>
  402a89:	48 8d 84 24 a8 00 00 	lea    0xa8(%rsp),%rax
  402a90:	00 
  402a91:	48 63 d3             	movslq %ebx,%rdx
  402a94:	4c 29 e0             	sub    %r12,%rax
  402a97:	48 39 d0             	cmp    %rdx,%rax
  402a9a:	7c 74                	jl     402b10 <printf_core+0x590>
  402a9c:	8d 58 01             	lea    0x1(%rax),%ebx
  402a9f:	eb 6f                	jmp    402b10 <printf_core+0x590>
  402aa1:	48 8b 44 24 60       	mov    0x60(%rsp),%rax
  402aa6:	48 85 c0             	test   %rax,%rax
  402aa9:	79 10                	jns    402abb <printf_core+0x53b>
  402aab:	48 f7 d8             	neg    %rax
  402aae:	41 bf 01 00 00 00    	mov    $0x1,%r15d
  402ab4:	48 89 44 24 60       	mov    %rax,0x60(%rsp)
  402ab9:	eb 2c                	jmp    402ae7 <printf_core+0x567>
  402abb:	0f ba 64 24 0c 0b    	btl    $0xb,0xc(%rsp)
  402ac1:	72 2b                	jb     402aee <printf_core+0x56e>
  402ac3:	8b 44 24 0c          	mov    0xc(%rsp),%eax
  402ac7:	41 bf 01 00 00 00    	mov    $0x1,%r15d
  402acd:	bd ff 50 40 00       	mov    $0x4050ff,%ebp
  402ad2:	83 e0 01             	and    $0x1,%eax
  402ad5:	b8 fd 50 40 00       	mov    $0x4050fd,%eax
  402ada:	45 0f 44 fd          	cmove  %r13d,%r15d
  402ade:	48 0f 44 e8          	cmove  %rax,%rbp
  402ae2:	eb 15                	jmp    402af9 <printf_core+0x579>
  402ae4:	45 89 ef             	mov    %r13d,%r15d
  402ae7:	bd fd 50 40 00       	mov    $0x4050fd,%ebp
  402aec:	eb 0b                	jmp    402af9 <printf_core+0x579>
  402aee:	41 bf 01 00 00 00    	mov    $0x1,%r15d
  402af4:	bd fe 50 40 00       	mov    $0x4050fe,%ebp
  402af9:	48 8b 7c 24 60       	mov    0x60(%rsp),%rdi
  402afe:	48 8d b4 24 a8 00 00 	lea    0xa8(%rsp),%rsi
  402b05:	00 
  402b06:	e8 d6 ed ff ff       	call   4018e1 <fmt_u>
  402b0b:	49 89 c4             	mov    %rax,%r12
  402b0e:	eb 08                	jmp    402b18 <printf_core+0x598>
  402b10:	45 89 ef             	mov    %r13d,%r15d
  402b13:	bd fd 50 40 00       	mov    $0x4050fd,%ebp
  402b18:	85 db                	test   %ebx,%ebx
  402b1a:	79 0b                	jns    402b27 <printf_core+0x5a7>
  402b1c:	44 89 c8             	mov    %r9d,%eax
  402b1f:	a8 01                	test   $0x1,%al
  402b21:	0f 85 d8 02 00 00    	jne    402dff <printf_core+0x87f>
  402b27:	45 85 c9             	test   %r9d,%r9d
  402b2a:	74 08                	je     402b34 <printf_core+0x5b4>
  402b2c:	81 64 24 0c ff ff fe 	andl   $0xfffeffff,0xc(%rsp)
  402b33:	ff 
  402b34:	48 83 7c 24 60 00    	cmpq   $0x0,0x60(%rsp)
  402b3a:	0f 94 c2             	sete   %dl
  402b3d:	85 db                	test   %ebx,%ebx
  402b3f:	75 08                	jne    402b49 <printf_core+0x5c9>
  402b41:	84 d2                	test   %dl,%dl
  402b43:	0f 85 68 01 00 00    	jne    402cb1 <printf_core+0x731>
  402b49:	4c 8d ac 24 a8 00 00 	lea    0xa8(%rsp),%r13
  402b50:	00 
  402b51:	0f b6 d2             	movzbl %dl,%edx
  402b54:	48 63 db             	movslq %ebx,%rbx
  402b57:	4c 89 e8             	mov    %r13,%rax
  402b5a:	4c 29 e0             	sub    %r12,%rax
  402b5d:	48 01 d0             	add    %rdx,%rax
  402b60:	48 39 d8             	cmp    %rbx,%rax
  402b63:	48 0f 4d d8          	cmovge %rax,%rbx
  402b67:	e9 53 01 00 00       	jmp    402cbf <printf_core+0x73f>
  402b6c:	48 8b 44 24 60       	mov    0x60(%rsp),%rax
  402b71:	bd fd 50 40 00       	mov    $0x4050fd,%ebp
  402b76:	81 64 24 0c ff ff fe 	andl   $0xfffeffff,0xc(%rsp)
  402b7d:	ff 
  402b7e:	bb 01 00 00 00       	mov    $0x1,%ebx
  402b83:	4c 8d ac 24 a8 00 00 	lea    0xa8(%rsp),%r13
  402b8a:	00 
  402b8b:	88 84 24 a7 00 00 00 	mov    %al,0xa7(%rsp)
  402b92:	48 8d 44 24 7d       	lea    0x7d(%rsp),%rax
  402b97:	4c 8d 60 2a          	lea    0x2a(%rax),%r12
  402b9b:	e9 1f 01 00 00       	jmp    402cbf <printf_core+0x73f>
  402ba0:	e8 76 0b 00 00       	call   40371b <__errno_location>
  402ba5:	8b 38                	mov    (%rax),%edi
  402ba7:	67 e8 b1 0b 00 00    	addr32 call 40375e <strerror>
  402bad:	49 89 c4             	mov    %rax,%r12
  402bb0:	eb 10                	jmp    402bc2 <printf_core+0x642>
  402bb2:	4c 8b 64 24 60       	mov    0x60(%rsp),%r12
  402bb7:	4d 85 e4             	test   %r12,%r12
  402bba:	75 06                	jne    402bc2 <printf_core+0x642>
  402bbc:	41 bc 07 51 40 00    	mov    $0x405107,%r12d
  402bc2:	85 db                	test   %ebx,%ebx
  402bc4:	be ff ff ff 7f       	mov    $0x7fffffff,%esi
  402bc9:	4c 89 e7             	mov    %r12,%rdi
  402bcc:	48 0f 49 f3          	cmovns %rbx,%rsi
  402bd0:	67 e8 8a 06 00 00    	addr32 call 403260 <strnlen>
  402bd6:	4d 8d 2c 04          	lea    (%r12,%rax,1),%r13
  402bda:	85 db                	test   %ebx,%ebx
  402bdc:	79 0b                	jns    402be9 <printf_core+0x669>
  402bde:	41 80 7d 00 00       	cmpb   $0x0,0x0(%r13)
  402be3:	0f 85 16 02 00 00    	jne    402dff <printf_core+0x87f>
  402be9:	89 c3                	mov    %eax,%ebx
  402beb:	81 64 24 0c ff ff fe 	andl   $0xfffeffff,0xc(%rsp)
  402bf2:	ff 
  402bf3:	bd fd 50 40 00       	mov    $0x4050fd,%ebp
  402bf8:	e9 c2 00 00 00       	jmp    402cbf <printf_core+0x73f>
  402bfd:	48 8b 44 24 60       	mov    0x60(%rsp),%rax
  402c02:	c7 44 24 5c 00 00 00 	movl   $0x0,0x5c(%rsp)
  402c09:	00 
  402c0a:	48 83 cb ff          	or     $0xffffffffffffffff,%rbx
  402c0e:	89 44 24 58          	mov    %eax,0x58(%rsp)
  402c12:	48 8d 44 24 58       	lea    0x58(%rsp),%rax
  402c17:	48 89 44 24 60       	mov    %rax,0x60(%rsp)
  402c1c:	4c 8b 64 24 60       	mov    0x60(%rsp),%r12
  402c21:	31 ed                	xor    %ebp,%ebp
  402c23:	48 39 eb             	cmp    %rbp,%rbx
  402c26:	0f 86 eb 01 00 00    	jbe    402e17 <printf_core+0x897>
  402c2c:	41 8b 34 24          	mov    (%r12),%esi
  402c30:	85 f6                	test   %esi,%esi
  402c32:	0f 84 df 01 00 00    	je     402e17 <printf_core+0x897>
  402c38:	48 8d 7c 24 4c       	lea    0x4c(%rsp),%rdi
  402c3d:	49 83 c4 04          	add    $0x4,%r12
  402c41:	67 e8 38 0c 00 00    	addr32 call 40387f <wctomb>
  402c47:	85 c0                	test   %eax,%eax
  402c49:	0f 88 bb 01 00 00    	js     402e0a <printf_core+0x88a>
  402c4f:	48 89 da             	mov    %rbx,%rdx
  402c52:	48 98                	cltq
  402c54:	48 29 ea             	sub    %rbp,%rdx
  402c57:	48 39 d0             	cmp    %rdx,%rax
  402c5a:	0f 87 b7 01 00 00    	ja     402e17 <printf_core+0x897>
  402c60:	48 01 c5             	add    %rax,%rbp
  402c63:	eb be                	jmp    402c23 <printf_core+0x6a3>
  402c65:	85 db                	test   %ebx,%ebx
  402c67:	79 0b                	jns    402c74 <printf_core+0x6f4>
  402c69:	44 89 c8             	mov    %r9d,%eax
  402c6c:	a8 01                	test   $0x1,%al
  402c6e:	0f 85 8b 01 00 00    	jne    402dff <printf_core+0x87f>
  402c74:	ff 74 24 68          	push   0x68(%rsp)
  402c78:	89 da                	mov    %ebx,%edx
  402c7a:	44 89 f6             	mov    %r14d,%esi
  402c7d:	ff 74 24 68          	push   0x68(%rsp)
  402c81:	8b 4c 24 1c          	mov    0x1c(%rsp),%ecx
  402c85:	48 8b 7c 24 20       	mov    0x20(%rsp),%rdi
  402c8a:	e8 7f ed ff ff       	call   401a0e <fmt_fp>
  402c8f:	41 89 c7             	mov    %eax,%r15d
  402c92:	58                   	pop    %rax
  402c93:	5a                   	pop    %rdx
  402c94:	45 85 ff             	test   %r15d,%r15d
  402c97:	0f 89 ba f9 ff ff    	jns    402657 <printf_core+0xd7>
  402c9d:	e9 5d 01 00 00       	jmp    402dff <printf_core+0x87f>
  402ca2:	bd fd 50 40 00       	mov    $0x4050fd,%ebp
  402ca7:	4c 8d ac 24 a8 00 00 	lea    0xa8(%rsp),%r13
  402cae:	00 
  402caf:	eb 0e                	jmp    402cbf <printf_core+0x73f>
  402cb1:	44 89 eb             	mov    %r13d,%ebx
  402cb4:	4c 8d ac 24 a8 00 00 	lea    0xa8(%rsp),%r13
  402cbb:	00 
  402cbc:	4d 89 ec             	mov    %r13,%r12
  402cbf:	48 63 c3             	movslq %ebx,%rax
  402cc2:	4d 29 e5             	sub    %r12,%r13
  402cc5:	4c 39 e8             	cmp    %r13,%rax
  402cc8:	b8 ff ff ff 7f       	mov    $0x7fffffff,%eax
  402ccd:	41 0f 4c dd          	cmovl  %r13d,%ebx
  402cd1:	44 29 f8             	sub    %r15d,%eax
  402cd4:	39 d8                	cmp    %ebx,%eax
  402cd6:	0f 8c 23 01 00 00    	jl     402dff <printf_core+0x87f>
  402cdc:	42 8d 04 3b          	lea    (%rbx,%r15,1),%eax
  402ce0:	44 39 f0             	cmp    %r14d,%eax
  402ce3:	89 44 24 38          	mov    %eax,0x38(%rsp)
  402ce7:	44 0f 4d f0          	cmovge %eax,%r14d
  402ceb:	44 39 74 24 3c       	cmp    %r14d,0x3c(%rsp)
  402cf0:	0f 8c 09 01 00 00    	jl     402dff <printf_core+0x87f>
  402cf6:	44 8b 44 24 0c       	mov    0xc(%rsp),%r8d
  402cfb:	48 8b 7c 24 10       	mov    0x10(%rsp),%rdi
  402d00:	89 c1                	mov    %eax,%ecx
  402d02:	44 89 f2             	mov    %r14d,%edx
  402d05:	be 20 00 00 00       	mov    $0x20,%esi
  402d0a:	e8 44 ec ff ff       	call   401953 <pad>
  402d0f:	48 8b 7c 24 10       	mov    0x10(%rsp),%rdi
  402d14:	49 63 d7             	movslq %r15d,%rdx
  402d17:	48 89 ee             	mov    %rbp,%rsi
  402d1a:	45 89 f7             	mov    %r14d,%r15d
  402d1d:	e8 1a ec ff ff       	call   40193c <out>
  402d22:	44 8b 44 24 0c       	mov    0xc(%rsp),%r8d
  402d27:	8b 4c 24 38          	mov    0x38(%rsp),%ecx
  402d2b:	44 89 f2             	mov    %r14d,%edx
  402d2e:	48 8b 7c 24 10       	mov    0x10(%rsp),%rdi
  402d33:	be 30 00 00 00       	mov    $0x30,%esi
  402d38:	41 81 f0 00 00 01 00 	xor    $0x10000,%r8d
  402d3f:	e8 0f ec ff ff       	call   401953 <pad>
  402d44:	48 8b 7c 24 10       	mov    0x10(%rsp),%rdi
  402d49:	45 31 c0             	xor    %r8d,%r8d
  402d4c:	44 89 e9             	mov    %r13d,%ecx
  402d4f:	89 da                	mov    %ebx,%edx
  402d51:	be 30 00 00 00       	mov    $0x30,%esi
  402d56:	e8 f8 eb ff ff       	call   401953 <pad>
  402d5b:	48 8b 7c 24 10       	mov    0x10(%rsp),%rdi
  402d60:	4c 89 ea             	mov    %r13,%rdx
  402d63:	4c 89 e6             	mov    %r12,%rsi
  402d66:	e8 d1 eb ff ff       	call   40193c <out>
  402d6b:	44 8b 44 24 0c       	mov    0xc(%rsp),%r8d
  402d70:	8b 4c 24 38          	mov    0x38(%rsp),%ecx
  402d74:	44 89 f2             	mov    %r14d,%edx
  402d77:	48 8b 7c 24 10       	mov    0x10(%rsp),%rdi
  402d7c:	be 20 00 00 00       	mov    $0x20,%esi
  402d81:	41 81 f0 00 20 00 00 	xor    $0x2000,%r8d
  402d88:	e8 c6 eb ff ff       	call   401953 <pad>
  402d8d:	e9 3e f8 ff ff       	jmp    4025d0 <printf_core+0x50>
  402d92:	48 83 7c 24 10 00    	cmpq   $0x0,0x10(%rsp)
  402d98:	0f 85 0a 01 00 00    	jne    402ea8 <printf_core+0x928>
  402d9e:	83 7c 24 24 00       	cmpl   $0x0,0x24(%rsp)
  402da3:	bb 01 00 00 00       	mov    $0x1,%ebx
  402da8:	0f 84 68 fb ff ff    	je     402916 <printf_core+0x396>
  402dae:	48 8b 44 24 28       	mov    0x28(%rsp),%rax
  402db3:	8b 34 98             	mov    (%rax,%rbx,4),%esi
  402db6:	85 f6                	test   %esi,%esi
  402db8:	74 35                	je     402def <printf_core+0x86f>
  402dba:	48 89 df             	mov    %rbx,%rdi
  402dbd:	48 8b 54 24 18       	mov    0x18(%rsp),%rdx
  402dc2:	48 ff c3             	inc    %rbx
  402dc5:	48 c1 e7 04          	shl    $0x4,%rdi
  402dc9:	48 03 7c 24 30       	add    0x30(%rsp),%rdi
  402dce:	e8 a9 e9 ff ff       	call   40177c <pop_arg>
  402dd3:	48 83 fb 0a          	cmp    $0xa,%rbx
  402dd7:	75 d5                	jne    402dae <printf_core+0x82e>
  402dd9:	c7 44 24 20 01 00 00 	movl   $0x1,0x20(%rsp)
  402de0:	00 
  402de1:	e9 c2 00 00 00       	jmp    402ea8 <printf_core+0x928>
  402de6:	48 ff c3             	inc    %rbx
  402de9:	48 83 fb 0a          	cmp    $0xa,%rbx
  402ded:	74 ea                	je     402dd9 <printf_core+0x859>
  402def:	48 8b 44 24 28       	mov    0x28(%rsp),%rax
  402df4:	83 3c 98 00          	cmpl   $0x0,(%rax,%rbx,4)
  402df8:	74 ec                	je     402de6 <printf_core+0x866>
  402dfa:	e9 32 f9 ff ff       	jmp    402731 <printf_core+0x1b1>
  402dff:	e8 17 09 00 00       	call   40371b <__errno_location>
  402e04:	c7 00 4b 00 00 00    	movl   $0x4b,(%rax)
  402e0a:	c7 44 24 20 ff ff ff 	movl   $0xffffffff,0x20(%rsp)
  402e11:	ff 
  402e12:	e9 91 00 00 00       	jmp    402ea8 <printf_core+0x928>
  402e17:	48 81 fd ff ff ff 7f 	cmp    $0x7fffffff,%rbp
  402e1e:	77 df                	ja     402dff <printf_core+0x87f>
  402e20:	44 8b 44 24 0c       	mov    0xc(%rsp),%r8d
  402e25:	48 8b 7c 24 10       	mov    0x10(%rsp),%rdi
  402e2a:	89 e9                	mov    %ebp,%ecx
  402e2c:	44 89 f2             	mov    %r14d,%edx
  402e2f:	be 20 00 00 00       	mov    $0x20,%esi
  402e34:	41 89 ef             	mov    %ebp,%r15d
  402e37:	31 db                	xor    %ebx,%ebx
  402e39:	e8 15 eb ff ff       	call   401953 <pad>
  402e3e:	4c 8b 6c 24 60       	mov    0x60(%rsp),%r13
  402e43:	48 39 dd             	cmp    %rbx,%rbp
  402e46:	77 2d                	ja     402e75 <printf_core+0x8f5>
  402e48:	44 8b 44 24 0c       	mov    0xc(%rsp),%r8d
  402e4d:	48 8b 7c 24 10       	mov    0x10(%rsp),%rdi
  402e52:	44 89 f9             	mov    %r15d,%ecx
  402e55:	44 89 f2             	mov    %r14d,%edx
  402e58:	be 20 00 00 00       	mov    $0x20,%esi
  402e5d:	41 81 f0 00 20 00 00 	xor    $0x2000,%r8d
  402e64:	e8 ea ea ff ff       	call   401953 <pad>
  402e69:	45 39 fe             	cmp    %r15d,%r14d
  402e6c:	45 0f 4d fe          	cmovge %r14d,%r15d
  402e70:	e9 e2 f7 ff ff       	jmp    402657 <printf_core+0xd7>
  402e75:	41 8b 75 00          	mov    0x0(%r13),%esi
  402e79:	85 f6                	test   %esi,%esi
  402e7b:	74 cb                	je     402e48 <printf_core+0x8c8>
  402e7d:	48 8d 7c 24 4c       	lea    0x4c(%rsp),%rdi
  402e82:	49 83 c5 04          	add    $0x4,%r13
  402e86:	67 e8 f3 09 00 00    	addr32 call 40387f <wctomb>
  402e8c:	48 63 d0             	movslq %eax,%rdx
  402e8f:	48 01 d3             	add    %rdx,%rbx
  402e92:	48 39 eb             	cmp    %rbp,%rbx
  402e95:	77 b1                	ja     402e48 <printf_core+0x8c8>
  402e97:	48 8b 7c 24 10       	mov    0x10(%rsp),%rdi
  402e9c:	48 8d 74 24 4c       	lea    0x4c(%rsp),%rsi
  402ea1:	e8 96 ea ff ff       	call   40193c <out>
  402ea6:	eb 9b                	jmp    402e43 <printf_core+0x8c3>
  402ea8:	48 8b 9c 24 a8 00 00 	mov    0xa8(%rsp),%rbx
  402eaf:	00 
  402eb0:	64 48 33 1c 25 28 00 	xor    %fs:0x28,%rbx
  402eb7:	00 00 
  402eb9:	8b 44 24 20          	mov    0x20(%rsp),%eax
  402ebd:	74 06                	je     402ec5 <printf_core+0x945>
  402ebf:	67 e8 54 08 00 00    	addr32 call 403719 <__stack_chk_fail>
  402ec5:	48 81 c4 b8 00 00 00 	add    $0xb8,%rsp
  402ecc:	5b                   	pop    %rbx
  402ecd:	5d                   	pop    %rbp
  402ece:	41 5c                	pop    %r12
  402ed0:	41 5d                	pop    %r13
  402ed2:	41 5e                	pop    %r14
  402ed4:	41 5f                	pop    %r15
  402ed6:	c3                   	ret

0000000000402ed7 <vfprintf>:
  402ed7:	41 57                	push   %r15
  402ed9:	b9 0a 00 00 00       	mov    $0xa,%ecx
  402ede:	49 89 f7             	mov    %rsi,%r15
  402ee1:	41 56                	push   %r14
  402ee3:	41 55                	push   %r13
  402ee5:	41 54                	push   %r12
  402ee7:	55                   	push   %rbp
  402ee8:	83 cd ff             	or     $0xffffffff,%ebp
  402eeb:	53                   	push   %rbx
  402eec:	48 89 fb             	mov    %rdi,%rbx
  402eef:	48 81 ec 48 01 00 00 	sub    $0x148,%rsp
  402ef6:	64 48 8b 04 25 28 00 	mov    %fs:0x28,%rax
  402efd:	00 00 
  402eff:	48 89 84 24 38 01 00 	mov    %rax,0x138(%rsp)
  402f06:	00 
  402f07:	31 c0                	xor    %eax,%eax
  402f09:	48 8d 7c 24 18       	lea    0x18(%rsp),%rdi
  402f0e:	4c 8d 44 24 18       	lea    0x18(%rsp),%r8
  402f13:	f3 ab                	rep stos %eax,%es:(%rdi)
  402f15:	48 8d 4c 24 40       	lea    0x40(%rsp),%rcx
  402f1a:	31 ff                	xor    %edi,%edi
  402f1c:	0f 10 02             	movups (%rdx),%xmm0
  402f1f:	0f 11 04 24          	movups %xmm0,(%rsp)
  402f23:	48 8b 42 10          	mov    0x10(%rdx),%rax
  402f27:	48 89 e2             	mov    %rsp,%rdx
  402f2a:	48 89 44 24 10       	mov    %rax,0x10(%rsp)
  402f2f:	e8 4c f6 ff ff       	call   402580 <printf_core>
  402f34:	85 c0                	test   %eax,%eax
  402f36:	0f 88 fe 00 00 00    	js     40303a <vfprintf+0x163>
  402f3c:	8b 83 8c 00 00 00    	mov    0x8c(%rbx),%eax
  402f42:	45 31 f6             	xor    %r14d,%r14d
  402f45:	85 c0                	test   %eax,%eax
  402f47:	78 0b                	js     402f54 <vfprintf+0x7d>
  402f49:	48 89 df             	mov    %rbx,%rdi
  402f4c:	e8 41 09 00 00       	call   403892 <__lockfile>
  402f51:	41 89 c6             	mov    %eax,%r14d
  402f54:	8b 03                	mov    (%rbx),%eax
  402f56:	41 89 c5             	mov    %eax,%r13d
  402f59:	41 83 e5 20          	and    $0x20,%r13d
  402f5d:	83 bb 88 00 00 00 00 	cmpl   $0x0,0x88(%rbx)
  402f64:	7f 05                	jg     402f6b <vfprintf+0x94>
  402f66:	83 e0 df             	and    $0xffffffdf,%eax
  402f69:	89 03                	mov    %eax,(%rbx)
  402f6b:	48 83 7b 60 00       	cmpq   $0x0,0x60(%rbx)
  402f70:	75 32                	jne    402fa4 <vfprintf+0xcd>
  402f72:	48 8d 84 24 e8 00 00 	lea    0xe8(%rsp),%rax
  402f79:	00 
  402f7a:	4c 8b 63 58          	mov    0x58(%rbx),%r12
  402f7e:	48 c7 43 60 50 00 00 	movq   $0x50,0x60(%rbx)
  402f85:	00 
  402f86:	48 89 43 58          	mov    %rax,0x58(%rbx)
  402f8a:	48 c7 43 20 00 00 00 	movq   $0x0,0x20(%rbx)
  402f91:	00 
  402f92:	48 c7 43 38 00 00 00 	movq   $0x0,0x38(%rbx)
  402f99:	00 
  402f9a:	48 c7 43 28 00 00 00 	movq   $0x0,0x28(%rbx)
  402fa1:	00 
  402fa2:	eb 09                	jmp    402fad <vfprintf+0xd6>
  402fa4:	4c 8b 63 20          	mov    0x20(%rbx),%r12
  402fa8:	4d 85 e4             	test   %r12,%r12
  402fab:	75 11                	jne    402fbe <vfprintf+0xe7>
  402fad:	48 89 df             	mov    %rbx,%rdi
  402fb0:	83 cd ff             	or     $0xffffffff,%ebp
  402fb3:	e8 55 0b 00 00       	call   403b0d <__towrite>
  402fb8:	85 c0                	test   %eax,%eax
  402fba:	75 1f                	jne    402fdb <vfprintf+0x104>
  402fbc:	eb 03                	jmp    402fc1 <vfprintf+0xea>
  402fbe:	45 31 e4             	xor    %r12d,%r12d
  402fc1:	4c 8d 44 24 18       	lea    0x18(%rsp),%r8
  402fc6:	48 8d 4c 24 40       	lea    0x40(%rsp),%rcx
  402fcb:	48 89 e2             	mov    %rsp,%rdx
  402fce:	4c 89 fe             	mov    %r15,%rsi
  402fd1:	48 89 df             	mov    %rbx,%rdi
  402fd4:	e8 a7 f5 ff ff       	call   402580 <printf_core>
  402fd9:	89 c5                	mov    %eax,%ebp
  402fdb:	4d 85 e4             	test   %r12,%r12
  402fde:	74 3b                	je     40301b <vfprintf+0x144>
  402fe0:	31 d2                	xor    %edx,%edx
  402fe2:	31 f6                	xor    %esi,%esi
  402fe4:	48 89 df             	mov    %rbx,%rdi
  402fe7:	ff 53 48             	call   *0x48(%rbx)
  402fea:	48 83 7b 28 00       	cmpq   $0x0,0x28(%rbx)
  402fef:	b8 ff ff ff ff       	mov    $0xffffffff,%eax
  402ff4:	4c 89 63 58          	mov    %r12,0x58(%rbx)
  402ff8:	48 c7 43 60 00 00 00 	movq   $0x0,0x60(%rbx)
  402fff:	00 
  403000:	0f 44 e8             	cmove  %eax,%ebp
  403003:	48 c7 43 20 00 00 00 	movq   $0x0,0x20(%rbx)
  40300a:	00 
  40300b:	48 c7 43 38 00 00 00 	movq   $0x0,0x38(%rbx)
  403012:	00 
  403013:	48 c7 43 28 00 00 00 	movq   $0x0,0x28(%rbx)
  40301a:	00 
  40301b:	8b 03                	mov    (%rbx),%eax
  40301d:	ba ff ff ff ff       	mov    $0xffffffff,%edx
  403022:	a8 20                	test   $0x20,%al
  403024:	0f 45 ea             	cmovne %edx,%ebp
  403027:	41 09 c5             	or     %eax,%r13d
  40302a:	44 89 2b             	mov    %r13d,(%rbx)
  40302d:	45 85 f6             	test   %r14d,%r14d
  403030:	74 08                	je     40303a <vfprintf+0x163>
  403032:	48 89 df             	mov    %rbx,%rdi
  403035:	e8 02 09 00 00       	call   40393c <__unlockfile>
  40303a:	48 8b b4 24 38 01 00 	mov    0x138(%rsp),%rsi
  403041:	00 
  403042:	64 48 33 34 25 28 00 	xor    %fs:0x28,%rsi
  403049:	00 00 
  40304b:	89 e8                	mov    %ebp,%eax
  40304d:	74 06                	je     403055 <vfprintf+0x17e>
  40304f:	67 e8 c4 06 00 00    	addr32 call 403719 <__stack_chk_fail>
  403055:	48 81 c4 48 01 00 00 	add    $0x148,%rsp
  40305c:	5b                   	pop    %rbx
  40305d:	5d                   	pop    %rbp
  40305e:	41 5c                	pop    %r12
  403060:	41 5d                	pop    %r13
  403062:	41 5e                	pop    %r14
  403064:	41 5f                	pop    %r15
  403066:	c3                   	ret
  403067:	66 0f 1f 84 00 00 00 	nopw   0x0(%rax,%rax,1)
  40306e:	00 00 

0000000000403070 <memchr>:
  403070:	40 0f b6 f6          	movzbl %sil,%esi
  403074:	40 f6 c7 07          	test   $0x7,%dil
  403078:	74 38                	je     4030b2 <memchr+0x42>
  40307a:	48 85 d2             	test   %rdx,%rdx
  40307d:	0f 84 f5 00 00 00    	je     403178 <memchr+0x108>
  403083:	0f b6 07             	movzbl (%rdi),%eax
  403086:	39 c6                	cmp    %eax,%esi
  403088:	75 1a                	jne    4030a4 <memchr+0x34>
  40308a:	e9 f1 00 00 00       	jmp    403180 <memchr+0x110>
  40308f:	90                   	nop
  403090:	48 85 d2             	test   %rdx,%rdx
  403093:	0f 84 df 00 00 00    	je     403178 <memchr+0x108>
  403099:	0f b6 07             	movzbl (%rdi),%eax
  40309c:	39 f0                	cmp    %esi,%eax
  40309e:	0f 84 dc 00 00 00    	je     403180 <memchr+0x110>
  4030a4:	48 83 c7 01          	add    $0x1,%rdi
  4030a8:	48 83 ea 01          	sub    $0x1,%rdx
  4030ac:	40 f6 c7 07          	test   $0x7,%dil
  4030b0:	75 de                	jne    403090 <memchr+0x20>
  4030b2:	31 c0                	xor    %eax,%eax
  4030b4:	48 85 d2             	test   %rdx,%rdx
  4030b7:	0f 84 b3 00 00 00    	je     403170 <memchr+0x100>
  4030bd:	0f b6 07             	movzbl (%rdi),%eax
  4030c0:	39 f0                	cmp    %esi,%eax
  4030c2:	0f 84 b8 00 00 00    	je     403180 <memchr+0x110>
  4030c8:	49 b8 01 01 01 01 01 	movabs $0x101010101010101,%r8
  4030cf:	01 01 01 
  4030d2:	4c 63 ce             	movslq %esi,%r9
  4030d5:	4d 0f af c8          	imul   %r8,%r9
  4030d9:	48 83 fa 07          	cmp    $0x7,%rdx
  4030dd:	0f 86 ab 00 00 00    	jbe    40318e <memchr+0x11e>
  4030e3:	49 ba 80 80 80 80 80 	movabs $0x8080808080808080,%r10
  4030ea:	80 80 80 
  4030ed:	48 8b 07             	mov    (%rdi),%rax
  4030f0:	4c 31 c8             	xor    %r9,%rax
  4030f3:	48 89 c1             	mov    %rax,%rcx
  4030f6:	4c 29 c0             	sub    %r8,%rax
  4030f9:	48 f7 d1             	not    %rcx
  4030fc:	48 21 c8             	and    %rcx,%rax
  4030ff:	4c 85 d0             	test   %r10,%rax
  403102:	0f 85 86 00 00 00    	jne    40318e <memchr+0x11e>
  403108:	49 bb ff fe fe fe fe 	movabs $0xfefefefefefefeff,%r11
  40310f:	fe fe fe 
  403112:	eb 1d                	jmp    403131 <memchr+0xc1>
  403114:	0f 1f 40 00          	nopl   0x0(%rax)
  403118:	48 8b 4f 08          	mov    0x8(%rdi),%rcx
  40311c:	4c 31 c9             	xor    %r9,%rcx
  40311f:	4e 8d 04 19          	lea    (%rcx,%r11,1),%r8
  403123:	48 f7 d1             	not    %rcx
  403126:	4c 21 c1             	and    %r8,%rcx
  403129:	4c 85 d1             	test   %r10,%rcx
  40312c:	75 5a                	jne    403188 <memchr+0x118>
  40312e:	48 89 c7             	mov    %rax,%rdi
  403131:	48 83 ea 08          	sub    $0x8,%rdx
  403135:	48 8d 47 08          	lea    0x8(%rdi),%rax
  403139:	48 83 fa 07          	cmp    $0x7,%rdx
  40313d:	77 d9                	ja     403118 <memchr+0xa8>
  40313f:	48 85 d2             	test   %rdx,%rdx
  403142:	74 34                	je     403178 <memchr+0x108>
  403144:	0f b6 08             	movzbl (%rax),%ecx
  403147:	39 ce                	cmp    %ecx,%esi
  403149:	74 48                	je     403193 <memchr+0x123>
  40314b:	48 8d 48 01          	lea    0x1(%rax),%rcx
  40314f:	48 01 c2             	add    %rax,%rdx
  403152:	66 0f 1f 44 00 00    	nopw   0x0(%rax,%rax,1)
  403158:	48 89 c8             	mov    %rcx,%rax
  40315b:	48 39 ca             	cmp    %rcx,%rdx
  40315e:	74 18                	je     403178 <memchr+0x108>
  403160:	0f b6 38             	movzbl (%rax),%edi
  403163:	48 83 c1 01          	add    $0x1,%rcx
  403167:	39 f7                	cmp    %esi,%edi
  403169:	75 ed                	jne    403158 <memchr+0xe8>
  40316b:	c3                   	ret
  40316c:	0f 1f 40 00          	nopl   0x0(%rax)
  403170:	c3                   	ret
  403171:	0f 1f 80 00 00 00 00 	nopl   0x0(%rax)
  403178:	31 c0                	xor    %eax,%eax
  40317a:	c3                   	ret
  40317b:	0f 1f 44 00 00       	nopl   0x0(%rax,%rax,1)
  403180:	48 89 f8             	mov    %rdi,%rax
  403183:	eb bf                	jmp    403144 <memchr+0xd4>
  403185:	0f 1f 00             	nopl   (%rax)
  403188:	0f b6 4f 08          	movzbl 0x8(%rdi),%ecx
  40318c:	eb b9                	jmp    403147 <memchr+0xd7>
  40318e:	48 89 f8             	mov    %rdi,%rax
  403191:	eb b8                	jmp    40314b <memchr+0xdb>
  403193:	c3                   	ret
  403194:	66 2e 0f 1f 84 00 00 	cs nopw 0x0(%rax,%rax,1)
  40319b:	00 00 00 
  40319e:	66 90                	xchg   %ax,%ax

00000000004031a0 <strcmp>:
  4031a0:	0f b6 07             	movzbl (%rdi),%eax
  4031a3:	0f b6 16             	movzbl (%rsi),%edx
  4031a6:	38 c2                	cmp    %al,%dl
  4031a8:	75 25                	jne    4031cf <strcmp+0x2f>
  4031aa:	84 d2                	test   %dl,%dl
  4031ac:	74 2a                	je     4031d8 <strcmp+0x38>
  4031ae:	b8 01 00 00 00       	mov    $0x1,%eax
  4031b3:	eb 0b                	jmp    4031c0 <strcmp+0x20>
  4031b5:	0f 1f 00             	nopl   (%rax)
  4031b8:	48 83 c0 01          	add    $0x1,%rax
  4031bc:	84 d2                	test   %dl,%dl
  4031be:	74 18                	je     4031d8 <strcmp+0x38>
  4031c0:	0f b6 0c 07          	movzbl (%rdi,%rax,1),%ecx
  4031c4:	0f b6 14 06          	movzbl (%rsi,%rax,1),%edx
  4031c8:	38 d1                	cmp    %dl,%cl
  4031ca:	74 ec                	je     4031b8 <strcmp+0x18>
  4031cc:	0f b6 c1             	movzbl %cl,%eax
  4031cf:	29 d0                	sub    %edx,%eax
  4031d1:	c3                   	ret
  4031d2:	66 0f 1f 44 00 00    	nopw   0x0(%rax,%rax,1)
  4031d8:	31 c0                	xor    %eax,%eax
  4031da:	29 d0                	sub    %edx,%eax
  4031dc:	c3                   	ret
  4031dd:	0f 1f 00             	nopl   (%rax)

00000000004031e0 <strlen>:
  4031e0:	40 f6 c7 07          	test   $0x7,%dil
  4031e4:	74 67                	je     40324d <strlen+0x6d>
  4031e6:	80 3f 00             	cmpb   $0x0,(%rdi)
  4031e9:	74 67                	je     403252 <strlen+0x72>
  4031eb:	48 89 f8             	mov    %rdi,%rax
  4031ee:	eb 05                	jmp    4031f5 <strlen+0x15>
  4031f0:	80 38 00             	cmpb   $0x0,(%rax)
  4031f3:	74 54                	je     403249 <strlen+0x69>
  4031f5:	48 83 c0 01          	add    $0x1,%rax
  4031f9:	a8 07                	test   $0x7,%al
  4031fb:	75 f3                	jne    4031f0 <strlen+0x10>
  4031fd:	49 b8 ff fe fe fe fe 	movabs $0xfefefefefefefeff,%r8
  403204:	fe fe fe 
  403207:	48 8b 10             	mov    (%rax),%rdx
  40320a:	48 be 80 80 80 80 80 	movabs $0x8080808080808080,%rsi
  403211:	80 80 80 
  403214:	4a 8d 0c 02          	lea    (%rdx,%r8,1),%rcx
  403218:	48 f7 d2             	not    %rdx
  40321b:	48 21 ca             	and    %rcx,%rdx
  40321e:	48 85 f2             	test   %rsi,%rdx
  403221:	75 21                	jne    403244 <strlen+0x64>
  403223:	0f 1f 44 00 00       	nopl   0x0(%rax,%rax,1)
  403228:	48 83 c0 08          	add    $0x8,%rax
  40322c:	48 8b 10             	mov    (%rax),%rdx
  40322f:	4a 8d 0c 02          	lea    (%rdx,%r8,1),%rcx
  403233:	48 f7 d2             	not    %rdx
  403236:	48 21 ca             	and    %rcx,%rdx
  403239:	48 85 f2             	test   %rsi,%rdx
  40323c:	74 ea                	je     403228 <strlen+0x48>
  40323e:	eb 04                	jmp    403244 <strlen+0x64>
  403240:	48 83 c0 01          	add    $0x1,%rax
  403244:	80 38 00             	cmpb   $0x0,(%rax)
  403247:	75 f7                	jne    403240 <strlen+0x60>
  403249:	48 29 f8             	sub    %rdi,%rax
  40324c:	c3                   	ret
  40324d:	48 89 f8             	mov    %rdi,%rax
  403250:	eb ab                	jmp    4031fd <strlen+0x1d>
  403252:	31 c0                	xor    %eax,%eax
  403254:	c3                   	ret
  403255:	66 2e 0f 1f 84 00 00 	cs nopw 0x0(%rax,%rax,1)
  40325c:	00 00 00 
  40325f:	90                   	nop

0000000000403260 <strnlen>:
  403260:	55                   	push   %rbp
  403261:	48 89 f2             	mov    %rsi,%rdx
  403264:	48 89 fd             	mov    %rdi,%rbp
  403267:	53                   	push   %rbx
  403268:	48 89 f3             	mov    %rsi,%rbx
  40326b:	31 f6                	xor    %esi,%esi
  40326d:	48 83 ec 08          	sub    $0x8,%rsp
  403271:	67 e8 f9 fd ff ff    	addr32 call 403070 <memchr>
  403277:	48 89 c6             	mov    %rax,%rsi
  40327a:	48 29 ee             	sub    %rbp,%rsi
  40327d:	48 85 c0             	test   %rax,%rax
  403280:	48 89 d8             	mov    %rbx,%rax
  403283:	48 0f 45 c6          	cmovne %rsi,%rax
  403287:	48 83 c4 08          	add    $0x8,%rsp
  40328b:	5b                   	pop    %rbx
  40328c:	5d                   	pop    %rbp
  40328d:	c3                   	ret

000000000040328e <memcpy>:
  40328e:	48 89 f8             	mov    %rdi,%rax
  403291:	48 83 fa 08          	cmp    $0x8,%rdx
  403295:	72 14                	jb     4032ab <memcpy+0x1d>
  403297:	f7 c7 07 00 00 00    	test   $0x7,%edi
  40329d:	74 0c                	je     4032ab <memcpy+0x1d>
  40329f:	a4                   	movsb  %ds:(%rsi),%es:(%rdi)
  4032a0:	48 ff ca             	dec    %rdx
  4032a3:	f7 c7 07 00 00 00    	test   $0x7,%edi
  4032a9:	75 f4                	jne    40329f <memcpy+0x11>
  4032ab:	48 89 d1             	mov    %rdx,%rcx
  4032ae:	48 c1 e9 03          	shr    $0x3,%rcx
  4032b2:	f3 48 a5             	rep movsq %ds:(%rsi),%es:(%rdi)
  4032b5:	83 e2 07             	and    $0x7,%edx
  4032b8:	74 05                	je     4032bf <memcpy+0x31>
  4032ba:	a4                   	movsb  %ds:(%rsi),%es:(%rdi)
  4032bb:	ff ca                	dec    %edx
  4032bd:	75 fb                	jne    4032ba <memcpy+0x2c>
  4032bf:	c3                   	ret

00000000004032c0 <memset>:
  4032c0:	48 0f b6 c6          	movzbq %sil,%rax
  4032c4:	49 b8 01 01 01 01 01 	movabs $0x101010101010101,%r8
  4032cb:	01 01 01 
  4032ce:	49 0f af c0          	imul   %r8,%rax
  4032d2:	48 83 fa 7e          	cmp    $0x7e,%rdx
  4032d6:	77 78                	ja     403350 <memset+0x90>
  4032d8:	85 d2                	test   %edx,%edx
  4032da:	74 70                	je     40334c <memset+0x8c>
  4032dc:	40 88 37             	mov    %sil,(%rdi)
  4032df:	40 88 74 17 ff       	mov    %sil,-0x1(%rdi,%rdx,1)
  4032e4:	83 fa 02             	cmp    $0x2,%edx
  4032e7:	76 63                	jbe    40334c <memset+0x8c>
  4032e9:	66 89 47 01          	mov    %ax,0x1(%rdi)
  4032ed:	66 89 44 17 fd       	mov    %ax,-0x3(%rdi,%rdx,1)
  4032f2:	83 fa 06             	cmp    $0x6,%edx
  4032f5:	76 55                	jbe    40334c <memset+0x8c>
  4032f7:	89 47 03             	mov    %eax,0x3(%rdi)
  4032fa:	89 44 17 f9          	mov    %eax,-0x7(%rdi,%rdx,1)
  4032fe:	83 fa 0e             	cmp    $0xe,%edx
  403301:	76 49                	jbe    40334c <memset+0x8c>
  403303:	48 89 47 07          	mov    %rax,0x7(%rdi)
  403307:	48 89 44 17 f1       	mov    %rax,-0xf(%rdi,%rdx,1)
  40330c:	83 fa 1e             	cmp    $0x1e,%edx
  40330f:	76 3b                	jbe    40334c <memset+0x8c>
  403311:	48 89 47 0f          	mov    %rax,0xf(%rdi)
  403315:	48 89 47 17          	mov    %rax,0x17(%rdi)
  403319:	48 89 44 17 e1       	mov    %rax,-0x1f(%rdi,%rdx,1)
  40331e:	48 89 44 17 e9       	mov    %rax,-0x17(%rdi,%rdx,1)
  403323:	83 fa 3e             	cmp    $0x3e,%edx
  403326:	76 24                	jbe    40334c <memset+0x8c>
  403328:	48 89 47 1f          	mov    %rax,0x1f(%rdi)
  40332c:	48 89 47 27          	mov    %rax,0x27(%rdi)
  403330:	48 89 47 2f          	mov    %rax,0x2f(%rdi)
  403334:	48 89 47 37          	mov    %rax,0x37(%rdi)
  403338:	48 89 44 17 c1       	mov    %rax,-0x3f(%rdi,%rdx,1)
  40333d:	48 89 44 17 c9       	mov    %rax,-0x37(%rdi,%rdx,1)
  403342:	48 89 44 17 d1       	mov    %rax,-0x2f(%rdi,%rdx,1)
  403347:	48 89 44 17 d9       	mov    %rax,-0x27(%rdi,%rdx,1)
  40334c:	48 89 f8             	mov    %rdi,%rax
  40334f:	c3                   	ret
  403350:	f7 c7 0f 00 00 00    	test   $0xf,%edi
  403356:	49 89 f8             	mov    %rdi,%r8
  403359:	48 89 44 17 f8       	mov    %rax,-0x8(%rdi,%rdx,1)
  40335e:	48 89 d1             	mov    %rdx,%rcx
  403361:	75 0b                	jne    40336e <memset+0xae>
  403363:	48 c1 e9 03          	shr    $0x3,%rcx
  403367:	f3 48 ab             	rep stos %rax,%es:(%rdi)
  40336a:	4c 89 c0             	mov    %r8,%rax
  40336d:	c3                   	ret
  40336e:	31 d2                	xor    %edx,%edx
  403370:	29 fa                	sub    %edi,%edx
  403372:	83 e2 0f             	and    $0xf,%edx
  403375:	48 89 07             	mov    %rax,(%rdi)
  403378:	48 89 47 08          	mov    %rax,0x8(%rdi)
  40337c:	48 29 d1             	sub    %rdx,%rcx
  40337f:	48 01 d7             	add    %rdx,%rdi
  403382:	eb df                	jmp    403363 <memset+0xa3>

0000000000403384 <__lock>:
  403384:	0f be 0d 38 49 00 00 	movsbl 0x4938(%rip),%ecx        # 407cc3 <__libc+0x3>
  40338b:	85 c9                	test   %ecx,%ecx
  40338d:	0f 84 a0 00 00 00    	je     403433 <__lock+0xaf>
  403393:	31 c0                	xor    %eax,%eax
  403395:	ba 01 00 00 80       	mov    $0x80000001,%edx
  40339a:	f0 0f b1 17          	lock cmpxchg %edx,(%rdi)
  40339e:	89 c2                	mov    %eax,%edx
  4033a0:	85 c9                	test   %ecx,%ecx
  4033a2:	79 07                	jns    4033ab <__lock+0x27>
  4033a4:	c6 05 18 49 00 00 00 	movb   $0x0,0x4918(%rip)        # 407cc3 <__libc+0x3>
  4033ab:	85 c0                	test   %eax,%eax
  4033ad:	0f 84 80 00 00 00    	je     403433 <__lock+0xaf>
  4033b3:	be 0a 00 00 00       	mov    $0xa,%esi
  4033b8:	85 d2                	test   %edx,%edx
  4033ba:	79 06                	jns    4033c2 <__lock+0x3e>
  4033bc:	81 c2 ff ff ff 7f    	add    $0x7fffffff,%edx
  4033c2:	8d 8a 01 00 00 80    	lea    -0x7fffffff(%rdx),%ecx
  4033c8:	89 d0                	mov    %edx,%eax
  4033ca:	f0 0f b1 0f          	lock cmpxchg %ecx,(%rdi)
  4033ce:	39 c2                	cmp    %eax,%edx
  4033d0:	74 61                	je     403433 <__lock+0xaf>
  4033d2:	89 c2                	mov    %eax,%edx
  4033d4:	ff ce                	dec    %esi
  4033d6:	75 e0                	jne    4033b8 <__lock+0x34>
  4033d8:	53                   	push   %rbx
  4033d9:	41 b8 01 00 00 00    	mov    $0x1,%r8d
  4033df:	f0 44 0f c1 07       	lock xadd %r8d,(%rdi)
  4033e4:	41 b9 ca 00 00 00    	mov    $0xca,%r9d
  4033ea:	41 ff c0             	inc    %r8d
  4033ed:	bb 80 00 00 00       	mov    $0x80,%ebx
  4033f2:	44 89 c2             	mov    %r8d,%edx
  4033f5:	45 85 c0             	test   %r8d,%r8d
  4033f8:	79 22                	jns    40341c <__lock+0x98>
  4033fa:	49 63 d0             	movslq %r8d,%rdx
  4033fd:	45 31 d2             	xor    %r10d,%r10d
  403400:	4c 89 c8             	mov    %r9,%rax
  403403:	48 89 de             	mov    %rbx,%rsi
  403406:	0f 05                	syscall
  403408:	48 83 f8 da          	cmp    $0xffffffffffffffda,%rax
  40340c:	75 07                	jne    403415 <__lock+0x91>
  40340e:	31 f6                	xor    %esi,%esi
  403410:	4c 89 c8             	mov    %r9,%rax
  403413:	0f 05                	syscall
  403415:	41 8d 90 ff ff ff 7f 	lea    0x7fffffff(%r8),%edx
  40341c:	44 8d 82 00 00 00 80 	lea    -0x80000000(%rdx),%r8d
  403423:	89 d0                	mov    %edx,%eax
  403425:	f0 44 0f b1 07       	lock cmpxchg %r8d,(%rdi)
  40342a:	41 89 c0             	mov    %eax,%r8d
  40342d:	39 c2                	cmp    %eax,%edx
  40342f:	75 c1                	jne    4033f2 <__lock+0x6e>
  403431:	5b                   	pop    %rbx
  403432:	c3                   	ret
  403433:	c3                   	ret

0000000000403434 <__unlock>:
  403434:	8b 07                	mov    (%rdi),%eax
  403436:	85 c0                	test   %eax,%eax
  403438:	79 33                	jns    40346d <__unlock+0x39>
  40343a:	b8 ff ff ff 7f       	mov    $0x7fffffff,%eax
  40343f:	f0 0f c1 07          	lock xadd %eax,(%rdi)
  403443:	3d 01 00 00 80       	cmp    $0x80000001,%eax
  403448:	74 23                	je     40346d <__unlock+0x39>
  40344a:	41 b8 ca 00 00 00    	mov    $0xca,%r8d
  403450:	ba 01 00 00 00       	mov    $0x1,%edx
  403455:	be 81 00 00 00       	mov    $0x81,%esi
  40345a:	4c 89 c0             	mov    %r8,%rax
  40345d:	0f 05                	syscall
  40345f:	48 83 f8 da          	cmp    $0xffffffffffffffda,%rax
  403463:	75 08                	jne    40346d <__unlock+0x39>
  403465:	4c 89 c0             	mov    %r8,%rax
  403468:	48 89 d6             	mov    %rdx,%rsi
  40346b:	0f 05                	syscall
  40346d:	c3                   	ret

000000000040346e <__init_tp>:
  40346e:	53                   	push   %rbx
  40346f:	48 89 fb             	mov    %rdi,%rbx
  403472:	48 89 3f             	mov    %rdi,(%rdi)
  403475:	e8 7c 08 00 00       	call   403cf6 <__set_thread_area>
  40347a:	83 ca ff             	or     $0xffffffff,%edx
  40347d:	85 c0                	test   %eax,%eax
  40347f:	78 4d                	js     4034ce <__init_tp+0x60>
  403481:	75 07                	jne    40348a <__init_tp+0x1c>
  403483:	c6 05 36 48 00 00 01 	movb   $0x1,0x4836(%rip)        # 407cc0 <__libc>
  40348a:	c7 43 40 01 00 00 00 	movl   $0x1,0x40(%rbx)
  403491:	b8 da 00 00 00       	mov    $0xda,%eax
  403496:	bf 28 7d 40 00       	mov    $0x407d28,%edi
  40349b:	0f 05                	syscall
  40349d:	89 43 38             	mov    %eax,0x38(%rbx)
  4034a0:	48 8d 83 90 00 00 00 	lea    0x90(%rbx),%rax
  4034a7:	31 d2                	xor    %edx,%edx
  4034a9:	48 89 83 90 00 00 00 	mov    %rax,0x90(%rbx)
  4034b0:	48 8b 05 d9 47 00 00 	mov    0x47d9(%rip),%rax        # 407c90 <__sysinfo>
  4034b7:	48 c7 83 b0 00 00 00 	movq   $0x407cf8,0xb0(%rbx)
  4034be:	f8 7c 40 00 
  4034c2:	48 89 43 20          	mov    %rax,0x20(%rbx)
  4034c6:	48 89 5b 10          	mov    %rbx,0x10(%rbx)
  4034ca:	48 89 5b 18          	mov    %rbx,0x18(%rbx)
  4034ce:	89 d0                	mov    %edx,%eax
  4034d0:	5b                   	pop    %rbx
  4034d1:	c3                   	ret

00000000004034d2 <__copy_tls>:
  4034d2:	41 55                	push   %r13
  4034d4:	49 89 fd             	mov    %rdi,%r13
  4034d7:	41 54                	push   %r12
  4034d9:	4c 8d 67 08          	lea    0x8(%rdi),%r12
  4034dd:	55                   	push   %rbp
  4034de:	53                   	push   %rbx
  4034df:	51                   	push   %rcx
  4034e0:	48 8b 05 f1 47 00 00 	mov    0x47f1(%rip),%rax        # 407cd8 <__libc+0x18>
  4034e7:	48 8b 1d f2 47 00 00 	mov    0x47f2(%rip),%rbx        # 407ce0 <__libc+0x20>
  4034ee:	48 8b 2d db 47 00 00 	mov    0x47db(%rip),%rbp        # 407cd0 <__libc+0x10>
  4034f5:	48 8d 84 07 20 ff ff 	lea    -0xe0(%rdi,%rax,1),%rax
  4034fc:	ff 
  4034fd:	48 f7 db             	neg    %rbx
  403500:	48 21 c3             	and    %rax,%rbx
  403503:	48 85 ed             	test   %rbp,%rbp
  403506:	74 2a                	je     403532 <__copy_tls+0x60>
  403508:	48 89 d8             	mov    %rbx,%rax
  40350b:	48 2b 45 28          	sub    0x28(%rbp),%rax
  40350f:	48 8b 75 08          	mov    0x8(%rbp),%rsi
  403513:	48 89 df             	mov    %rbx,%rdi
  403516:	49 89 04 24          	mov    %rax,(%r12)
  40351a:	48 8b 55 10          	mov    0x10(%rbp),%rdx
  40351e:	49 83 c4 08          	add    $0x8,%r12
  403522:	48 2b 7d 28          	sub    0x28(%rbp),%rdi
  403526:	67 e8 62 fd ff ff    	addr32 call 40328e <memcpy>
  40352c:	48 8b 6d 00          	mov    0x0(%rbp),%rbp
  403530:	eb d1                	jmp    403503 <__copy_tls+0x31>
  403532:	48 8b 05 af 47 00 00 	mov    0x47af(%rip),%rax        # 407ce8 <__libc+0x28>
  403539:	49 89 45 00          	mov    %rax,0x0(%r13)
  40353d:	48 89 d8             	mov    %rbx,%rax
  403540:	4c 89 ab d8 00 00 00 	mov    %r13,0xd8(%rbx)
  403547:	4c 89 6b 08          	mov    %r13,0x8(%rbx)
  40354b:	5a                   	pop    %rdx
  40354c:	5b                   	pop    %rbx
  40354d:	5d                   	pop    %rbp
  40354e:	41 5c                	pop    %r12
  403550:	41 5d                	pop    %r13
  403552:	c3                   	ret

0000000000403553 <__init_tls>:
  403553:	41 54                	push   %r12
  403555:	44 8b 05 b0 3c 00 00 	mov    0x3cb0(%rip),%r8d        # 40720c <__default_stacksize>
  40355c:	45 31 d2             	xor    %r10d,%r10d
  40355f:	31 c9                	xor    %ecx,%ecx
  403561:	55                   	push   %rbp
  403562:	31 d2                	xor    %edx,%edx
  403564:	bd 00 00 80 00       	mov    $0x800000,%ebp
  403569:	53                   	push   %rbx
  40356a:	4c 8b 5f 18          	mov    0x18(%rdi),%r11
  40356e:	bb 00 00 00 00       	mov    $0x0,%ebx
  403573:	4c 8b 4f 28          	mov    0x28(%rdi),%r9
  403577:	4c 89 d8             	mov    %r11,%rax
  40357a:	4d 85 c9             	test   %r9,%r9
  40357d:	74 59                	je     4035d8 <__init_tls+0x85>
  40357f:	8b 30                	mov    (%rax),%esi
  403581:	83 fe 06             	cmp    $0x6,%esi
  403584:	75 05                	jne    40358b <__init_tls+0x38>
  403586:	4c 89 d9             	mov    %r11,%rcx
  403589:	eb 14                	jmp    40359f <__init_tls+0x4c>
  40358b:	83 fe 02             	cmp    $0x2,%esi
  40358e:	74 07                	je     403597 <__init_tls+0x44>
  403590:	83 fe 07             	cmp    $0x7,%esi
  403593:	74 37                	je     4035cc <__init_tls+0x79>
  403595:	eb 0e                	jmp    4035a5 <__init_tls+0x52>
  403597:	48 85 db             	test   %rbx,%rbx
  40359a:	74 33                	je     4035cf <__init_tls+0x7c>
  40359c:	48 89 d9             	mov    %rbx,%rcx
  40359f:	48 2b 48 10          	sub    0x10(%rax),%rcx
  4035a3:	eb 2a                	jmp    4035cf <__init_tls+0x7c>
  4035a5:	81 fe 51 e5 74 64    	cmp    $0x6474e551,%esi
  4035ab:	75 22                	jne    4035cf <__init_tls+0x7c>
  4035ad:	48 8b 70 28          	mov    0x28(%rax),%rsi
  4035b1:	45 89 c4             	mov    %r8d,%r12d
  4035b4:	4c 39 e6             	cmp    %r12,%rsi
  4035b7:	76 16                	jbe    4035cf <__init_tls+0x7c>
  4035b9:	48 81 fe 00 00 80 00 	cmp    $0x800000,%rsi
  4035c0:	41 b2 01             	mov    $0x1,%r10b
  4035c3:	48 0f 47 f5          	cmova  %rbp,%rsi
  4035c7:	49 89 f0             	mov    %rsi,%r8
  4035ca:	eb 03                	jmp    4035cf <__init_tls+0x7c>
  4035cc:	48 89 c2             	mov    %rax,%rdx
  4035cf:	49 ff c9             	dec    %r9
  4035d2:	48 03 47 20          	add    0x20(%rdi),%rax
  4035d6:	eb a2                	jmp    40357a <__init_tls+0x27>
  4035d8:	45 84 d2             	test   %r10b,%r10b
  4035db:	74 07                	je     4035e4 <__init_tls+0x91>
  4035dd:	44 89 05 28 3c 00 00 	mov    %r8d,0x3c28(%rip)        # 40720c <__default_stacksize>
  4035e4:	48 85 d2             	test   %rdx,%rdx
  4035e7:	74 42                	je     40362b <__init_tls+0xd8>
  4035e9:	48 8b 42 20          	mov    0x20(%rdx),%rax
  4035ed:	48 03 4a 10          	add    0x10(%rdx),%rcx
  4035f1:	48 c7 05 d4 46 00 00 	movq   $0x407ae0,0x46d4(%rip)        # 407cd0 <__libc+0x10>
  4035f8:	e0 7a 40 00 
  4035fc:	48 89 0d e5 44 00 00 	mov    %rcx,0x44e5(%rip)        # 407ae8 <main_tls+0x8>
  403603:	48 89 05 e6 44 00 00 	mov    %rax,0x44e6(%rip)        # 407af0 <main_tls+0x10>
  40360a:	48 8b 42 28          	mov    0x28(%rdx),%rax
  40360e:	48 c7 05 cf 46 00 00 	movq   $0x1,0x46cf(%rip)        # 407ce8 <__libc+0x28>
  403615:	01 00 00 00 
  403619:	48 89 05 d8 44 00 00 	mov    %rax,0x44d8(%rip)        # 407af8 <main_tls+0x18>
  403620:	48 8b 42 30          	mov    0x30(%rdx),%rax
  403624:	48 89 05 d5 44 00 00 	mov    %rax,0x44d5(%rip)        # 407b00 <main_tls+0x20>
  40362b:	48 8b 0d c6 44 00 00 	mov    0x44c6(%rip),%rcx        # 407af8 <main_tls+0x18>
  403632:	48 8b 05 af 44 00 00 	mov    0x44af(%rip),%rax        # 407ae8 <main_tls+0x8>
  403639:	48 8b 15 c0 44 00 00 	mov    0x44c0(%rip),%rdx        # 407b00 <main_tls+0x20>
  403640:	48 01 c8             	add    %rcx,%rax
  403643:	48 f7 d8             	neg    %rax
  403646:	48 8d 72 ff          	lea    -0x1(%rdx),%rsi
  40364a:	48 21 f0             	and    %rsi,%rax
  40364d:	48 01 c8             	add    %rcx,%rax
  403650:	48 89 05 a1 44 00 00 	mov    %rax,0x44a1(%rip)        # 407af8 <main_tls+0x18>
  403657:	48 89 05 aa 44 00 00 	mov    %rax,0x44aa(%rip)        # 407b08 <main_tls+0x28>
  40365e:	48 83 fa 07          	cmp    $0x7,%rdx
  403662:	77 0b                	ja     40366f <__init_tls+0x11c>
  403664:	48 c7 05 91 44 00 00 	movq   $0x8,0x4491(%rip)        # 407b00 <main_tls+0x20>
  40366b:	08 00 00 00 
  40366f:	48 8b 15 8a 44 00 00 	mov    0x448a(%rip),%rdx        # 407b00 <main_tls+0x20>
  403676:	bf 20 7b 40 00       	mov    $0x407b20,%edi
  40367b:	48 8d 84 10 f7 00 00 	lea    0xf7(%rax,%rdx,1),%rax
  403682:	00 
  403683:	48 89 15 56 46 00 00 	mov    %rdx,0x4656(%rip)        # 407ce0 <__libc+0x20>
  40368a:	48 83 e0 f8          	and    $0xfffffffffffffff8,%rax
  40368e:	48 89 c6             	mov    %rax,%rsi
  403691:	48 89 05 40 46 00 00 	mov    %rax,0x4640(%rip)        # 407cd8 <__libc+0x18>
  403698:	48 3d 68 01 00 00    	cmp    $0x168,%rax
  40369e:	76 1e                	jbe    4036be <__init_tls+0x16b>
  4036a0:	41 ba 22 00 00 00    	mov    $0x22,%r10d
  4036a6:	49 83 c8 ff          	or     $0xffffffffffffffff,%r8
  4036aa:	45 31 c9             	xor    %r9d,%r9d
  4036ad:	31 ff                	xor    %edi,%edi
  4036af:	b8 09 00 00 00       	mov    $0x9,%eax
  4036b4:	ba 03 00 00 00       	mov    $0x3,%edx
  4036b9:	0f 05                	syscall
  4036bb:	48 89 c7             	mov    %rax,%rdi
  4036be:	e8 0f fe ff ff       	call   4034d2 <__copy_tls>
  4036c3:	48 89 c7             	mov    %rax,%rdi
  4036c6:	e8 a3 fd ff ff       	call   40346e <__init_tp>
  4036cb:	85 c0                	test   %eax,%eax
  4036cd:	79 01                	jns    4036d0 <__init_tls+0x17d>
  4036cf:	f4                   	hlt
  4036d0:	5b                   	pop    %rbx
  4036d1:	5d                   	pop    %rbp
  4036d2:	41 5c                	pop    %r12
  4036d4:	c3                   	ret

00000000004036d5 <__init_ssp>:
  4036d5:	52                   	push   %rdx
  4036d6:	48 85 ff             	test   %rdi,%rdi
  4036d9:	74 15                	je     4036f0 <__init_ssp+0x1b>
  4036db:	48 89 fe             	mov    %rdi,%rsi
  4036de:	ba 08 00 00 00       	mov    $0x8,%edx
  4036e3:	bf 30 7d 40 00       	mov    $0x407d30,%edi
  4036e8:	67 e8 a0 fb ff ff    	addr32 call 40328e <memcpy>
  4036ee:	eb 13                	jmp    403703 <__init_ssp+0x2e>
  4036f0:	b8 30 7d 40 00       	mov    $0x407d30,%eax
  4036f5:	48 69 c0 6d 4e c6 41 	imul   $0x41c64e6d,%rax,%rax
  4036fc:	48 89 05 2d 46 00 00 	mov    %rax,0x462d(%rip)        # 407d30 <__stack_chk_guard>
  403703:	48 8b 15 26 46 00 00 	mov    0x4626(%rip),%rdx        # 407d30 <__stack_chk_guard>
  40370a:	64 48 8b 04 25 00 00 	mov    %fs:0x0,%rax
  403711:	00 00 
  403713:	48 89 50 28          	mov    %rdx,0x28(%rax)
  403717:	58                   	pop    %rax
  403718:	c3                   	ret

0000000000403719 <__stack_chk_fail>:
  403719:	f4                   	hlt
  40371a:	c3                   	ret

000000000040371b <__errno_location>:
  40371b:	64 48 8b 04 25 00 00 	mov    %fs:0x0,%rax
  403722:	00 00 
  403724:	48 83 c0 3c          	add    $0x3c,%rax
  403728:	c3                   	ret

0000000000403729 <__strerror_l>:
  403729:	31 d2                	xor    %edx,%edx
  40372b:	0f b6 82 60 5c 40 00 	movzbl 0x405c60(%rdx),%eax
  403732:	89 d1                	mov    %edx,%ecx
  403734:	84 c0                	test   %al,%al
  403736:	74 07                	je     40373f <__strerror_l+0x16>
  403738:	48 ff c2             	inc    %rdx
  40373b:	39 f8                	cmp    %edi,%eax
  40373d:	75 ec                	jne    40372b <__strerror_l+0x2>
  40373f:	bf 40 55 40 00       	mov    $0x405540,%edi
  403744:	85 c9                	test   %ecx,%ecx
  403746:	74 0d                	je     403755 <__strerror_l+0x2c>
  403748:	8a 07                	mov    (%rdi),%al
  40374a:	48 ff c7             	inc    %rdi
  40374d:	84 c0                	test   %al,%al
  40374f:	75 f7                	jne    403748 <__strerror_l+0x1f>
  403751:	ff c9                	dec    %ecx
  403753:	eb ef                	jmp    403744 <__strerror_l+0x1b>
  403755:	48 8b 76 28          	mov    0x28(%rsi),%rsi
  403759:	e9 2f 00 00 00       	jmp    40378d <__lctrans>

000000000040375e <strerror>:
  40375e:	64 48 8b 04 25 00 00 	mov    %fs:0x0,%rax
  403765:	00 00 
  403767:	48 8b b0 b0 00 00 00 	mov    0xb0(%rax),%rsi
  40376e:	e9 b6 ff ff ff       	jmp    403729 <__strerror_l>

0000000000403773 <_Exit>:
  403773:	48 63 ff             	movslq %edi,%rdi
  403776:	b8 e7 00 00 00       	mov    $0xe7,%eax
  40377b:	0f 05                	syscall
  40377d:	ba 3c 00 00 00       	mov    $0x3c,%edx
  403782:	48 89 d0             	mov    %rdx,%rax
  403785:	0f 05                	syscall
  403787:	eb f9                	jmp    403782 <_Exit+0xf>

0000000000403789 <__lctrans_impl>:
  403789:	48 89 f8             	mov    %rdi,%rax
  40378c:	c3                   	ret

000000000040378d <__lctrans>:
  40378d:	e9 f7 ff ff ff       	jmp    403789 <__lctrans_impl>

0000000000403792 <__lctrans_cur>:
  403792:	64 48 8b 04 25 00 00 	mov    %fs:0x0,%rax
  403799:	00 00 
  40379b:	48 8b 80 b0 00 00 00 	mov    0xb0(%rax),%rax
  4037a2:	48 8b 70 28          	mov    0x28(%rax),%rsi
  4037a6:	e9 de ff ff ff       	jmp    403789 <__lctrans_impl>

00000000004037ab <__fpclassifyl>:
  4037ab:	48 8b 44 24 10       	mov    0x10(%rsp),%rax
  4037b0:	48 8b 54 24 08       	mov    0x8(%rsp),%rdx
  4037b5:	66 25 ff 7f          	and    $0x7fff,%ax
  4037b9:	48 89 d1             	mov    %rdx,%rcx
  4037bc:	48 c1 e9 3f          	shr    $0x3f,%rcx
  4037c0:	0f b7 f0             	movzwl %ax,%esi
  4037c3:	09 ce                	or     %ecx,%esi
  4037c5:	75 0a                	jne    4037d1 <__fpclassifyl+0x26>
  4037c7:	48 83 fa 01          	cmp    $0x1,%rdx
  4037cb:	19 c0                	sbb    %eax,%eax
  4037cd:	83 c0 03             	add    $0x3,%eax
  4037d0:	c3                   	ret
  4037d1:	66 3d ff 7f          	cmp    $0x7fff,%ax
  4037d5:	75 10                	jne    4037e7 <__fpclassifyl+0x3c>
  4037d7:	31 c0                	xor    %eax,%eax
  4037d9:	48 85 c9             	test   %rcx,%rcx
  4037dc:	74 10                	je     4037ee <__fpclassifyl+0x43>
  4037de:	31 c0                	xor    %eax,%eax
  4037e0:	48 01 d2             	add    %rdx,%rdx
  4037e3:	0f 94 c0             	sete   %al
  4037e6:	c3                   	ret
  4037e7:	89 c8                	mov    %ecx,%eax
  4037e9:	f7 d8                	neg    %eax
  4037eb:	83 e0 04             	and    $0x4,%eax
  4037ee:	c3                   	ret

00000000004037ef <__signbitl>:
  4037ef:	8b 44 24 10          	mov    0x10(%rsp),%eax
  4037f3:	66 c1 e8 0f          	shr    $0xf,%ax
  4037f7:	0f b7 c0             	movzwl %ax,%eax
  4037fa:	c3                   	ret

00000000004037fb <frexpl>:
  4037fb:	53                   	push   %rbx
  4037fc:	48 83 ec 10          	sub    $0x10,%rsp
  403800:	db 6c 24 20          	fldt   0x20(%rsp)
  403804:	48 8b 44 24 28       	mov    0x28(%rsp),%rax
  403809:	89 c1                	mov    %eax,%ecx
  40380b:	d9 c0                	fld    %st(0)
  40380d:	db 3c 24             	fstpt  (%rsp)
  403810:	66 81 e1 ff 7f       	and    $0x7fff,%cx
  403815:	75 36                	jne    40384d <frexpl+0x52>
  403817:	d9 ee                	fldz
  403819:	d9 c9                	fxch   %st(1)
  40381b:	df e9                	fucomip %st(1),%st
  40381d:	dd d8                	fstp   %st(0)
  40381f:	7a 02                	jp     403823 <frexpl+0x28>
  403821:	74 22                	je     403845 <frexpl+0x4a>
  403823:	db 6c 24 20          	fldt   0x20(%rsp)
  403827:	d8 0d 8f 24 00 00    	fmuls  0x248f(%rip)        # 405cbc <errid+0x5c>
  40382d:	51                   	push   %rcx
  40382e:	48 89 fb             	mov    %rdi,%rbx
  403831:	51                   	push   %rcx
  403832:	db 3c 24             	fstpt  (%rsp)
  403835:	e8 c1 ff ff ff       	call   4037fb <frexpl>
  40383a:	83 2b 78             	subl   $0x78,(%rbx)
  40383d:	db 7c 24 30          	fstpt  0x30(%rsp)
  403841:	5e                   	pop    %rsi
  403842:	5f                   	pop    %rdi
  403843:	eb 30                	jmp    403875 <frexpl+0x7a>
  403845:	c7 07 00 00 00 00    	movl   $0x0,(%rdi)
  40384b:	eb 28                	jmp    403875 <frexpl+0x7a>
  40384d:	dd d8                	fstp   %st(0)
  40384f:	0f b7 d1             	movzwl %cx,%edx
  403852:	66 81 f9 ff 7f       	cmp    $0x7fff,%cx
  403857:	74 1c                	je     403875 <frexpl+0x7a>
  403859:	66 25 00 80          	and    $0x8000,%ax
  40385d:	81 ea fe 3f 00 00    	sub    $0x3ffe,%edx
  403863:	66 0d fe 3f          	or     $0x3ffe,%ax
  403867:	89 17                	mov    %edx,(%rdi)
  403869:	66 89 44 24 08       	mov    %ax,0x8(%rsp)
  40386e:	db 2c 24             	fldt   (%rsp)
  403871:	db 7c 24 20          	fstpt  0x20(%rsp)
  403875:	db 6c 24 20          	fldt   0x20(%rsp)
  403879:	48 83 c4 10          	add    $0x10,%rsp
  40387d:	5b                   	pop    %rbx
  40387e:	c3                   	ret

000000000040387f <wctomb>:
  40387f:	48 85 ff             	test   %rdi,%rdi
  403882:	74 0b                	je     40388f <wctomb+0x10>
  403884:	50                   	push   %rax
  403885:	31 d2                	xor    %edx,%edx
  403887:	67 e8 bb 04 00 00    	addr32 call 403d48 <wcrtomb>
  40388d:	5a                   	pop    %rdx
  40388e:	c3                   	ret
  40388f:	31 c0                	xor    %eax,%eax
  403891:	c3                   	ret

0000000000403892 <__lockfile>:
  403892:	8b 8f 8c 00 00 00    	mov    0x8c(%rdi),%ecx
  403898:	64 48 8b 04 25 00 00 	mov    %fs:0x0,%rax
  40389f:	00 00 
  4038a1:	8b 50 38             	mov    0x38(%rax),%edx
  4038a4:	81 e1 ff ff ff bf    	and    $0xbfffffff,%ecx
  4038aa:	31 c0                	xor    %eax,%eax
  4038ac:	39 d1                	cmp    %edx,%ecx
  4038ae:	0f 84 87 00 00 00    	je     40393b <__lockfile+0xa9>
  4038b4:	4c 8d 8f 8c 00 00 00 	lea    0x8c(%rdi),%r9
  4038bb:	f0 0f b1 97 8c 00 00 	lock cmpxchg %edx,0x8c(%rdi)
  4038c2:	00 
  4038c3:	85 c0                	test   %eax,%eax
  4038c5:	74 6f                	je     403936 <__lockfile+0xa4>
  4038c7:	81 ca 00 00 00 40    	or     $0x40000000,%edx
  4038cd:	41 54                	push   %r12
  4038cf:	41 bc 80 00 00 00    	mov    $0x80,%r12d
  4038d5:	55                   	push   %rbp
  4038d6:	41 89 d0             	mov    %edx,%r8d
  4038d9:	bd ca 00 00 00       	mov    $0xca,%ebp
  4038de:	53                   	push   %rbx
  4038df:	31 db                	xor    %ebx,%ebx
  4038e1:	89 d8                	mov    %ebx,%eax
  4038e3:	f0 45 0f b1 01       	lock cmpxchg %r8d,(%r9)
  4038e8:	89 c1                	mov    %eax,%ecx
  4038ea:	85 c0                	test   %eax,%eax
  4038ec:	75 0a                	jne    4038f8 <__lockfile+0x66>
  4038ee:	5b                   	pop    %rbx
  4038ef:	b8 01 00 00 00       	mov    $0x1,%eax
  4038f4:	5d                   	pop    %rbp
  4038f5:	41 5c                	pop    %r12
  4038f7:	c3                   	ret
  4038f8:	89 ca                	mov    %ecx,%edx
  4038fa:	81 ca 00 00 00 40    	or     $0x40000000,%edx
  403900:	0f ba e1 1e          	bt     $0x1e,%ecx
  403904:	73 23                	jae    403929 <__lockfile+0x97>
  403906:	48 63 d2             	movslq %edx,%rdx
  403909:	45 31 d2             	xor    %r10d,%r10d
  40390c:	48 89 e8             	mov    %rbp,%rax
  40390f:	4c 89 cf             	mov    %r9,%rdi
  403912:	4c 89 e6             	mov    %r12,%rsi
  403915:	0f 05                	syscall
  403917:	48 83 f8 da          	cmp    $0xffffffffffffffda,%rax
  40391b:	75 c4                	jne    4038e1 <__lockfile+0x4f>
  40391d:	45 31 d2             	xor    %r10d,%r10d
  403920:	31 f6                	xor    %esi,%esi
  403922:	48 89 e8             	mov    %rbp,%rax
  403925:	0f 05                	syscall
  403927:	eb b8                	jmp    4038e1 <__lockfile+0x4f>
  403929:	89 c8                	mov    %ecx,%eax
  40392b:	f0 41 0f b1 11       	lock cmpxchg %edx,(%r9)
  403930:	39 c8                	cmp    %ecx,%eax
  403932:	75 ad                	jne    4038e1 <__lockfile+0x4f>
  403934:	eb d0                	jmp    403906 <__lockfile+0x74>
  403936:	b8 01 00 00 00       	mov    $0x1,%eax
  40393b:	c3                   	ret

000000000040393c <__unlockfile>:
  40393c:	4c 8d 8f 8c 00 00 00 	lea    0x8c(%rdi),%r9
  403943:	31 c0                	xor    %eax,%eax
  403945:	87 87 8c 00 00 00    	xchg   %eax,0x8c(%rdi)
  40394b:	0f ba e0 1e          	bt     $0x1e,%eax
  40394f:	73 26                	jae    403977 <__unlockfile+0x3b>
  403951:	41 b8 ca 00 00 00    	mov    $0xca,%r8d
  403957:	ba 01 00 00 00       	mov    $0x1,%edx
  40395c:	be 81 00 00 00       	mov    $0x81,%esi
  403961:	4c 89 cf             	mov    %r9,%rdi
  403964:	4c 89 c0             	mov    %r8,%rax
  403967:	0f 05                	syscall
  403969:	48 83 f8 da          	cmp    $0xffffffffffffffda,%rax
  40396d:	75 08                	jne    403977 <__unlockfile+0x3b>
  40396f:	4c 89 c0             	mov    %r8,%rax
  403972:	48 89 d6             	mov    %rdx,%rsi
  403975:	0f 05                	syscall
  403977:	c3                   	ret

0000000000403978 <__overflow>:
  403978:	53                   	push   %rbx
  403979:	48 89 fb             	mov    %rdi,%rbx
  40397c:	48 83 ec 10          	sub    $0x10,%rsp
  403980:	48 83 7f 20 00       	cmpq   $0x0,0x20(%rdi)
  403985:	40 88 74 24 0f       	mov    %sil,0xf(%rsp)
  40398a:	74 0c                	je     403998 <__overflow+0x20>
  40398c:	48 8b 53 28          	mov    0x28(%rbx),%rdx
  403990:	48 3b 53 20          	cmp    0x20(%rbx),%rdx
  403994:	75 10                	jne    4039a6 <__overflow+0x2e>
  403996:	eb 27                	jmp    4039bf <__overflow+0x47>
  403998:	e8 70 01 00 00       	call   403b0d <__towrite>
  40399d:	85 c0                	test   %eax,%eax
  40399f:	74 eb                	je     40398c <__overflow+0x14>
  4039a1:	83 c8 ff             	or     $0xffffffff,%eax
  4039a4:	eb 33                	jmp    4039d9 <__overflow+0x61>
  4039a6:	0f b6 44 24 0f       	movzbl 0xf(%rsp),%eax
  4039ab:	3b 83 90 00 00 00    	cmp    0x90(%rbx),%eax
  4039b1:	74 0c                	je     4039bf <__overflow+0x47>
  4039b3:	48 8d 72 01          	lea    0x1(%rdx),%rsi
  4039b7:	48 89 73 28          	mov    %rsi,0x28(%rbx)
  4039bb:	88 02                	mov    %al,(%rdx)
  4039bd:	eb 1a                	jmp    4039d9 <__overflow+0x61>
  4039bf:	ba 01 00 00 00       	mov    $0x1,%edx
  4039c4:	48 8d 74 24 0f       	lea    0xf(%rsp),%rsi
  4039c9:	48 89 df             	mov    %rbx,%rdi
  4039cc:	ff 53 48             	call   *0x48(%rbx)
  4039cf:	48 ff c8             	dec    %rax
  4039d2:	75 cd                	jne    4039a1 <__overflow+0x29>
  4039d4:	0f b6 44 24 0f       	movzbl 0xf(%rsp),%eax
  4039d9:	48 83 c4 10          	add    $0x10,%rsp
  4039dd:	5b                   	pop    %rbx
  4039de:	c3                   	ret

00000000004039df <__aio_close>:
  4039df:	89 f8                	mov    %edi,%eax
  4039e1:	c3                   	ret

00000000004039e2 <__stdio_close>:
  4039e2:	50                   	push   %rax
  4039e3:	8b 7f 78             	mov    0x78(%rdi),%edi
  4039e6:	e8 f4 ff ff ff       	call   4039df <__aio_close>
  4039eb:	48 63 f8             	movslq %eax,%rdi
  4039ee:	b8 03 00 00 00       	mov    $0x3,%eax
  4039f3:	0f 05                	syscall
  4039f5:	48 89 c7             	mov    %rax,%rdi
  4039f8:	e8 23 03 00 00       	call   403d20 <__syscall_ret>
  4039fd:	5a                   	pop    %rdx
  4039fe:	c3                   	ret

00000000004039ff <__stdio_read>:
  4039ff:	41 54                	push   %r12
  403a01:	31 c0                	xor    %eax,%eax
  403a03:	49 89 f4             	mov    %rsi,%r12
  403a06:	55                   	push   %rbp
  403a07:	48 89 d5             	mov    %rdx,%rbp
  403a0a:	53                   	push   %rbx
  403a0b:	48 89 e9             	mov    %rbp,%rcx
  403a0e:	48 89 fb             	mov    %rdi,%rbx
  403a11:	48 83 ec 20          	sub    $0x20,%rsp
  403a15:	48 8b 57 60          	mov    0x60(%rdi),%rdx
  403a19:	48 89 34 24          	mov    %rsi,(%rsp)
  403a1d:	48 8b 77 58          	mov    0x58(%rdi),%rsi
  403a21:	48 85 d2             	test   %rdx,%rdx
  403a24:	48 89 54 24 18       	mov    %rdx,0x18(%rsp)
  403a29:	48 63 7f 78          	movslq 0x78(%rdi),%rdi
  403a2d:	0f 95 c0             	setne  %al
  403a30:	48 89 74 24 10       	mov    %rsi,0x10(%rsp)
  403a35:	48 29 c1             	sub    %rax,%rcx
  403a38:	48 89 4c 24 08       	mov    %rcx,0x8(%rsp)
  403a3d:	48 89 c8             	mov    %rcx,%rax
  403a40:	74 0d                	je     403a4f <__stdio_read+0x50>
  403a42:	48 89 e6             	mov    %rsp,%rsi
  403a45:	b8 13 00 00 00       	mov    $0x13,%eax
  403a4a:	ba 02 00 00 00       	mov    $0x2,%edx
  403a4f:	0f 05                	syscall
  403a51:	48 89 c7             	mov    %rax,%rdi
  403a54:	e8 c7 02 00 00       	call   403d20 <__syscall_ret>
  403a59:	48 85 c0             	test   %rax,%rax
  403a5c:	7f 12                	jg     403a70 <__stdio_read+0x71>
  403a5e:	48 83 f8 01          	cmp    $0x1,%rax
  403a62:	19 c0                	sbb    %eax,%eax
  403a64:	31 ed                	xor    %ebp,%ebp
  403a66:	83 e0 f0             	and    $0xfffffff0,%eax
  403a69:	83 c0 20             	add    $0x20,%eax
  403a6c:	09 03                	or     %eax,(%rbx)
  403a6e:	eb 37                	jmp    403aa7 <__stdio_read+0xa8>
  403a70:	48 8b 4c 24 08       	mov    0x8(%rsp),%rcx
  403a75:	48 39 c1             	cmp    %rax,%rcx
  403a78:	73 2a                	jae    403aa4 <__stdio_read+0xa5>
  403a7a:	48 8b 53 58          	mov    0x58(%rbx),%rdx
  403a7e:	48 29 c8             	sub    %rcx,%rax
  403a81:	48 01 d0             	add    %rdx,%rax
  403a84:	48 83 7b 60 00       	cmpq   $0x0,0x60(%rbx)
  403a89:	48 89 53 08          	mov    %rdx,0x8(%rbx)
  403a8d:	48 89 43 10          	mov    %rax,0x10(%rbx)
  403a91:	74 14                	je     403aa7 <__stdio_read+0xa8>
  403a93:	48 8d 42 01          	lea    0x1(%rdx),%rax
  403a97:	48 89 43 08          	mov    %rax,0x8(%rbx)
  403a9b:	8a 02                	mov    (%rdx),%al
  403a9d:	41 88 44 2c ff       	mov    %al,-0x1(%r12,%rbp,1)
  403aa2:	eb 03                	jmp    403aa7 <__stdio_read+0xa8>
  403aa4:	48 89 c5             	mov    %rax,%rbp
  403aa7:	48 83 c4 20          	add    $0x20,%rsp
  403aab:	48 89 e8             	mov    %rbp,%rax
  403aae:	5b                   	pop    %rbx
  403aaf:	5d                   	pop    %rbp
  403ab0:	41 5c                	pop    %r12
  403ab2:	c3                   	ret

0000000000403ab3 <__stdio_seek>:
  403ab3:	8b 7f 78             	mov    0x78(%rdi),%edi
  403ab6:	e9 4b 02 00 00       	jmp    403d06 <__lseek>

0000000000403abb <__stdout_write>:
  403abb:	48 83 ec 18          	sub    $0x18,%rsp
  403abf:	49 89 f8             	mov    %rdi,%r8
  403ac2:	49 89 f1             	mov    %rsi,%r9
  403ac5:	49 89 d2             	mov    %rdx,%r10
  403ac8:	48 c7 47 48 e6 3e 40 	movq   $0x403ee6,0x48(%rdi)
  403acf:	00 
  403ad0:	f6 07 40             	testb  $0x40,(%rdi)
  403ad3:	75 25                	jne    403afa <__stdout_write+0x3f>
  403ad5:	48 63 7f 78          	movslq 0x78(%rdi),%rdi
  403ad9:	48 8d 54 24 08       	lea    0x8(%rsp),%rdx
  403ade:	b8 10 00 00 00       	mov    $0x10,%eax
  403ae3:	be 13 54 00 00       	mov    $0x5413,%esi
  403ae8:	0f 05                	syscall
  403aea:	48 85 c0             	test   %rax,%rax
  403aed:	74 0b                	je     403afa <__stdout_write+0x3f>
  403aef:	41 c7 80 90 00 00 00 	movl   $0xffffffff,0x90(%r8)
  403af6:	ff ff ff ff 
  403afa:	4c 89 d2             	mov    %r10,%rdx
  403afd:	4c 89 ce             	mov    %r9,%rsi
  403b00:	4c 89 c7             	mov    %r8,%rdi
  403b03:	e8 de 03 00 00       	call   403ee6 <__stdio_write>
  403b08:	48 83 c4 18          	add    $0x18,%rsp
  403b0c:	c3                   	ret

0000000000403b0d <__towrite>:
  403b0d:	8b 97 88 00 00 00    	mov    0x88(%rdi),%edx
  403b13:	8d 42 ff             	lea    -0x1(%rdx),%eax
  403b16:	09 d0                	or     %edx,%eax
  403b18:	89 87 88 00 00 00    	mov    %eax,0x88(%rdi)
  403b1e:	8b 07                	mov    (%rdi),%eax
  403b20:	a8 08                	test   $0x8,%al
  403b22:	74 09                	je     403b2d <__towrite+0x20>
  403b24:	83 c8 20             	or     $0x20,%eax
  403b27:	89 07                	mov    %eax,(%rdi)
  403b29:	83 c8 ff             	or     $0xffffffff,%eax
  403b2c:	c3                   	ret
  403b2d:	48 8b 47 58          	mov    0x58(%rdi),%rax
  403b31:	48 c7 47 10 00 00 00 	movq   $0x0,0x10(%rdi)
  403b38:	00 
  403b39:	48 c7 47 08 00 00 00 	movq   $0x0,0x8(%rdi)
  403b40:	00 
  403b41:	48 89 47 38          	mov    %rax,0x38(%rdi)
  403b45:	48 89 47 28          	mov    %rax,0x28(%rdi)
  403b49:	48 03 47 60          	add    0x60(%rdi),%rax
  403b4d:	48 89 47 20          	mov    %rax,0x20(%rdi)
  403b51:	31 c0                	xor    %eax,%eax
  403b53:	c3                   	ret

0000000000403b54 <__towrite_needs_stdio_exit>:
  403b54:	e9 4c 03 00 00       	jmp    403ea5 <__stdio_exit>

0000000000403b59 <__uflow>:
  403b59:	53                   	push   %rbx
  403b5a:	48 89 fb             	mov    %rdi,%rbx
  403b5d:	48 83 ec 10          	sub    $0x10,%rsp
  403b61:	e8 5d 04 00 00       	call   403fc3 <__toread>
  403b66:	85 c0                	test   %eax,%eax
  403b68:	74 05                	je     403b6f <__uflow+0x16>
  403b6a:	83 c8 ff             	or     $0xffffffff,%eax
  403b6d:	eb 1a                	jmp    403b89 <__uflow+0x30>
  403b6f:	ba 01 00 00 00       	mov    $0x1,%edx
  403b74:	48 8d 74 24 0f       	lea    0xf(%rsp),%rsi
  403b79:	48 89 df             	mov    %rbx,%rdi
  403b7c:	ff 53 40             	call   *0x40(%rbx)
  403b7f:	48 ff c8             	dec    %rax
  403b82:	75 e6                	jne    403b6a <__uflow+0x11>
  403b84:	0f b6 44 24 0f       	movzbl 0xf(%rsp),%eax
  403b89:	48 83 c4 10          	add    $0x10,%rsp
  403b8d:	5b                   	pop    %rbx
  403b8e:	c3                   	ret

0000000000403b8f <fputs>:
  403b8f:	41 54                	push   %r12
  403b91:	49 89 f4             	mov    %rsi,%r12
  403b94:	55                   	push   %rbp
  403b95:	48 89 fd             	mov    %rdi,%rbp
  403b98:	53                   	push   %rbx
  403b99:	67 e8 41 f6 ff ff    	addr32 call 4031e0 <strlen>
  403b9f:	4c 89 e1             	mov    %r12,%rcx
  403ba2:	48 89 ef             	mov    %rbp,%rdi
  403ba5:	be 01 00 00 00       	mov    $0x1,%esi
  403baa:	48 89 c2             	mov    %rax,%rdx
  403bad:	48 89 c3             	mov    %rax,%rbx
  403bb0:	67 e8 c0 00 00 00    	addr32 call 403c76 <fwrite>
  403bb6:	48 39 d8             	cmp    %rbx,%rax
  403bb9:	5b                   	pop    %rbx
  403bba:	5d                   	pop    %rbp
  403bbb:	0f 95 c0             	setne  %al
  403bbe:	41 5c                	pop    %r12
  403bc0:	0f b6 c0             	movzbl %al,%eax
  403bc3:	f7 d8                	neg    %eax
  403bc5:	c3                   	ret

0000000000403bc6 <__fwritex>:
  403bc6:	41 55                	push   %r13
  403bc8:	49 89 fd             	mov    %rdi,%r13
  403bcb:	41 54                	push   %r12
  403bcd:	49 89 f4             	mov    %rsi,%r12
  403bd0:	55                   	push   %rbp
  403bd1:	53                   	push   %rbx
  403bd2:	48 89 d3             	mov    %rdx,%rbx
  403bd5:	41 50                	push   %r8
  403bd7:	48 83 7a 20 00       	cmpq   $0x0,0x20(%rdx)
  403bdc:	74 23                	je     403c01 <__fwritex+0x3b>
  403bde:	48 8b 43 20          	mov    0x20(%rbx),%rax
  403be2:	48 2b 43 28          	sub    0x28(%rbx),%rax
  403be6:	4c 39 e0             	cmp    %r12,%rax
  403be9:	73 26                	jae    403c11 <__fwritex+0x4b>
  403beb:	48 8b 43 48          	mov    0x48(%rbx),%rax
  403bef:	4c 89 e2             	mov    %r12,%rdx
  403bf2:	59                   	pop    %rcx
  403bf3:	4c 89 ee             	mov    %r13,%rsi
  403bf6:	48 89 df             	mov    %rbx,%rdi
  403bf9:	5b                   	pop    %rbx
  403bfa:	5d                   	pop    %rbp
  403bfb:	41 5c                	pop    %r12
  403bfd:	41 5d                	pop    %r13
  403bff:	ff e0                	jmp    *%rax
  403c01:	48 89 d7             	mov    %rdx,%rdi
  403c04:	e8 04 ff ff ff       	call   403b0d <__towrite>
  403c09:	85 c0                	test   %eax,%eax
  403c0b:	74 d1                	je     403bde <__fwritex+0x18>
  403c0d:	31 c0                	xor    %eax,%eax
  403c0f:	eb 5d                	jmp    403c6e <__fwritex+0xa8>
  403c11:	83 bb 90 00 00 00 00 	cmpl   $0x0,0x90(%rbx)
  403c18:	4c 89 e5             	mov    %r12,%rbp
  403c1b:	78 19                	js     403c36 <__fwritex+0x70>
  403c1d:	48 85 ed             	test   %rbp,%rbp
  403c20:	74 11                	je     403c33 <__fwritex+0x6d>
  403c22:	41 80 7c 2d ff 0a    	cmpb   $0xa,-0x1(%r13,%rbp,1)
  403c28:	48 8d 45 ff          	lea    -0x1(%rbp),%rax
  403c2c:	74 21                	je     403c4f <__fwritex+0x89>
  403c2e:	48 89 c5             	mov    %rax,%rbp
  403c31:	eb ea                	jmp    403c1d <__fwritex+0x57>
  403c33:	4c 89 e5             	mov    %r12,%rbp
  403c36:	48 8b 7b 28          	mov    0x28(%rbx),%rdi
  403c3a:	48 89 ea             	mov    %rbp,%rdx
  403c3d:	4c 89 ee             	mov    %r13,%rsi
  403c40:	67 e8 48 f6 ff ff    	addr32 call 40328e <memcpy>
  403c46:	48 01 6b 28          	add    %rbp,0x28(%rbx)
  403c4a:	4c 89 e0             	mov    %r12,%rax
  403c4d:	eb 1f                	jmp    403c6e <__fwritex+0xa8>
  403c4f:	48 89 ea             	mov    %rbp,%rdx
  403c52:	4c 89 ee             	mov    %r13,%rsi
  403c55:	48 89 df             	mov    %rbx,%rdi
  403c58:	ff 53 48             	call   *0x48(%rbx)
  403c5b:	48 39 c5             	cmp    %rax,%rbp
  403c5e:	77 0e                	ja     403c6e <__fwritex+0xa8>
  403c60:	4c 89 e0             	mov    %r12,%rax
  403c63:	49 01 ed             	add    %rbp,%r13
  403c66:	48 29 e8             	sub    %rbp,%rax
  403c69:	48 89 c5             	mov    %rax,%rbp
  403c6c:	eb c8                	jmp    403c36 <__fwritex+0x70>
  403c6e:	5a                   	pop    %rdx
  403c6f:	5b                   	pop    %rbx
  403c70:	5d                   	pop    %rbp
  403c71:	41 5c                	pop    %r12
  403c73:	41 5d                	pop    %r13
  403c75:	c3                   	ret

0000000000403c76 <fwrite>:
  403c76:	41 57                	push   %r15
  403c78:	b8 00 00 00 00       	mov    $0x0,%eax
  403c7d:	41 56                	push   %r14
  403c7f:	49 89 f6             	mov    %rsi,%r14
  403c82:	41 55                	push   %r13
  403c84:	4c 0f af f2          	imul   %rdx,%r14
  403c88:	48 85 f6             	test   %rsi,%rsi
  403c8b:	49 89 cd             	mov    %rcx,%r13
  403c8e:	41 54                	push   %r12
  403c90:	49 89 fc             	mov    %rdi,%r12
  403c93:	55                   	push   %rbp
  403c94:	48 89 f5             	mov    %rsi,%rbp
  403c97:	53                   	push   %rbx
  403c98:	48 89 d3             	mov    %rdx,%rbx
  403c9b:	48 0f 44 d8          	cmove  %rax,%rbx
  403c9f:	41 50                	push   %r8
  403ca1:	8b 81 8c 00 00 00    	mov    0x8c(%rcx),%eax
  403ca7:	45 31 ff             	xor    %r15d,%r15d
  403caa:	85 c0                	test   %eax,%eax
  403cac:	78 0b                	js     403cb9 <fwrite+0x43>
  403cae:	48 89 cf             	mov    %rcx,%rdi
  403cb1:	e8 dc fb ff ff       	call   403892 <__lockfile>
  403cb6:	41 89 c7             	mov    %eax,%r15d
  403cb9:	4c 89 e7             	mov    %r12,%rdi
  403cbc:	4c 89 ea             	mov    %r13,%rdx
  403cbf:	4c 89 f6             	mov    %r14,%rsi
  403cc2:	e8 ff fe ff ff       	call   403bc6 <__fwritex>
  403cc7:	49 89 c4             	mov    %rax,%r12
  403cca:	45 85 ff             	test   %r15d,%r15d
  403ccd:	74 08                	je     403cd7 <fwrite+0x61>
  403ccf:	4c 89 ef             	mov    %r13,%rdi
  403cd2:	e8 65 fc ff ff       	call   40393c <__unlockfile>
  403cd7:	4d 39 e6             	cmp    %r12,%r14
  403cda:	74 0b                	je     403ce7 <fwrite+0x71>
  403cdc:	4c 89 e0             	mov    %r12,%rax
  403cdf:	31 d2                	xor    %edx,%edx
  403ce1:	48 f7 f5             	div    %rbp
  403ce4:	48 89 c3             	mov    %rax,%rbx
  403ce7:	5a                   	pop    %rdx
  403ce8:	48 89 d8             	mov    %rbx,%rax
  403ceb:	5b                   	pop    %rbx
  403cec:	5d                   	pop    %rbp
  403ced:	41 5c                	pop    %r12
  403cef:	41 5d                	pop    %r13
  403cf1:	41 5e                	pop    %r14
  403cf3:	41 5f                	pop    %r15
  403cf5:	c3                   	ret

0000000000403cf6 <__set_thread_area>:
  403cf6:	48 89 fe             	mov    %rdi,%rsi
  403cf9:	bf 02 10 00 00       	mov    $0x1002,%edi
  403cfe:	b8 9e 00 00 00       	mov    $0x9e,%eax
  403d03:	0f 05                	syscall
  403d05:	c3                   	ret

0000000000403d06 <__lseek>:
  403d06:	48 63 ff             	movslq %edi,%rdi
  403d09:	48 63 d2             	movslq %edx,%rdx
  403d0c:	b8 08 00 00 00       	mov    $0x8,%eax
  403d11:	0f 05                	syscall
  403d13:	48 89 c7             	mov    %rax,%rdi
  403d16:	e9 05 00 00 00       	jmp    403d20 <__syscall_ret>
  403d1b:	0f 1f 44 00 00       	nopl   0x0(%rax,%rax,1)

0000000000403d20 <__syscall_ret>:
  403d20:	48 81 ff 00 f0 ff ff 	cmp    $0xfffffffffffff000,%rdi
  403d27:	77 07                	ja     403d30 <__syscall_ret+0x10>
  403d29:	48 89 f8             	mov    %rdi,%rax
  403d2c:	c3                   	ret
  403d2d:	0f 1f 00             	nopl   (%rax)
  403d30:	53                   	push   %rbx
  403d31:	48 89 fb             	mov    %rdi,%rbx
  403d34:	e8 e2 f9 ff ff       	call   40371b <__errno_location>
  403d39:	89 df                	mov    %ebx,%edi
  403d3b:	f7 df                	neg    %edi
  403d3d:	89 38                	mov    %edi,(%rax)
  403d3f:	48 c7 c0 ff ff ff ff 	mov    $0xffffffffffffffff,%rax
  403d46:	5b                   	pop    %rbx
  403d47:	c3                   	ret

0000000000403d48 <wcrtomb>:
  403d48:	b8 01 00 00 00       	mov    $0x1,%eax
  403d4d:	48 85 ff             	test   %rdi,%rdi
  403d50:	0f 84 00 01 00 00    	je     403e56 <wcrtomb+0x10e>
  403d56:	83 fe 7f             	cmp    $0x7f,%esi
  403d59:	0f 86 ef 00 00 00    	jbe    403e4e <wcrtomb+0x106>
  403d5f:	51                   	push   %rcx
  403d60:	89 f0                	mov    %esi,%eax
  403d62:	48 89 fa             	mov    %rdi,%rdx
  403d65:	64 48 8b 0c 25 00 00 	mov    %fs:0x0,%rcx
  403d6c:	00 00 
  403d6e:	48 8b 89 b0 00 00 00 	mov    0xb0(%rcx),%rcx
  403d75:	48 83 39 00          	cmpq   $0x0,(%rcx)
  403d79:	75 1b                	jne    403d96 <wcrtomb+0x4e>
  403d7b:	2d 80 df 00 00       	sub    $0xdf80,%eax
  403d80:	83 f8 7f             	cmp    $0x7f,%eax
  403d83:	0f 87 b4 00 00 00    	ja     403e3d <wcrtomb+0xf5>
  403d89:	40 88 37             	mov    %sil,(%rdi)
  403d8c:	b8 01 00 00 00       	mov    $0x1,%eax
  403d91:	e9 b6 00 00 00       	jmp    403e4c <wcrtomb+0x104>
  403d96:	81 fe ff 07 00 00    	cmp    $0x7ff,%esi
  403d9c:	77 1d                	ja     403dbb <wcrtomb+0x73>
  403d9e:	89 f1                	mov    %esi,%ecx
  403da0:	83 e0 3f             	and    $0x3f,%eax
  403da3:	c1 f9 06             	sar    $0x6,%ecx
  403da6:	83 c8 80             	or     $0xffffff80,%eax
  403da9:	83 c9 c0             	or     $0xffffffc0,%ecx
  403dac:	88 47 01             	mov    %al,0x1(%rdi)
  403daf:	b8 02 00 00 00       	mov    $0x2,%eax
  403db4:	88 0f                	mov    %cl,(%rdi)
  403db6:	e9 91 00 00 00       	jmp    403e4c <wcrtomb+0x104>
  403dbb:	8d 8e 00 20 ff ff    	lea    -0xe000(%rsi),%ecx
  403dc1:	81 f9 ff 1f 00 00    	cmp    $0x1fff,%ecx
  403dc7:	76 08                	jbe    403dd1 <wcrtomb+0x89>
  403dc9:	81 fe ff d7 00 00    	cmp    $0xd7ff,%esi
  403dcf:	77 28                	ja     403df9 <wcrtomb+0xb1>
  403dd1:	89 c1                	mov    %eax,%ecx
  403dd3:	c1 f9 0c             	sar    $0xc,%ecx
  403dd6:	83 c9 e0             	or     $0xffffffe0,%ecx
  403dd9:	88 0a                	mov    %cl,(%rdx)
  403ddb:	89 c1                	mov    %eax,%ecx
  403ddd:	83 e0 3f             	and    $0x3f,%eax
  403de0:	c1 f9 06             	sar    $0x6,%ecx
  403de3:	83 c8 80             	or     $0xffffff80,%eax
  403de6:	83 e1 3f             	and    $0x3f,%ecx
  403de9:	88 42 02             	mov    %al,0x2(%rdx)
  403dec:	b8 03 00 00 00       	mov    $0x3,%eax
  403df1:	83 c9 80             	or     $0xffffff80,%ecx
  403df4:	88 4a 01             	mov    %cl,0x1(%rdx)
  403df7:	eb 53                	jmp    403e4c <wcrtomb+0x104>
  403df9:	8d 8e 00 00 ff ff    	lea    -0x10000(%rsi),%ecx
  403dff:	81 f9 ff ff 0f 00    	cmp    $0xfffff,%ecx
  403e05:	77 36                	ja     403e3d <wcrtomb+0xf5>
  403e07:	89 f1                	mov    %esi,%ecx
  403e09:	83 e0 3f             	and    $0x3f,%eax
  403e0c:	c1 f9 12             	sar    $0x12,%ecx
  403e0f:	83 c8 80             	or     $0xffffff80,%eax
  403e12:	83 c9 f0             	or     $0xfffffff0,%ecx
  403e15:	88 47 03             	mov    %al,0x3(%rdi)
  403e18:	b8 04 00 00 00       	mov    $0x4,%eax
  403e1d:	88 0f                	mov    %cl,(%rdi)
  403e1f:	89 f1                	mov    %esi,%ecx
  403e21:	c1 f9 0c             	sar    $0xc,%ecx
  403e24:	83 e1 3f             	and    $0x3f,%ecx
  403e27:	83 c9 80             	or     $0xffffff80,%ecx
  403e2a:	88 4f 01             	mov    %cl,0x1(%rdi)
  403e2d:	89 f1                	mov    %esi,%ecx
  403e2f:	c1 f9 06             	sar    $0x6,%ecx
  403e32:	83 e1 3f             	and    $0x3f,%ecx
  403e35:	83 c9 80             	or     $0xffffff80,%ecx
  403e38:	88 4f 02             	mov    %cl,0x2(%rdi)
  403e3b:	eb 0f                	jmp    403e4c <wcrtomb+0x104>
  403e3d:	e8 d9 f8 ff ff       	call   40371b <__errno_location>
  403e42:	c7 00 54 00 00 00    	movl   $0x54,(%rax)
  403e48:	48 83 c8 ff          	or     $0xffffffffffffffff,%rax
  403e4c:	5a                   	pop    %rdx
  403e4d:	c3                   	ret
  403e4e:	40 88 37             	mov    %sil,(%rdi)
  403e51:	b8 01 00 00 00       	mov    $0x1,%eax
  403e56:	c3                   	ret

0000000000403e57 <close_file>:
  403e57:	48 85 ff             	test   %rdi,%rdi
  403e5a:	74 48                	je     403ea4 <close_file+0x4d>
  403e5c:	53                   	push   %rbx
  403e5d:	8b 87 8c 00 00 00    	mov    0x8c(%rdi),%eax
  403e63:	48 89 fb             	mov    %rdi,%rbx
  403e66:	85 c0                	test   %eax,%eax
  403e68:	78 05                	js     403e6f <close_file+0x18>
  403e6a:	e8 23 fa ff ff       	call   403892 <__lockfile>
  403e6f:	48 8b 43 38          	mov    0x38(%rbx),%rax
  403e73:	48 39 43 28          	cmp    %rax,0x28(%rbx)
  403e77:	74 0a                	je     403e83 <close_file+0x2c>
  403e79:	31 d2                	xor    %edx,%edx
  403e7b:	31 f6                	xor    %esi,%esi
  403e7d:	48 89 df             	mov    %rbx,%rdi
  403e80:	ff 53 48             	call   *0x48(%rbx)
  403e83:	48 8b 73 08          	mov    0x8(%rbx),%rsi
  403e87:	48 8b 43 10          	mov    0x10(%rbx),%rax
  403e8b:	48 39 c6             	cmp    %rax,%rsi
  403e8e:	74 12                	je     403ea2 <close_file+0x4b>
  403e90:	48 29 c6             	sub    %rax,%rsi
  403e93:	48 89 df             	mov    %rbx,%rdi
  403e96:	48 8b 43 50          	mov    0x50(%rbx),%rax
  403e9a:	ba 01 00 00 00       	mov    $0x1,%edx
  403e9f:	5b                   	pop    %rbx
  403ea0:	ff e0                	jmp    *%rax
  403ea2:	5b                   	pop    %rbx
  403ea3:	c3                   	ret
  403ea4:	c3                   	ret

0000000000403ea5 <__stdio_exit>:
  403ea5:	53                   	push   %rbx
  403ea6:	e8 8b d7 ff ff       	call   401636 <__ofl_lock>
  403eab:	48 8b 18             	mov    (%rax),%rbx
  403eae:	48 85 db             	test   %rbx,%rbx
  403eb1:	74 0e                	je     403ec1 <__stdio_exit+0x1c>
  403eb3:	48 89 df             	mov    %rbx,%rdi
  403eb6:	e8 9c ff ff ff       	call   403e57 <close_file>
  403ebb:	48 8b 5b 70          	mov    0x70(%rbx),%rbx
  403ebf:	eb ed                	jmp    403eae <__stdio_exit+0x9>
  403ec1:	48 8b 3d 48 31 00 00 	mov    0x3148(%rip),%rdi        # 407010 <__stdin_used>
  403ec8:	e8 8a ff ff ff       	call   403e57 <close_file>
  403ecd:	48 8b 3d 34 32 00 00 	mov    0x3234(%rip),%rdi        # 407108 <__stdout_used>
  403ed4:	e8 7e ff ff ff       	call   403e57 <close_file>
  403ed9:	48 8b 3d a0 33 00 00 	mov    0x33a0(%rip),%rdi        # 407280 <__stderr_used>
  403ee0:	5b                   	pop    %rbx
  403ee1:	e9 71 ff ff ff       	jmp    403e57 <close_file>

0000000000403ee6 <__stdio_write>:
  403ee6:	41 57                	push   %r15
  403ee8:	41 bf 14 00 00 00    	mov    $0x14,%r15d
  403eee:	41 56                	push   %r14
  403ef0:	41 be 02 00 00 00    	mov    $0x2,%r14d
  403ef6:	41 55                	push   %r13
  403ef8:	49 89 d5             	mov    %rdx,%r13
  403efb:	41 54                	push   %r12
  403efd:	55                   	push   %rbp
  403efe:	53                   	push   %rbx
  403eff:	48 89 fb             	mov    %rdi,%rbx
  403f02:	48 83 ec 28          	sub    $0x28,%rsp
  403f06:	48 8b 47 38          	mov    0x38(%rdi),%rax
  403f0a:	4c 8b 67 28          	mov    0x28(%rdi),%r12
  403f0e:	48 89 74 24 10       	mov    %rsi,0x10(%rsp)
  403f13:	48 89 e5             	mov    %rsp,%rbp
  403f16:	48 89 04 24          	mov    %rax,(%rsp)
  403f1a:	49 29 c4             	sub    %rax,%r12
  403f1d:	48 89 54 24 18       	mov    %rdx,0x18(%rsp)
  403f22:	4c 89 64 24 08       	mov    %r12,0x8(%rsp)
  403f27:	49 01 d4             	add    %rdx,%r12
  403f2a:	48 63 7b 78          	movslq 0x78(%rbx),%rdi
  403f2e:	49 63 d6             	movslq %r14d,%rdx
  403f31:	4c 89 f8             	mov    %r15,%rax
  403f34:	48 89 ee             	mov    %rbp,%rsi
  403f37:	0f 05                	syscall
  403f39:	48 89 c7             	mov    %rax,%rdi
  403f3c:	e8 df fd ff ff       	call   403d20 <__syscall_ret>
  403f41:	49 39 c4             	cmp    %rax,%r12
  403f44:	75 19                	jne    403f5f <__stdio_write+0x79>
  403f46:	48 8b 43 58          	mov    0x58(%rbx),%rax
  403f4a:	48 8b 53 60          	mov    0x60(%rbx),%rdx
  403f4e:	48 01 c2             	add    %rax,%rdx
  403f51:	48 89 43 38          	mov    %rax,0x38(%rbx)
  403f55:	48 89 53 20          	mov    %rdx,0x20(%rbx)
  403f59:	48 89 43 28          	mov    %rax,0x28(%rbx)
  403f5d:	eb 52                	jmp    403fb1 <__stdio_write+0xcb>
  403f5f:	48 85 c0             	test   %rax,%rax
  403f62:	79 27                	jns    403f8b <__stdio_write+0xa5>
  403f64:	48 c7 43 20 00 00 00 	movq   $0x0,0x20(%rbx)
  403f6b:	00 
  403f6c:	48 c7 43 38 00 00 00 	movq   $0x0,0x38(%rbx)
  403f73:	00 
  403f74:	48 c7 43 28 00 00 00 	movq   $0x0,0x28(%rbx)
  403f7b:	00 
  403f7c:	83 0b 20             	orl    $0x20,(%rbx)
  403f7f:	41 83 fe 02          	cmp    $0x2,%r14d
  403f83:	74 29                	je     403fae <__stdio_write+0xc8>
  403f85:	4c 2b 6d 08          	sub    0x8(%rbp),%r13
  403f89:	eb 26                	jmp    403fb1 <__stdio_write+0xcb>
  403f8b:	48 8b 55 08          	mov    0x8(%rbp),%rdx
  403f8f:	49 29 c4             	sub    %rax,%r12
  403f92:	48 39 d0             	cmp    %rdx,%rax
  403f95:	76 0a                	jbe    403fa1 <__stdio_write+0xbb>
  403f97:	48 29 d0             	sub    %rdx,%rax
  403f9a:	48 83 c5 10          	add    $0x10,%rbp
  403f9e:	41 ff ce             	dec    %r14d
  403fa1:	48 01 45 00          	add    %rax,0x0(%rbp)
  403fa5:	48 29 45 08          	sub    %rax,0x8(%rbp)
  403fa9:	e9 7c ff ff ff       	jmp    403f2a <__stdio_write+0x44>
  403fae:	45 31 ed             	xor    %r13d,%r13d
  403fb1:	48 83 c4 28          	add    $0x28,%rsp
  403fb5:	4c 89 e8             	mov    %r13,%rax
  403fb8:	5b                   	pop    %rbx
  403fb9:	5d                   	pop    %rbp
  403fba:	41 5c                	pop    %r12
  403fbc:	41 5d                	pop    %r13
  403fbe:	41 5e                	pop    %r14
  403fc0:	41 5f                	pop    %r15
  403fc2:	c3                   	ret

0000000000403fc3 <__toread>:
  403fc3:	8b 97 88 00 00 00    	mov    0x88(%rdi),%edx
  403fc9:	53                   	push   %rbx
  403fca:	48 89 fb             	mov    %rdi,%rbx
  403fcd:	8d 42 ff             	lea    -0x1(%rdx),%eax
  403fd0:	09 d0                	or     %edx,%eax
  403fd2:	89 87 88 00 00 00    	mov    %eax,0x88(%rdi)
  403fd8:	48 8b 47 38          	mov    0x38(%rdi),%rax
  403fdc:	48 39 47 28          	cmp    %rax,0x28(%rdi)
  403fe0:	74 07                	je     403fe9 <__toread+0x26>
  403fe2:	31 d2                	xor    %edx,%edx
  403fe4:	31 f6                	xor    %esi,%esi
  403fe6:	ff 57 48             	call   *0x48(%rdi)
  403fe9:	8b 03                	mov    (%rbx),%eax
  403feb:	48 c7 43 20 00 00 00 	movq   $0x0,0x20(%rbx)
  403ff2:	00 
  403ff3:	48 c7 43 38 00 00 00 	movq   $0x0,0x38(%rbx)
  403ffa:	00 
  403ffb:	48 c7 43 28 00 00 00 	movq   $0x0,0x28(%rbx)
  404002:	00 
  404003:	a8 04                	test   $0x4,%al
  404005:	74 0a                	je     404011 <__toread+0x4e>
  404007:	83 c8 20             	or     $0x20,%eax
  40400a:	89 03                	mov    %eax,(%rbx)
  40400c:	83 c8 ff             	or     $0xffffffff,%eax
  40400f:	eb 16                	jmp    404027 <__toread+0x64>
  404011:	48 8b 53 60          	mov    0x60(%rbx),%rdx
  404015:	48 03 53 58          	add    0x58(%rbx),%rdx
  404019:	c1 e0 1b             	shl    $0x1b,%eax
  40401c:	48 89 53 10          	mov    %rdx,0x10(%rbx)
  404020:	c1 f8 1f             	sar    $0x1f,%eax
  404023:	48 89 53 08          	mov    %rdx,0x8(%rbx)
  404027:	5b                   	pop    %rbx
  404028:	c3                   	ret

0000000000404029 <__toread_needs_stdio_exit>:
  404029:	e9 77 fe ff ff       	jmp    403ea5 <__stdio_exit>

000000000040402e <__do_global_ctors_aux>:
  40402e:	55                   	push   %rbp
  40402f:	48 89 e5             	mov    %rsp,%rbp
  404032:	53                   	push   %rbx
  404033:	bb e0 6f 40 00       	mov    $0x406fe0,%ebx
  404038:	52                   	push   %rdx
  404039:	48 8b 03             	mov    (%rbx),%rax
  40403c:	48 83 f8 ff          	cmp    $0xffffffffffffffff,%rax
  404040:	74 08                	je     40404a <__do_global_ctors_aux+0x1c>
  404042:	ff d0                	call   *%rax
  404044:	48 83 eb 08          	sub    $0x8,%rbx
  404048:	eb ef                	jmp    404039 <__do_global_ctors_aux+0xb>
  40404a:	58                   	pop    %rax
  40404b:	5b                   	pop    %rbx
  40404c:	5d                   	pop    %rbp
  40404d:	c3                   	ret

Disassembly of section .fini:

000000000040404e <_fini>:
  40404e:	50                   	push   %rax
  40404f:	e8 13 d0 ff ff       	call   401067 <__do_global_dtors_aux>
  404054:	58                   	pop    %rax
  404055:	c3                   	ret
