
service-reveng3:     file format elf64-x86-64


Disassembly of section .init:

0000000000401000 <_init>:
  401000:	50                   	push   %rax
  401001:	e8 c7 00 00 00       	call   4010cd <frame_dummy>
  401006:	e8 63 30 00 00       	call   40406e <__do_global_ctors_aux>
  40100b:	58                   	pop    %rax
  40100c:	c3                   	ret

Disassembly of section .text:

0000000000401010 <exit>:
  401010:	53                   	push   %rbx
  401011:	89 fb                	mov    %edi,%ebx
  401013:	e8 75 03 00 00       	call   40138d <__funcs_on_exit>
  401018:	e8 71 03 00 00       	call   40138e <__libc_exit_fini>
  40101d:	31 c0                	xor    %eax,%eax
  40101f:	e8 c1 2e 00 00       	call   403ee5 <__stdio_exit>
  401024:	89 df                	mov    %ebx,%edi
  401026:	67 e8 07 27 00 00    	addr32 call 403733 <_Exit>

000000000040102c <_start>:
  40102c:	48 31 ed             	xor    %rbp,%rbp
  40102f:	48 89 e7             	mov    %rsp,%rdi
  401032:	48 8d 35 c7 ef bf ff 	lea    -0x401039(%rip),%rsi        # 0 <_init-0x401000>
  401039:	48 83 e4 f0          	and    $0xfffffffffffffff0,%rsp
  40103d:	e8 00 00 00 00       	call   401042 <_start_c>

0000000000401042 <_start_c>:
  401042:	48 8d 57 08          	lea    0x8(%rdi),%rdx
  401046:	48 8b 37             	mov    (%rdi),%rsi
  401049:	45 31 c9             	xor    %r9d,%r9d
  40104c:	49 c7 c0 8e 40 40 00 	mov    $0x40408e,%r8
  401053:	48 c7 c1 00 10 40 00 	mov    $0x401000,%rcx
  40105a:	48 c7 c7 e7 10 40 00 	mov    $0x4010e7,%rdi
  401061:	e9 f7 02 00 00       	jmp    40135d <__libc_start_main>
  401066:	90                   	nop

0000000000401067 <__do_global_dtors_aux>:
  401067:	80 3d b2 71 00 00 00 	cmpb   $0x0,0x71b2(%rip)        # 408220 <completed.5751>
  40106e:	75 5c                	jne    4010cc <__do_global_dtors_aux+0x65>
  401070:	55                   	push   %rbp
  401071:	48 89 e5             	mov    %rsp,%rbp
  401074:	41 54                	push   %r12
  401076:	41 bc f0 7f 40 00    	mov    $0x407ff0,%r12d
  40107c:	53                   	push   %rbx
  40107d:	bb f8 7f 40 00       	mov    $0x407ff8,%ebx
  401082:	48 81 eb f0 7f 40 00 	sub    $0x407ff0,%rbx
  401089:	48 c1 fb 03          	sar    $0x3,%rbx
  40108d:	48 ff cb             	dec    %rbx
  401090:	48 8b 05 91 71 00 00 	mov    0x7191(%rip),%rax        # 408228 <dtor_idx.5753>
  401097:	48 39 d8             	cmp    %rbx,%rax
  40109a:	73 10                	jae    4010ac <__do_global_dtors_aux+0x45>
  40109c:	48 ff c0             	inc    %rax
  40109f:	48 89 05 82 71 00 00 	mov    %rax,0x7182(%rip)        # 408228 <dtor_idx.5753>
  4010a6:	41 ff 14 c4          	call   *(%r12,%rax,8)
  4010aa:	eb e4                	jmp    401090 <__do_global_dtors_aux+0x29>
  4010ac:	b8 00 00 00 00       	mov    $0x0,%eax
  4010b1:	48 85 c0             	test   %rax,%rax
  4010b4:	74 0a                	je     4010c0 <__do_global_dtors_aux+0x59>
  4010b6:	bf c0 60 40 00       	mov    $0x4060c0,%edi
  4010bb:	e8 40 ef bf ff       	call   0 <_init-0x401000>
  4010c0:	5b                   	pop    %rbx
  4010c1:	41 5c                	pop    %r12
  4010c3:	c6 05 56 71 00 00 01 	movb   $0x1,0x7156(%rip)        # 408220 <completed.5751>
  4010ca:	5d                   	pop    %rbp
  4010cb:	c3                   	ret
  4010cc:	c3                   	ret

00000000004010cd <frame_dummy>:
  4010cd:	b8 00 00 00 00       	mov    $0x0,%eax
  4010d2:	48 85 c0             	test   %rax,%rax
  4010d5:	74 0f                	je     4010e6 <frame_dummy+0x19>
  4010d7:	be 40 82 40 00       	mov    $0x408240,%esi
  4010dc:	bf c0 60 40 00       	mov    $0x4060c0,%edi
  4010e1:	e9 1a ef bf ff       	jmp    0 <_init-0x401000>
  4010e6:	c3                   	ret

00000000004010e7 <main>:
  4010e7:	55                   	push   %rbp
  4010e8:	48 89 e5             	mov    %rsp,%rbp
  4010eb:	48 81 ec 10 04 00 00 	sub    $0x410,%rsp
  4010f2:	c7 45 fc 00 00 00 00 	movl   $0x0,-0x4(%rbp)
  4010f9:	48 c7 45 f0 10 50 40 	movq   $0x405010,-0x10(%rbp)
  401100:	00 
  401101:	c7 45 fc 00 00 00 00 	movl   $0x0,-0x4(%rbp)
  401108:	eb 04                	jmp    40110e <main+0x27>
  40110a:	83 45 fc 01          	addl   $0x1,-0x4(%rbp)
  40110e:	81 7d fc 28 01 00 00 	cmpl   $0x128,-0x4(%rbp)
  401115:	7e f3                	jle    40110a <main+0x23>
  401117:	bf 11 54 40 00       	mov    $0x405411,%edi
  40111c:	b8 00 00 00 00       	mov    $0x0,%eax
  401121:	e8 3d 05 00 00       	call   401663 <printf>
  401126:	48 8b 05 03 43 00 00 	mov    0x4303(%rip),%rax        # 405430 <stdin>
  40112d:	48 89 c7             	mov    %rax,%rdi
  401130:	e8 7a 02 00 00       	call   4013af <fflush>
  401135:	48 8b 15 f4 42 00 00 	mov    0x42f4(%rip),%rdx        # 405430 <stdin>
  40113c:	48 8d 85 f0 fb ff ff 	lea    -0x410(%rbp),%rax
  401143:	be 00 04 00 00       	mov    $0x400,%esi
  401148:	48 89 c7             	mov    %rax,%rdi
  40114b:	e8 94 03 00 00       	call   4014e4 <fgets>
  401150:	8b 45 fc             	mov    -0x4(%rbp),%eax
  401153:	48 63 d0             	movslq %eax,%rdx
  401156:	48 8b 45 f0          	mov    -0x10(%rbp),%rax
  40115a:	48 8d 0c 02          	lea    (%rdx,%rax,1),%rcx
  40115e:	48 8d 85 f0 fb ff ff 	lea    -0x410(%rbp),%rax
  401165:	ba 08 00 00 00       	mov    $0x8,%edx
  40116a:	48 89 c6             	mov    %rax,%rsi
  40116d:	48 89 cf             	mov    %rcx,%rdi
  401170:	e8 3b 20 00 00       	call   4031b0 <strncmp>
  401175:	85 c0                	test   %eax,%eax
  401177:	75 11                	jne    40118a <main+0xa3>
  401179:	48 8b 05 88 6e 00 00 	mov    0x6e88(%rip),%rax        # 408008 <SECRET>
  401180:	48 89 c7             	mov    %rax,%rdi
  401183:	e8 78 05 00 00       	call   401700 <puts>
  401188:	eb 0a                	jmp    401194 <main+0xad>
  40118a:	bf 1c 54 40 00       	mov    $0x40541c,%edi
  40118f:	e8 6c 05 00 00       	call   401700 <puts>
  401194:	b8 00 00 00 00       	mov    $0x0,%eax
  401199:	c9                   	leave
  40119a:	c3                   	ret

000000000040119b <dummy>:
  40119b:	c3                   	ret

000000000040119c <dummy1>:
  40119c:	c3                   	ret

000000000040119d <__init_libc>:
  40119d:	53                   	push   %rbx
  40119e:	48 89 fa             	mov    %rdi,%rdx
  4011a1:	31 c0                	xor    %eax,%eax
  4011a3:	b9 4c 00 00 00       	mov    $0x4c,%ecx
  4011a8:	48 81 ec 50 01 00 00 	sub    $0x150,%rsp
  4011af:	48 89 15 12 79 00 00 	mov    %rdx,0x7912(%rip)        # 408ac8 <__environ>
  4011b6:	48 8d 7c 24 20       	lea    0x20(%rsp),%rdi
  4011bb:	f3 ab                	rep stos %eax,%es:(%rdi)
  4011bd:	31 c0                	xor    %eax,%eax
  4011bf:	48 8b 0c c2          	mov    (%rdx,%rax,8),%rcx
  4011c3:	48 ff c0             	inc    %rax
  4011c6:	48 85 c9             	test   %rcx,%rcx
  4011c9:	75 f4                	jne    4011bf <__init_libc+0x22>
  4011cb:	48 8d 04 c2          	lea    (%rdx,%rax,8),%rax
  4011cf:	48 89 05 f2 7a 00 00 	mov    %rax,0x7af2(%rip)        # 408cc8 <__libc+0x8>
  4011d6:	48 8b 18             	mov    (%rax),%rbx
  4011d9:	48 85 db             	test   %rbx,%rbx
  4011dc:	74 15                	je     4011f3 <__init_libc+0x56>
  4011de:	48 83 fb 25          	cmp    $0x25,%rbx
  4011e2:	77 09                	ja     4011ed <__init_libc+0x50>
  4011e4:	48 8b 50 08          	mov    0x8(%rax),%rdx
  4011e8:	48 89 54 dc 20       	mov    %rdx,0x20(%rsp,%rbx,8)
  4011ed:	48 83 c0 10          	add    $0x10,%rax
  4011f1:	eb e3                	jmp    4011d6 <__init_libc+0x39>
  4011f3:	48 8b 84 24 a0 00 00 	mov    0xa0(%rsp),%rax
  4011fa:	00 
  4011fb:	48 89 05 9e 7a 00 00 	mov    %rax,0x7a9e(%rip)        # 408ca0 <__hwcap>
  401202:	48 8b 84 24 20 01 00 	mov    0x120(%rsp),%rax
  401209:	00 
  40120a:	48 85 c0             	test   %rax,%rax
  40120d:	74 07                	je     401216 <__init_libc+0x79>
  40120f:	48 89 05 7a 7a 00 00 	mov    %rax,0x7a7a(%rip)        # 408c90 <__sysinfo>
  401216:	48 8b 44 24 50       	mov    0x50(%rsp),%rax
  40121b:	48 89 05 ce 7a 00 00 	mov    %rax,0x7ace(%rip)        # 408cf0 <__libc+0x30>
  401222:	48 85 f6             	test   %rsi,%rsi
  401225:	75 14                	jne    40123b <__init_libc+0x9e>
  401227:	48 8b b4 24 18 01 00 	mov    0x118(%rsp),%rsi
  40122e:	00 
  40122f:	b8 05 55 40 00       	mov    $0x405505,%eax
  401234:	48 85 f6             	test   %rsi,%rsi
  401237:	48 0f 44 f0          	cmove  %rax,%rsi
  40123b:	48 89 35 2e 70 00 00 	mov    %rsi,0x702e(%rip)        # 408270 <__progname_full>
  401242:	48 89 35 2f 70 00 00 	mov    %rsi,0x702f(%rip)        # 408278 <__progname>
  401249:	48 ff c6             	inc    %rsi
  40124c:	8a 46 ff             	mov    -0x1(%rsi),%al
  40124f:	84 c0                	test   %al,%al
  401251:	74 06                	je     401259 <__init_libc+0xbc>
  401253:	3c 2f                	cmp    $0x2f,%al
  401255:	75 f2                	jne    401249 <__init_libc+0xac>
  401257:	eb e9                	jmp    401242 <__init_libc+0xa5>
  401259:	48 8d 7c 24 20       	lea    0x20(%rsp),%rdi
  40125e:	e8 b0 22 00 00       	call   403513 <__init_tls>
  401263:	48 8b bc 24 e8 00 00 	mov    0xe8(%rsp),%rdi
  40126a:	00 
  40126b:	e8 25 24 00 00       	call   403695 <__init_ssp>
  401270:	48 8b 84 24 80 00 00 	mov    0x80(%rsp),%rax
  401277:	00 
  401278:	48 39 44 24 78       	cmp    %rax,0x78(%rsp)
  40127d:	75 1d                	jne    40129c <__init_libc+0xff>
  40127f:	48 8b 84 24 90 00 00 	mov    0x90(%rsp),%rax
  401286:	00 
  401287:	48 39 84 24 88 00 00 	cmp    %rax,0x88(%rsp)
  40128e:	00 
  40128f:	75 0b                	jne    40129c <__init_libc+0xff>
  401291:	48 83 bc 24 d8 00 00 	cmpq   $0x0,0xd8(%rsp)
  401298:	00 00 
  40129a:	74 6a                	je     401306 <__init_libc+0x169>
  40129c:	ba 06 00 00 00       	mov    $0x6,%edx
  4012a1:	31 c0                	xor    %eax,%eax
  4012a3:	48 8d 7c 24 08       	lea    0x8(%rsp),%rdi
  4012a8:	be 03 00 00 00       	mov    $0x3,%esi
  4012ad:	48 89 d1             	mov    %rdx,%rcx
  4012b0:	4c 8d 44 24 08       	lea    0x8(%rsp),%r8
  4012b5:	f3 ab                	rep stos %eax,%es:(%rdi)
  4012b7:	c7 44 24 10 01 00 00 	movl   $0x1,0x10(%rsp)
  4012be:	00 
  4012bf:	b8 07 00 00 00       	mov    $0x7,%eax
  4012c4:	4c 89 c7             	mov    %r8,%rdi
  4012c7:	c7 44 24 18 02 00 00 	movl   $0x2,0x18(%rsp)
  4012ce:	00 
  4012cf:	48 89 ca             	mov    %rcx,%rdx
  4012d2:	0f 05                	syscall
  4012d4:	85 c0                	test   %eax,%eax
  4012d6:	79 01                	jns    4012d9 <__init_libc+0x13c>
  4012d8:	f4                   	hlt
  4012d9:	be 02 00 00 00       	mov    $0x2,%esi
  4012de:	bf 23 54 40 00       	mov    $0x405423,%edi
  4012e3:	41 f6 44 d8 06 20    	testb  $0x20,0x6(%r8,%rbx,8)
  4012e9:	74 0b                	je     4012f6 <__init_libc+0x159>
  4012eb:	48 89 f0             	mov    %rsi,%rax
  4012ee:	0f 05                	syscall
  4012f0:	48 85 c0             	test   %rax,%rax
  4012f3:	79 01                	jns    4012f6 <__init_libc+0x159>
  4012f5:	f4                   	hlt
  4012f6:	48 ff c3             	inc    %rbx
  4012f9:	48 83 fb 03          	cmp    $0x3,%rbx
  4012fd:	75 e4                	jne    4012e3 <__init_libc+0x146>
  4012ff:	c6 05 bc 79 00 00 01 	movb   $0x1,0x79bc(%rip)        # 408cc2 <__libc+0x2>
  401306:	48 81 c4 50 01 00 00 	add    $0x150,%rsp
  40130d:	5b                   	pop    %rbx
  40130e:	c3                   	ret

000000000040130f <__libc_start_init>:
  40130f:	53                   	push   %rbx
  401310:	bb e0 7f 40 00       	mov    $0x407fe0,%ebx
  401315:	e8 e6 fc ff ff       	call   401000 <_init>
  40131a:	48 81 fb e0 7f 40 00 	cmp    $0x407fe0,%rbx
  401321:	73 08                	jae    40132b <__libc_start_init+0x1c>
  401323:	ff 13                	call   *(%rbx)
  401325:	48 83 c3 08          	add    $0x8,%rbx
  401329:	eb ef                	jmp    40131a <__libc_start_init+0xb>
  40132b:	5b                   	pop    %rbx
  40132c:	c3                   	ret

000000000040132d <libc_start_main_stage2>:
  40132d:	41 55                	push   %r13
  40132f:	41 54                	push   %r12
  401331:	49 89 fc             	mov    %rdi,%r12
  401334:	55                   	push   %rbp
  401335:	48 89 d5             	mov    %rdx,%rbp
  401338:	53                   	push   %rbx
  401339:	50                   	push   %rax
  40133a:	48 63 c6             	movslq %esi,%rax
  40133d:	48 89 c3             	mov    %rax,%rbx
  401340:	4c 8d 6c c2 08       	lea    0x8(%rdx,%rax,8),%r13
  401345:	e8 c5 ff ff ff       	call   40130f <__libc_start_init>
  40134a:	89 df                	mov    %ebx,%edi
  40134c:	4c 89 ea             	mov    %r13,%rdx
  40134f:	48 89 ee             	mov    %rbp,%rsi
  401352:	41 ff d4             	call   *%r12
  401355:	89 c7                	mov    %eax,%edi
  401357:	67 e8 b3 fc ff ff    	addr32 call 401010 <exit>

000000000040135d <__libc_start_main>:
  40135d:	41 54                	push   %r12
  40135f:	48 63 c6             	movslq %esi,%rax
  401362:	49 89 fc             	mov    %rdi,%r12
  401365:	55                   	push   %rbp
  401366:	48 8d 7c c2 08       	lea    0x8(%rdx,%rax,8),%rdi
  40136b:	48 89 c5             	mov    %rax,%rbp
  40136e:	53                   	push   %rbx
  40136f:	48 8b 32             	mov    (%rdx),%rsi
  401372:	48 89 d3             	mov    %rdx,%rbx
  401375:	e8 23 fe ff ff       	call   40119d <__init_libc>
  40137a:	b8 2d 13 40 00       	mov    $0x40132d,%eax
  40137f:	48 89 da             	mov    %rbx,%rdx
  401382:	89 ee                	mov    %ebp,%esi
  401384:	4c 89 e7             	mov    %r12,%rdi
  401387:	5b                   	pop    %rbx
  401388:	5d                   	pop    %rbp
  401389:	41 5c                	pop    %r12
  40138b:	ff e0                	jmp    *%rax

000000000040138d <__funcs_on_exit>:
  40138d:	c3                   	ret

000000000040138e <__libc_exit_fini>:
  40138e:	53                   	push   %rbx
  40138f:	bb e0 7f 40 00       	mov    $0x407fe0,%ebx
  401394:	48 81 fb e0 7f 40 00 	cmp    $0x407fe0,%rbx
  40139b:	76 0a                	jbe    4013a7 <__libc_exit_fini+0x19>
  40139d:	48 83 eb 08          	sub    $0x8,%rbx
  4013a1:	31 c0                	xor    %eax,%eax
  4013a3:	ff 13                	call   *(%rbx)
  4013a5:	eb ed                	jmp    401394 <__libc_exit_fini+0x6>
  4013a7:	31 c0                	xor    %eax,%eax
  4013a9:	5b                   	pop    %rbx
  4013aa:	e9 df 2c 00 00       	jmp    40408e <_fini>

00000000004013af <fflush>:
  4013af:	41 54                	push   %r12
  4013b1:	55                   	push   %rbp
  4013b2:	53                   	push   %rbx
  4013b3:	48 85 ff             	test   %rdi,%rdi
  4013b6:	0f 85 8c 00 00 00    	jne    401448 <fflush+0x99>
  4013bc:	48 8b 05 45 6d 00 00 	mov    0x6d45(%rip),%rax        # 408108 <__stdout_used>
  4013c3:	31 ed                	xor    %ebp,%ebp
  4013c5:	48 85 c0             	test   %rax,%rax
  4013c8:	74 0e                	je     4013d8 <fflush+0x29>
  4013ca:	48 8b 3d 37 6d 00 00 	mov    0x6d37(%rip),%rdi        # 408108 <__stdout_used>
  4013d1:	e8 d9 ff ff ff       	call   4013af <fflush>
  4013d6:	89 c5                	mov    %eax,%ebp
  4013d8:	48 8b 05 a1 6e 00 00 	mov    0x6ea1(%rip),%rax        # 408280 <__stderr_used>
  4013df:	48 85 c0             	test   %rax,%rax
  4013e2:	74 0e                	je     4013f2 <fflush+0x43>
  4013e4:	48 8b 3d 95 6e 00 00 	mov    0x6e95(%rip),%rdi        # 408280 <__stderr_used>
  4013eb:	e8 bf ff ff ff       	call   4013af <fflush>
  4013f0:	09 c5                	or     %eax,%ebp
  4013f2:	e8 50 02 00 00       	call   401647 <__ofl_lock>
  4013f7:	48 8b 18             	mov    (%rax),%rbx
  4013fa:	48 85 db             	test   %rbx,%rbx
  4013fd:	74 3f                	je     40143e <fflush+0x8f>
  4013ff:	8b 83 8c 00 00 00    	mov    0x8c(%rbx),%eax
  401405:	45 31 e4             	xor    %r12d,%r12d
  401408:	85 c0                	test   %eax,%eax
  40140a:	78 0b                	js     401417 <fflush+0x68>
  40140c:	48 89 df             	mov    %rbx,%rdi
  40140f:	e8 3e 24 00 00       	call   403852 <__lockfile>
  401414:	41 89 c4             	mov    %eax,%r12d
  401417:	48 8b 43 38          	mov    0x38(%rbx),%rax
  40141b:	48 39 43 28          	cmp    %rax,0x28(%rbx)
  40141f:	74 0a                	je     40142b <fflush+0x7c>
  401421:	48 89 df             	mov    %rbx,%rdi
  401424:	e8 86 ff ff ff       	call   4013af <fflush>
  401429:	09 c5                	or     %eax,%ebp
  40142b:	45 85 e4             	test   %r12d,%r12d
  40142e:	74 08                	je     401438 <fflush+0x89>
  401430:	48 89 df             	mov    %rbx,%rdi
  401433:	e8 c4 24 00 00       	call   4038fc <__unlockfile>
  401438:	48 8b 5b 70          	mov    0x70(%rbx),%rbx
  40143c:	eb bc                	jmp    4013fa <fflush+0x4b>
  40143e:	e8 16 02 00 00       	call   401659 <__ofl_unlock>
  401443:	e9 95 00 00 00       	jmp    4014dd <fflush+0x12e>
  401448:	8b 87 8c 00 00 00    	mov    0x8c(%rdi),%eax
  40144e:	48 89 fb             	mov    %rdi,%rbx
  401451:	31 ed                	xor    %ebp,%ebp
  401453:	85 c0                	test   %eax,%eax
  401455:	78 07                	js     40145e <fflush+0xaf>
  401457:	e8 f6 23 00 00       	call   403852 <__lockfile>
  40145c:	89 c5                	mov    %eax,%ebp
  40145e:	48 8b 43 38          	mov    0x38(%rbx),%rax
  401462:	48 39 43 28          	cmp    %rax,0x28(%rbx)
  401466:	74 1f                	je     401487 <fflush+0xd8>
  401468:	31 d2                	xor    %edx,%edx
  40146a:	31 f6                	xor    %esi,%esi
  40146c:	48 89 df             	mov    %rbx,%rdi
  40146f:	ff 53 48             	call   *0x48(%rbx)
  401472:	48 83 7b 28 00       	cmpq   $0x0,0x28(%rbx)
  401477:	75 0e                	jne    401487 <fflush+0xd8>
  401479:	85 ed                	test   %ebp,%ebp
  40147b:	74 5d                	je     4014da <fflush+0x12b>
  40147d:	48 89 df             	mov    %rbx,%rdi
  401480:	e8 77 24 00 00       	call   4038fc <__unlockfile>
  401485:	eb 53                	jmp    4014da <fflush+0x12b>
  401487:	48 8b 73 08          	mov    0x8(%rbx),%rsi
  40148b:	48 8b 43 10          	mov    0x10(%rbx),%rax
  40148f:	48 39 c6             	cmp    %rax,%rsi
  401492:	74 0e                	je     4014a2 <fflush+0xf3>
  401494:	48 29 c6             	sub    %rax,%rsi
  401497:	ba 01 00 00 00       	mov    $0x1,%edx
  40149c:	48 89 df             	mov    %rbx,%rdi
  40149f:	ff 53 50             	call   *0x50(%rbx)
  4014a2:	48 c7 43 20 00 00 00 	movq   $0x0,0x20(%rbx)
  4014a9:	00 
  4014aa:	48 c7 43 38 00 00 00 	movq   $0x0,0x38(%rbx)
  4014b1:	00 
  4014b2:	48 c7 43 28 00 00 00 	movq   $0x0,0x28(%rbx)
  4014b9:	00 
  4014ba:	48 c7 43 10 00 00 00 	movq   $0x0,0x10(%rbx)
  4014c1:	00 
  4014c2:	48 c7 43 08 00 00 00 	movq   $0x0,0x8(%rbx)
  4014c9:	00 
  4014ca:	85 ed                	test   %ebp,%ebp
  4014cc:	74 0f                	je     4014dd <fflush+0x12e>
  4014ce:	48 89 df             	mov    %rbx,%rdi
  4014d1:	31 ed                	xor    %ebp,%ebp
  4014d3:	e8 24 24 00 00       	call   4038fc <__unlockfile>
  4014d8:	eb 03                	jmp    4014dd <fflush+0x12e>
  4014da:	83 cd ff             	or     $0xffffffff,%ebp
  4014dd:	89 e8                	mov    %ebp,%eax
  4014df:	5b                   	pop    %rbx
  4014e0:	5d                   	pop    %rbp
  4014e1:	41 5c                	pop    %r12
  4014e3:	c3                   	ret

00000000004014e4 <fgets>:
  4014e4:	41 57                	push   %r15
  4014e6:	41 56                	push   %r14
  4014e8:	41 89 f6             	mov    %esi,%r14d
  4014eb:	41 55                	push   %r13
  4014ed:	41 54                	push   %r12
  4014ef:	49 89 fc             	mov    %rdi,%r12
  4014f2:	55                   	push   %rbp
  4014f3:	53                   	push   %rbx
  4014f4:	48 89 d3             	mov    %rdx,%rbx
  4014f7:	48 83 ec 18          	sub    $0x18,%rsp
  4014fb:	8b 82 8c 00 00 00    	mov    0x8c(%rdx),%eax
  401501:	c7 44 24 0c 00 00 00 	movl   $0x0,0xc(%rsp)
  401508:	00 
  401509:	85 c0                	test   %eax,%eax
  40150b:	78 0c                	js     401519 <fgets+0x35>
  40150d:	48 89 d7             	mov    %rdx,%rdi
  401510:	e8 3d 23 00 00       	call   403852 <__lockfile>
  401515:	89 44 24 0c          	mov    %eax,0xc(%rsp)
  401519:	45 8d 6e ff          	lea    -0x1(%r14),%r13d
  40151d:	41 ff ce             	dec    %r14d
  401520:	4c 89 e5             	mov    %r12,%rbp
  401523:	7f 6e                	jg     401593 <fgets+0xaf>
  401525:	8b 93 88 00 00 00    	mov    0x88(%rbx),%edx
  40152b:	8d 42 ff             	lea    -0x1(%rdx),%eax
  40152e:	09 d0                	or     %edx,%eax
  401530:	83 7c 24 0c 00       	cmpl   $0x0,0xc(%rsp)
  401535:	89 83 88 00 00 00    	mov    %eax,0x88(%rbx)
  40153b:	74 08                	je     401545 <fgets+0x61>
  40153d:	48 89 df             	mov    %rbx,%rdi
  401540:	e8 b7 23 00 00       	call   4038fc <__unlockfile>
  401545:	45 85 ed             	test   %r13d,%r13d
  401548:	0f 85 e4 00 00 00    	jne    401632 <fgets+0x14e>
  40154e:	41 c6 04 24 00       	movb   $0x0,(%r12)
  401553:	e9 dd 00 00 00       	jmp    401635 <fgets+0x151>
  401558:	48 8b 7b 08          	mov    0x8(%rbx),%rdi
  40155c:	48 8b 53 10          	mov    0x10(%rbx),%rdx
  401560:	48 39 d7             	cmp    %rdx,%rdi
  401563:	75 35                	jne    40159a <fgets+0xb6>
  401565:	48 8b 43 08          	mov    0x8(%rbx),%rax
  401569:	48 3b 43 10          	cmp    0x10(%rbx),%rax
  40156d:	0f 84 85 00 00 00    	je     4015f8 <fgets+0x114>
  401573:	48 8d 50 01          	lea    0x1(%rax),%rdx
  401577:	48 89 53 08          	mov    %rdx,0x8(%rbx)
  40157b:	0f b6 00             	movzbl (%rax),%eax
  40157e:	48 8d 55 01          	lea    0x1(%rbp),%rdx
  401582:	88 45 00             	mov    %al,0x0(%rbp)
  401585:	41 ff cd             	dec    %r13d
  401588:	48 89 d5             	mov    %rdx,%rbp
  40158b:	3c 0a                	cmp    $0xa,%al
  40158d:	0f 84 80 00 00 00    	je     401613 <fgets+0x12f>
  401593:	45 85 ed             	test   %r13d,%r13d
  401596:	75 c0                	jne    401558 <fgets+0x74>
  401598:	eb 79                	jmp    401613 <fgets+0x12f>
  40159a:	48 29 fa             	sub    %rdi,%rdx
  40159d:	be 0a 00 00 00       	mov    $0xa,%esi
  4015a2:	67 e8 d8 1a 00 00    	addr32 call 403080 <memchr>
  4015a8:	49 89 c7             	mov    %rax,%r15
  4015ab:	48 85 c0             	test   %rax,%rax
  4015ae:	74 0c                	je     4015bc <fgets+0xd8>
  4015b0:	49 89 c6             	mov    %rax,%r14
  4015b3:	4c 2b 73 08          	sub    0x8(%rbx),%r14
  4015b7:	49 ff c6             	inc    %r14
  4015ba:	eb 08                	jmp    4015c4 <fgets+0xe0>
  4015bc:	4c 8b 73 10          	mov    0x10(%rbx),%r14
  4015c0:	4c 2b 73 08          	sub    0x8(%rbx),%r14
  4015c4:	49 63 c5             	movslq %r13d,%rax
  4015c7:	48 8b 73 08          	mov    0x8(%rbx),%rsi
  4015cb:	48 89 ef             	mov    %rbp,%rdi
  4015ce:	4c 39 f0             	cmp    %r14,%rax
  4015d1:	4c 0f 46 f0          	cmovbe %rax,%r14
  4015d5:	4c 89 f2             	mov    %r14,%rdx
  4015d8:	4c 01 f5             	add    %r14,%rbp
  4015db:	45 29 f5             	sub    %r14d,%r13d
  4015de:	67 e8 6a 1c 00 00    	addr32 call 40324e <memcpy>
  4015e4:	4c 01 73 08          	add    %r14,0x8(%rbx)
  4015e8:	4d 85 ff             	test   %r15,%r15
  4015eb:	75 26                	jne    401613 <fgets+0x12f>
  4015ed:	45 85 ed             	test   %r13d,%r13d
  4015f0:	0f 85 6f ff ff ff    	jne    401565 <fgets+0x81>
  4015f6:	eb 1b                	jmp    401613 <fgets+0x12f>
  4015f8:	48 89 df             	mov    %rbx,%rdi
  4015fb:	67 e8 18 25 00 00    	addr32 call 403b19 <__uflow>
  401601:	85 c0                	test   %eax,%eax
  401603:	0f 89 75 ff ff ff    	jns    40157e <fgets+0x9a>
  401609:	4c 39 e5             	cmp    %r12,%rbp
  40160c:	74 10                	je     40161e <fgets+0x13a>
  40160e:	f6 03 10             	testb  $0x10,(%rbx)
  401611:	74 0b                	je     40161e <fgets+0x13a>
  401613:	4d 85 e4             	test   %r12,%r12
  401616:	74 09                	je     401621 <fgets+0x13d>
  401618:	c6 45 00 00          	movb   $0x0,0x0(%rbp)
  40161c:	eb 03                	jmp    401621 <fgets+0x13d>
  40161e:	45 31 e4             	xor    %r12d,%r12d
  401621:	83 7c 24 0c 00       	cmpl   $0x0,0xc(%rsp)
  401626:	74 0d                	je     401635 <fgets+0x151>
  401628:	48 89 df             	mov    %rbx,%rdi
  40162b:	e8 cc 22 00 00       	call   4038fc <__unlockfile>
  401630:	eb 03                	jmp    401635 <fgets+0x151>
  401632:	45 31 e4             	xor    %r12d,%r12d
  401635:	48 83 c4 18          	add    $0x18,%rsp
  401639:	4c 89 e0             	mov    %r12,%rax
  40163c:	5b                   	pop    %rbx
  40163d:	5d                   	pop    %rbp
  40163e:	41 5c                	pop    %r12
  401640:	41 5d                	pop    %r13
  401642:	41 5e                	pop    %r14
  401644:	41 5f                	pop    %r15
  401646:	c3                   	ret

0000000000401647 <__ofl_lock>:
  401647:	50                   	push   %rax
  401648:	bf 88 82 40 00       	mov    $0x408288,%edi
  40164d:	e8 f2 1c 00 00       	call   403344 <__lock>
  401652:	b8 90 82 40 00       	mov    $0x408290,%eax
  401657:	5a                   	pop    %rdx
  401658:	c3                   	ret

0000000000401659 <__ofl_unlock>:
  401659:	bf 88 82 40 00       	mov    $0x408288,%edi
  40165e:	e9 91 1d 00 00       	jmp    4033f4 <__unlock>

0000000000401663 <printf>:
  401663:	48 81 ec d8 00 00 00 	sub    $0xd8,%rsp
  40166a:	48 89 74 24 28       	mov    %rsi,0x28(%rsp)
  40166f:	48 89 54 24 30       	mov    %rdx,0x30(%rsp)
  401674:	48 89 4c 24 38       	mov    %rcx,0x38(%rsp)
  401679:	4c 89 44 24 40       	mov    %r8,0x40(%rsp)
  40167e:	4c 89 4c 24 48       	mov    %r9,0x48(%rsp)
  401683:	84 c0                	test   %al,%al
  401685:	74 37                	je     4016be <printf+0x5b>
  401687:	0f 29 44 24 50       	movaps %xmm0,0x50(%rsp)
  40168c:	0f 29 4c 24 60       	movaps %xmm1,0x60(%rsp)
  401691:	0f 29 54 24 70       	movaps %xmm2,0x70(%rsp)
  401696:	0f 29 9c 24 80 00 00 	movaps %xmm3,0x80(%rsp)
  40169d:	00 
  40169e:	0f 29 a4 24 90 00 00 	movaps %xmm4,0x90(%rsp)
  4016a5:	00 
  4016a6:	0f 29 ac 24 a0 00 00 	movaps %xmm5,0xa0(%rsp)
  4016ad:	00 
  4016ae:	0f 29 b4 24 b0 00 00 	movaps %xmm6,0xb0(%rsp)
  4016b5:	00 
  4016b6:	0f 29 bc 24 c0 00 00 	movaps %xmm7,0xc0(%rsp)
  4016bd:	00 
  4016be:	48 8d 84 24 e0 00 00 	lea    0xe0(%rsp),%rax
  4016c5:	00 
  4016c6:	48 8d 54 24 08       	lea    0x8(%rsp),%rdx
  4016cb:	48 89 fe             	mov    %rdi,%rsi
  4016ce:	bf 20 81 40 00       	mov    $0x408120,%edi
  4016d3:	48 89 44 24 10       	mov    %rax,0x10(%rsp)
  4016d8:	48 8d 44 24 20       	lea    0x20(%rsp),%rax
  4016dd:	c7 44 24 08 08 00 00 	movl   $0x8,0x8(%rsp)
  4016e4:	00 
  4016e5:	c7 44 24 0c 30 00 00 	movl   $0x30,0xc(%rsp)
  4016ec:	00 
  4016ed:	48 89 44 24 18       	mov    %rax,0x18(%rsp)
  4016f2:	67 e8 f0 17 00 00    	addr32 call 402ee8 <vfprintf>
  4016f8:	48 81 c4 d8 00 00 00 	add    $0xd8,%rsp
  4016ff:	c3                   	ret

0000000000401700 <puts>:
  401700:	55                   	push   %rbp
  401701:	31 ed                	xor    %ebp,%ebp
  401703:	53                   	push   %rbx
  401704:	48 89 fb             	mov    %rdi,%rbx
  401707:	51                   	push   %rcx
  401708:	8b 05 9e 6a 00 00    	mov    0x6a9e(%rip),%eax        # 4081ac <__stdout_FILE+0x8c>
  40170e:	85 c0                	test   %eax,%eax
  401710:	78 0c                	js     40171e <puts+0x1e>
  401712:	bf 20 81 40 00       	mov    $0x408120,%edi
  401717:	e8 36 21 00 00       	call   403852 <__lockfile>
  40171c:	89 c5                	mov    %eax,%ebp
  40171e:	be 20 81 40 00       	mov    $0x408120,%esi
  401723:	48 89 df             	mov    %rbx,%rdi
  401726:	67 e8 23 24 00 00    	addr32 call 403b4f <fputs>
  40172c:	ba 01 00 00 00       	mov    $0x1,%edx
  401731:	85 c0                	test   %eax,%eax
  401733:	78 40                	js     401775 <puts+0x75>
  401735:	83 3d 74 6a 00 00 0a 	cmpl   $0xa,0x6a74(%rip)        # 4081b0 <__stdout_FILE+0x90>
  40173c:	74 22                	je     401760 <puts+0x60>
  40173e:	48 8b 05 03 6a 00 00 	mov    0x6a03(%rip),%rax        # 408148 <__stdout_FILE+0x28>
  401745:	48 3b 05 f4 69 00 00 	cmp    0x69f4(%rip),%rax        # 408140 <__stdout_FILE+0x20>
  40174c:	74 12                	je     401760 <puts+0x60>
  40174e:	48 8d 50 01          	lea    0x1(%rax),%rdx
  401752:	48 89 15 ef 69 00 00 	mov    %rdx,0x69ef(%rip)        # 408148 <__stdout_FILE+0x28>
  401759:	31 d2                	xor    %edx,%edx
  40175b:	c6 00 0a             	movb   $0xa,(%rax)
  40175e:	eb 15                	jmp    401775 <puts+0x75>
  401760:	be 0a 00 00 00       	mov    $0xa,%esi
  401765:	bf 20 81 40 00       	mov    $0x408120,%edi
  40176a:	67 e8 c8 21 00 00    	addr32 call 403938 <__overflow>
  401770:	c1 e8 1f             	shr    $0x1f,%eax
  401773:	89 c2                	mov    %eax,%edx
  401775:	89 d3                	mov    %edx,%ebx
  401777:	f7 db                	neg    %ebx
  401779:	85 ed                	test   %ebp,%ebp
  40177b:	74 0a                	je     401787 <puts+0x87>
  40177d:	bf 20 81 40 00       	mov    $0x408120,%edi
  401782:	e8 75 21 00 00       	call   4038fc <__unlockfile>
  401787:	89 d8                	mov    %ebx,%eax
  401789:	5a                   	pop    %rdx
  40178a:	5b                   	pop    %rbx
  40178b:	5d                   	pop    %rbp
  40178c:	c3                   	ret

000000000040178d <pop_arg>:
  40178d:	83 ee 09             	sub    $0x9,%esi
  401790:	83 fe 11             	cmp    $0x11,%esi
  401793:	0f 87 58 01 00 00    	ja     4018f1 <pop_arg+0x164>
  401799:	ff 24 f5 40 54 40 00 	jmp    *0x405440(,%rsi,8)
  4017a0:	8b 0a                	mov    (%rdx),%ecx
  4017a2:	83 f9 2f             	cmp    $0x2f,%ecx
  4017a5:	77 0d                	ja     4017b4 <pop_arg+0x27>
  4017a7:	89 c8                	mov    %ecx,%eax
  4017a9:	83 c1 08             	add    $0x8,%ecx
  4017ac:	48 03 42 10          	add    0x10(%rdx),%rax
  4017b0:	89 0a                	mov    %ecx,(%rdx)
  4017b2:	eb 0c                	jmp    4017c0 <pop_arg+0x33>
  4017b4:	48 8b 42 08          	mov    0x8(%rdx),%rax
  4017b8:	48 8d 48 08          	lea    0x8(%rax),%rcx
  4017bc:	48 89 4a 08          	mov    %rcx,0x8(%rdx)
  4017c0:	48 63 00             	movslq (%rax),%rax
  4017c3:	48 89 07             	mov    %rax,(%rdi)
  4017c6:	c3                   	ret
  4017c7:	8b 0a                	mov    (%rdx),%ecx
  4017c9:	83 f9 2f             	cmp    $0x2f,%ecx
  4017cc:	77 0d                	ja     4017db <pop_arg+0x4e>
  4017ce:	89 c8                	mov    %ecx,%eax
  4017d0:	83 c1 08             	add    $0x8,%ecx
  4017d3:	48 03 42 10          	add    0x10(%rdx),%rax
  4017d7:	89 0a                	mov    %ecx,(%rdx)
  4017d9:	eb 0c                	jmp    4017e7 <pop_arg+0x5a>
  4017db:	48 8b 42 08          	mov    0x8(%rdx),%rax
  4017df:	48 8d 48 08          	lea    0x8(%rax),%rcx
  4017e3:	48 89 4a 08          	mov    %rcx,0x8(%rdx)
  4017e7:	8b 00                	mov    (%rax),%eax
  4017e9:	eb d8                	jmp    4017c3 <pop_arg+0x36>
  4017eb:	8b 0a                	mov    (%rdx),%ecx
  4017ed:	83 f9 2f             	cmp    $0x2f,%ecx
  4017f0:	77 0d                	ja     4017ff <pop_arg+0x72>
  4017f2:	89 c8                	mov    %ecx,%eax
  4017f4:	83 c1 08             	add    $0x8,%ecx
  4017f7:	48 03 42 10          	add    0x10(%rdx),%rax
  4017fb:	89 0a                	mov    %ecx,(%rdx)
  4017fd:	eb 0c                	jmp    40180b <pop_arg+0x7e>
  4017ff:	48 8b 42 08          	mov    0x8(%rdx),%rax
  401803:	48 8d 48 08          	lea    0x8(%rax),%rcx
  401807:	48 89 4a 08          	mov    %rcx,0x8(%rdx)
  40180b:	48 0f bf 00          	movswq (%rax),%rax
  40180f:	eb b2                	jmp    4017c3 <pop_arg+0x36>
  401811:	8b 0a                	mov    (%rdx),%ecx
  401813:	83 f9 2f             	cmp    $0x2f,%ecx
  401816:	77 0d                	ja     401825 <pop_arg+0x98>
  401818:	89 c8                	mov    %ecx,%eax
  40181a:	83 c1 08             	add    $0x8,%ecx
  40181d:	48 03 42 10          	add    0x10(%rdx),%rax
  401821:	89 0a                	mov    %ecx,(%rdx)
  401823:	eb 0c                	jmp    401831 <pop_arg+0xa4>
  401825:	48 8b 42 08          	mov    0x8(%rdx),%rax
  401829:	48 8d 48 08          	lea    0x8(%rax),%rcx
  40182d:	48 89 4a 08          	mov    %rcx,0x8(%rdx)
  401831:	0f b7 00             	movzwl (%rax),%eax
  401834:	eb 8d                	jmp    4017c3 <pop_arg+0x36>
  401836:	8b 0a                	mov    (%rdx),%ecx
  401838:	83 f9 2f             	cmp    $0x2f,%ecx
  40183b:	77 0d                	ja     40184a <pop_arg+0xbd>
  40183d:	89 c8                	mov    %ecx,%eax
  40183f:	83 c1 08             	add    $0x8,%ecx
  401842:	48 03 42 10          	add    0x10(%rdx),%rax
  401846:	89 0a                	mov    %ecx,(%rdx)
  401848:	eb 0c                	jmp    401856 <pop_arg+0xc9>
  40184a:	48 8b 42 08          	mov    0x8(%rdx),%rax
  40184e:	48 8d 48 08          	lea    0x8(%rax),%rcx
  401852:	48 89 4a 08          	mov    %rcx,0x8(%rdx)
  401856:	48 0f be 00          	movsbq (%rax),%rax
  40185a:	e9 64 ff ff ff       	jmp    4017c3 <pop_arg+0x36>
  40185f:	8b 0a                	mov    (%rdx),%ecx
  401861:	83 f9 2f             	cmp    $0x2f,%ecx
  401864:	77 0d                	ja     401873 <pop_arg+0xe6>
  401866:	89 c8                	mov    %ecx,%eax
  401868:	83 c1 08             	add    $0x8,%ecx
  40186b:	48 03 42 10          	add    0x10(%rdx),%rax
  40186f:	89 0a                	mov    %ecx,(%rdx)
  401871:	eb 0c                	jmp    40187f <pop_arg+0xf2>
  401873:	48 8b 42 08          	mov    0x8(%rdx),%rax
  401877:	48 8d 48 08          	lea    0x8(%rax),%rcx
  40187b:	48 89 4a 08          	mov    %rcx,0x8(%rdx)
  40187f:	0f b6 00             	movzbl (%rax),%eax
  401882:	e9 3c ff ff ff       	jmp    4017c3 <pop_arg+0x36>
  401887:	8b 0a                	mov    (%rdx),%ecx
  401889:	83 f9 2f             	cmp    $0x2f,%ecx
  40188c:	77 0d                	ja     40189b <pop_arg+0x10e>
  40188e:	89 c8                	mov    %ecx,%eax
  401890:	83 c1 08             	add    $0x8,%ecx
  401893:	48 03 42 10          	add    0x10(%rdx),%rax
  401897:	89 0a                	mov    %ecx,(%rdx)
  401899:	eb 0c                	jmp    4018a7 <pop_arg+0x11a>
  40189b:	48 8b 42 08          	mov    0x8(%rdx),%rax
  40189f:	48 8d 48 08          	lea    0x8(%rax),%rcx
  4018a3:	48 89 4a 08          	mov    %rcx,0x8(%rdx)
  4018a7:	48 8b 00             	mov    (%rax),%rax
  4018aa:	e9 14 ff ff ff       	jmp    4017c3 <pop_arg+0x36>
  4018af:	8b 4a 04             	mov    0x4(%rdx),%ecx
  4018b2:	81 f9 af 00 00 00    	cmp    $0xaf,%ecx
  4018b8:	77 0e                	ja     4018c8 <pop_arg+0x13b>
  4018ba:	89 c8                	mov    %ecx,%eax
  4018bc:	83 c1 10             	add    $0x10,%ecx
  4018bf:	48 03 42 10          	add    0x10(%rdx),%rax
  4018c3:	89 4a 04             	mov    %ecx,0x4(%rdx)
  4018c6:	eb 0c                	jmp    4018d4 <pop_arg+0x147>
  4018c8:	48 8b 42 08          	mov    0x8(%rdx),%rax
  4018cc:	48 8d 48 08          	lea    0x8(%rax),%rcx
  4018d0:	48 89 4a 08          	mov    %rcx,0x8(%rdx)
  4018d4:	dd 00                	fldl   (%rax)
  4018d6:	db 3f                	fstpt  (%rdi)
  4018d8:	c3                   	ret
  4018d9:	48 8b 42 08          	mov    0x8(%rdx),%rax
  4018dd:	48 83 c0 0f          	add    $0xf,%rax
  4018e1:	48 83 e0 f0          	and    $0xfffffffffffffff0,%rax
  4018e5:	48 8d 48 10          	lea    0x10(%rax),%rcx
  4018e9:	48 89 4a 08          	mov    %rcx,0x8(%rdx)
  4018ed:	db 28                	fldt   (%rax)
  4018ef:	db 3f                	fstpt  (%rdi)
  4018f1:	c3                   	ret

00000000004018f2 <fmt_u>:
  4018f2:	48 89 f8             	mov    %rdi,%rax
  4018f5:	b9 0a 00 00 00       	mov    $0xa,%ecx
  4018fa:	48 85 c0             	test   %rax,%rax
  4018fd:	74 0f                	je     40190e <fmt_u+0x1c>
  4018ff:	31 d2                	xor    %edx,%edx
  401901:	48 ff ce             	dec    %rsi
  401904:	48 f7 f1             	div    %rcx
  401907:	83 c2 30             	add    $0x30,%edx
  40190a:	88 16                	mov    %dl,(%rsi)
  40190c:	eb ec                	jmp    4018fa <fmt_u+0x8>
  40190e:	48 89 f0             	mov    %rsi,%rax
  401911:	c3                   	ret

0000000000401912 <getint>:
  401912:	31 c0                	xor    %eax,%eax
  401914:	41 83 c8 ff          	or     $0xffffffff,%r8d
  401918:	48 8b 0f             	mov    (%rdi),%rcx
  40191b:	0f be 11             	movsbl (%rcx),%edx
  40191e:	83 ea 30             	sub    $0x30,%edx
  401921:	83 fa 09             	cmp    $0x9,%edx
  401924:	77 26                	ja     40194c <getint+0x3a>
  401926:	3d cc cc cc 0c       	cmp    $0xccccccc,%eax
  40192b:	77 14                	ja     401941 <getint+0x2f>
  40192d:	6b f0 f6             	imul   $0xfffffff6,%eax,%esi
  401930:	81 c6 ff ff ff 7f    	add    $0x7fffffff,%esi
  401936:	39 f2                	cmp    %esi,%edx
  401938:	7f 07                	jg     401941 <getint+0x2f>
  40193a:	6b c0 0a             	imul   $0xa,%eax,%eax
  40193d:	01 d0                	add    %edx,%eax
  40193f:	eb 03                	jmp    401944 <getint+0x32>
  401941:	44 89 c0             	mov    %r8d,%eax
  401944:	48 ff c1             	inc    %rcx
  401947:	48 89 0f             	mov    %rcx,(%rdi)
  40194a:	eb cc                	jmp    401918 <getint+0x6>
  40194c:	c3                   	ret

000000000040194d <out>:
  40194d:	48 89 f0             	mov    %rsi,%rax
  401950:	48 89 d6             	mov    %rdx,%rsi
  401953:	f6 07 20             	testb  $0x20,(%rdi)
  401956:	75 0b                	jne    401963 <out+0x16>
  401958:	48 89 fa             	mov    %rdi,%rdx
  40195b:	48 89 c7             	mov    %rax,%rdi
  40195e:	e9 23 22 00 00       	jmp    403b86 <__fwritex>
  401963:	c3                   	ret

0000000000401964 <pad>:
  401964:	41 54                	push   %r12
  401966:	55                   	push   %rbp
  401967:	53                   	push   %rbx
  401968:	48 81 ec 10 01 00 00 	sub    $0x110,%rsp
  40196f:	64 48 8b 04 25 28 00 	mov    %fs:0x28,%rax
  401976:	00 00 
  401978:	48 89 84 24 08 01 00 	mov    %rax,0x108(%rsp)
  40197f:	00 
  401980:	31 c0                	xor    %eax,%eax
  401982:	41 81 e0 00 20 01 00 	and    $0x12000,%r8d
  401989:	75 6f                	jne    4019fa <pad+0x96>
  40198b:	39 d1                	cmp    %edx,%ecx
  40198d:	7d 6b                	jge    4019fa <pad+0x96>
  40198f:	89 d3                	mov    %edx,%ebx
  401991:	ba 00 01 00 00       	mov    $0x100,%edx
  401996:	48 89 fd             	mov    %rdi,%rbp
  401999:	40 0f be f6          	movsbl %sil,%esi
  40199d:	29 cb                	sub    %ecx,%ebx
  40199f:	48 8d 7c 24 08       	lea    0x8(%rsp),%rdi
  4019a4:	81 fb 00 01 00 00    	cmp    $0x100,%ebx
  4019aa:	41 89 dc             	mov    %ebx,%r12d
  4019ad:	0f 4e d3             	cmovle %ebx,%edx
  4019b0:	48 63 d2             	movslq %edx,%rdx
  4019b3:	67 e8 c7 18 00 00    	addr32 call 403280 <memset>
  4019b9:	41 81 fc ff 00 00 00 	cmp    $0xff,%r12d
  4019c0:	7e 1b                	jle    4019dd <pad+0x79>
  4019c2:	ba 00 01 00 00       	mov    $0x100,%edx
  4019c7:	48 8d 74 24 08       	lea    0x8(%rsp),%rsi
  4019cc:	48 89 ef             	mov    %rbp,%rdi
  4019cf:	41 81 ec 00 01 00 00 	sub    $0x100,%r12d
  4019d6:	e8 72 ff ff ff       	call   40194d <out>
  4019db:	eb dc                	jmp    4019b9 <pad+0x55>
  4019dd:	89 da                	mov    %ebx,%edx
  4019df:	48 8d 74 24 08       	lea    0x8(%rsp),%rsi
  4019e4:	48 89 ef             	mov    %rbp,%rdi
  4019e7:	c1 ea 08             	shr    $0x8,%edx
  4019ea:	69 d2 00 ff ff ff    	imul   $0xffffff00,%edx,%edx
  4019f0:	01 da                	add    %ebx,%edx
  4019f2:	48 63 d2             	movslq %edx,%rdx
  4019f5:	e8 53 ff ff ff       	call   40194d <out>
  4019fa:	48 8b 84 24 08 01 00 	mov    0x108(%rsp),%rax
  401a01:	00 
  401a02:	64 48 33 04 25 28 00 	xor    %fs:0x28,%rax
  401a09:	00 00 
  401a0b:	74 06                	je     401a13 <pad+0xaf>
  401a0d:	67 e8 c6 1c 00 00    	addr32 call 4036d9 <__stack_chk_fail>
  401a13:	48 81 c4 10 01 00 00 	add    $0x110,%rsp
  401a1a:	5b                   	pop    %rbx
  401a1b:	5d                   	pop    %rbp
  401a1c:	41 5c                	pop    %r12
  401a1e:	c3                   	ret

0000000000401a1f <fmt_fp>:
  401a1f:	41 57                	push   %r15
  401a21:	41 56                	push   %r14
  401a23:	41 55                	push   %r13
  401a25:	45 89 c5             	mov    %r8d,%r13d
  401a28:	41 54                	push   %r12
  401a2a:	55                   	push   %rbp
  401a2b:	53                   	push   %rbx
  401a2c:	89 d3                	mov    %edx,%ebx
  401a2e:	48 81 ec 58 1d 00 00 	sub    $0x1d58,%rsp
  401a35:	48 89 7c 24 08       	mov    %rdi,0x8(%rsp)
  401a3a:	89 74 24 24          	mov    %esi,0x24(%rsp)
  401a3e:	89 4c 24 58          	mov    %ecx,0x58(%rsp)
  401a42:	64 48 8b 04 25 28 00 	mov    %fs:0x28,%rax
  401a49:	00 00 
  401a4b:	48 89 84 24 48 1d 00 	mov    %rax,0x1d48(%rsp)
  401a52:	00 
  401a53:	31 c0                	xor    %eax,%eax
  401a55:	c7 44 24 70 00 00 00 	movl   $0x0,0x70(%rsp)
  401a5c:	00 
  401a5d:	ff b4 24 98 1d 00 00 	push   0x1d98(%rsp)
  401a64:	ff b4 24 98 1d 00 00 	push   0x1d98(%rsp)
  401a6b:	67 e8 3e 1d 00 00    	addr32 call 4037af <__signbitl>
  401a71:	5f                   	pop    %rdi
  401a72:	41 58                	pop    %r8
  401a74:	85 c0                	test   %eax,%eax
  401a76:	74 21                	je     401a99 <fmt_fp+0x7a>
  401a78:	db ac 24 90 1d 00 00 	fldt   0x1d90(%rsp)
  401a7f:	41 be 01 00 00 00    	mov    $0x1,%r14d
  401a85:	48 c7 44 24 40 d0 54 	movq   $0x4054d0,0x40(%rsp)
  401a8c:	40 00 
  401a8e:	d9 e0                	fchs
  401a90:	db bc 24 90 1d 00 00 	fstpt  0x1d90(%rsp)
  401a97:	eb 35                	jmp    401ace <fmt_fp+0xaf>
  401a99:	0f ba 64 24 58 0b    	btl    $0xb,0x58(%rsp)
  401a9f:	72 1e                	jb     401abf <fmt_fp+0xa0>
  401aa1:	44 8b 74 24 58       	mov    0x58(%rsp),%r14d
  401aa6:	ba d6 54 40 00       	mov    $0x4054d6,%edx
  401aab:	b8 d1 54 40 00       	mov    $0x4054d1,%eax
  401ab0:	41 83 e6 01          	and    $0x1,%r14d
  401ab4:	48 0f 45 c2          	cmovne %rdx,%rax
  401ab8:	48 89 44 24 40       	mov    %rax,0x40(%rsp)
  401abd:	eb 0f                	jmp    401ace <fmt_fp+0xaf>
  401abf:	48 c7 44 24 40 d3 54 	movq   $0x4054d3,0x40(%rsp)
  401ac6:	40 00 
  401ac8:	41 be 01 00 00 00    	mov    $0x1,%r14d
  401ace:	ff b4 24 98 1d 00 00 	push   0x1d98(%rsp)
  401ad5:	ff b4 24 98 1d 00 00 	push   0x1d98(%rsp)
  401adc:	67 e8 89 1c 00 00    	addr32 call 40376b <__fpclassifyl>
  401ae2:	59                   	pop    %rcx
  401ae3:	5e                   	pop    %rsi
  401ae4:	ff c8                	dec    %eax
  401ae6:	7f 75                	jg     401b5d <fmt_fp+0x13e>
  401ae8:	db ac 24 90 1d 00 00 	fldt   0x1d90(%rsp)
  401aef:	44 89 e8             	mov    %r13d,%eax
  401af2:	bb e3 54 40 00       	mov    $0x4054e3,%ebx
  401af7:	ba e7 54 40 00       	mov    $0x4054e7,%edx
  401afc:	83 e0 20             	and    $0x20,%eax
  401aff:	48 0f 44 da          	cmove  %rdx,%rbx
  401b03:	df e8                	fucomip %st(0),%st
  401b05:	7a 02                	jp     401b09 <fmt_fp+0xea>
  401b07:	74 10                	je     401b19 <fmt_fp+0xfa>
  401b09:	85 c0                	test   %eax,%eax
  401b0b:	bb eb 54 40 00       	mov    $0x4054eb,%ebx
  401b10:	b8 ef 54 40 00       	mov    $0x4054ef,%eax
  401b15:	48 0f 44 d8          	cmove  %rax,%rbx
  401b19:	44 8b 44 24 58       	mov    0x58(%rsp),%r8d
  401b1e:	8b 54 24 24          	mov    0x24(%rsp),%edx
  401b22:	41 8d 6e 03          	lea    0x3(%r14),%ebp
  401b26:	be 20 00 00 00       	mov    $0x20,%esi
  401b2b:	48 8b 7c 24 08       	mov    0x8(%rsp),%rdi
  401b30:	89 e9                	mov    %ebp,%ecx
  401b32:	41 81 e0 ff ff fe ff 	and    $0xfffeffff,%r8d
  401b39:	e8 26 fe ff ff       	call   401964 <pad>
  401b3e:	48 8b 74 24 40       	mov    0x40(%rsp),%rsi
  401b43:	48 8b 7c 24 08       	mov    0x8(%rsp),%rdi
  401b48:	49 63 d6             	movslq %r14d,%rdx
  401b4b:	e8 fd fd ff ff       	call   40194d <out>
  401b50:	ba 03 00 00 00       	mov    $0x3,%edx
  401b55:	48 89 de             	mov    %rbx,%rsi
  401b58:	e9 65 02 00 00       	jmp    401dc2 <fmt_fp+0x3a3>
  401b5d:	ff b4 24 98 1d 00 00 	push   0x1d98(%rsp)
  401b64:	ff b4 24 98 1d 00 00 	push   0x1d98(%rsp)
  401b6b:	48 8d bc 24 80 00 00 	lea    0x80(%rsp),%rdi
  401b72:	00 
  401b73:	67 e8 42 1c 00 00    	addr32 call 4037bb <frexpl>
  401b79:	d8 c0                	fadd   %st(0),%st
  401b7b:	db 7c 24 20          	fstpt  0x20(%rsp)
  401b7f:	58                   	pop    %rax
  401b80:	5a                   	pop    %rdx
  401b81:	d9 ee                	fldz
  401b83:	db 6c 24 10          	fldt   0x10(%rsp)
  401b87:	df e9                	fucomip %st(1),%st
  401b89:	db 7c 24 30          	fstpt  0x30(%rsp)
  401b8d:	7a 02                	jp     401b91 <fmt_fp+0x172>
  401b8f:	74 04                	je     401b95 <fmt_fp+0x176>
  401b91:	ff 4c 24 70          	decl   0x70(%rsp)
  401b95:	45 89 ea             	mov    %r13d,%r10d
  401b98:	41 83 ca 20          	or     $0x20,%r10d
  401b9c:	41 83 fa 61          	cmp    $0x61,%r10d
  401ba0:	0f 85 57 02 00 00    	jne    401dfd <fmt_fp+0x3de>
  401ba6:	41 f6 c5 20          	test   $0x20,%r13b
  401baa:	74 06                	je     401bb2 <fmt_fp+0x193>
  401bac:	48 83 44 24 40 09    	addq   $0x9,0x40(%rsp)
  401bb2:	41 83 c6 02          	add    $0x2,%r14d
  401bb6:	83 fb 0e             	cmp    $0xe,%ebx
  401bb9:	77 42                	ja     401bfd <fmt_fp+0x1de>
  401bbb:	d9 05 2f 3d 00 00    	flds   0x3d2f(%rip)        # 4058f0 <states+0x1d0>
  401bc1:	b8 0f 00 00 00       	mov    $0xf,%eax
  401bc6:	29 d8                	sub    %ebx,%eax
  401bc8:	ff c8                	dec    %eax
  401bca:	83 f8 ff             	cmp    $0xffffffff,%eax
  401bcd:	74 0a                	je     401bd9 <fmt_fp+0x1ba>
  401bcf:	db 2d 4b 3d 00 00    	fldt   0x3d4b(%rip)        # 405920 <states+0x200>
  401bd5:	de c9                	fmulp  %st,%st(1)
  401bd7:	eb ef                	jmp    401bc8 <fmt_fp+0x1a9>
  401bd9:	48 8b 44 24 40       	mov    0x40(%rsp),%rax
  401bde:	db 6c 24 10          	fldt   0x10(%rsp)
  401be2:	80 38 2d             	cmpb   $0x2d,(%rax)
  401be5:	75 0e                	jne    401bf5 <fmt_fp+0x1d6>
  401be7:	d9 e0                	fchs
  401be9:	d8 e1                	fsub   %st(1),%st
  401beb:	de c1                	faddp  %st,%st(1)
  401bed:	d9 e0                	fchs
  401bef:	db 7c 24 10          	fstpt  0x10(%rsp)
  401bf3:	eb 08                	jmp    401bfd <fmt_fp+0x1de>
  401bf5:	d8 c1                	fadd   %st(1),%st
  401bf7:	de e1                	fsubp  %st,%st(1)
  401bf9:	db 7c 24 10          	fstpt  0x10(%rsp)
  401bfd:	8b 44 24 70          	mov    0x70(%rsp),%eax
  401c01:	8b 7c 24 70          	mov    0x70(%rsp),%edi
  401c05:	48 8d ac 24 2f 1d 00 	lea    0x1d2f(%rsp),%rbp
  401c0c:	00 
  401c0d:	48 89 ee             	mov    %rbp,%rsi
  401c10:	c1 f8 1f             	sar    $0x1f,%eax
  401c13:	31 c7                	xor    %eax,%edi
  401c15:	29 c7                	sub    %eax,%edi
  401c17:	48 63 ff             	movslq %edi,%rdi
  401c1a:	e8 d3 fc ff ff       	call   4018f2 <fmt_u>
  401c1f:	48 39 e8             	cmp    %rbp,%rax
  401c22:	75 10                	jne    401c34 <fmt_fp+0x215>
  401c24:	c6 84 24 2e 1d 00 00 	movb   $0x30,0x1d2e(%rsp)
  401c2b:	30 
  401c2c:	48 8d 84 24 2e 1d 00 	lea    0x1d2e(%rsp),%rax
  401c33:	00 
  401c34:	8b 54 24 70          	mov    0x70(%rsp),%edx
  401c38:	44 8b 44 24 58       	mov    0x58(%rsp),%r8d
  401c3d:	4c 8d 78 fe          	lea    -0x2(%rax),%r15
  401c41:	44 89 ee             	mov    %r13d,%esi
  401c44:	83 e6 20             	and    $0x20,%esi
  401c47:	40 b7 01             	mov    $0x1,%dil
  401c4a:	c1 fa 1f             	sar    $0x1f,%edx
  401c4d:	41 83 e0 08          	and    $0x8,%r8d
  401c51:	83 e2 02             	and    $0x2,%edx
  401c54:	83 c2 2b             	add    $0x2b,%edx
  401c57:	88 50 ff             	mov    %dl,-0x1(%rax)
  401c5a:	41 8d 55 0f          	lea    0xf(%r13),%edx
  401c5e:	88 50 fe             	mov    %dl,-0x2(%rax)
  401c61:	48 8d 84 24 2f 1d 00 	lea    0x1d2f(%rsp),%rax
  401c68:	00 
  401c69:	d9 7c 24 6e          	fnstcw 0x6e(%rsp)
  401c6d:	48 89 c1             	mov    %rax,%rcx
  401c70:	66 8b 54 24 6e       	mov    0x6e(%rsp),%dx
  401c75:	80 ce 0c             	or     $0xc,%dh
  401c78:	66 89 54 24 6c       	mov    %dx,0x6c(%rsp)
  401c7d:	db 6c 24 10          	fldt   0x10(%rsp)
  401c81:	4c 8d 68 01          	lea    0x1(%rax),%r13
  401c85:	d9 c0                	fld    %st(0)
  401c87:	d9 6c 24 6c          	fldcw  0x6c(%rsp)
  401c8b:	db 5c 24 28          	fistpl 0x28(%rsp)
  401c8f:	d9 6c 24 6e          	fldcw  0x6e(%rsp)
  401c93:	48 63 54 24 28       	movslq 0x28(%rsp),%rdx
  401c98:	44 8a 9a 10 57 40 00 	mov    0x405710(%rdx),%r11b
  401c9f:	da 64 24 28          	fisubl 0x28(%rsp)
  401ca3:	41 09 f3             	or     %esi,%r11d
  401ca6:	db 2d 74 3c 00 00    	fldt   0x3c74(%rip)        # 405920 <states+0x200>
  401cac:	44 88 18             	mov    %r11b,(%rax)
  401caf:	de c9                	fmulp  %st,%st(1)
  401cb1:	d9 c0                	fld    %st(0)
  401cb3:	db 7c 24 10          	fstpt  0x10(%rsp)
  401cb7:	48 39 c8             	cmp    %rcx,%rax
  401cba:	75 25                	jne    401ce1 <fmt_fp+0x2c2>
  401cbc:	db 6c 24 30          	fldt   0x30(%rsp)
  401cc0:	df e9                	fucomip %st(1),%st
  401cc2:	dd d8                	fstp   %st(0)
  401cc4:	0f 9a c2             	setp   %dl
  401cc7:	0f 45 d7             	cmovne %edi,%edx
  401cca:	84 d2                	test   %dl,%dl
  401ccc:	75 09                	jne    401cd7 <fmt_fp+0x2b8>
  401cce:	85 db                	test   %ebx,%ebx
  401cd0:	7f 05                	jg     401cd7 <fmt_fp+0x2b8>
  401cd2:	45 85 c0             	test   %r8d,%r8d
  401cd5:	74 21                	je     401cf8 <fmt_fp+0x2d9>
  401cd7:	c6 40 01 2e          	movb   $0x2e,0x1(%rax)
  401cdb:	4c 8d 68 02          	lea    0x2(%rax),%r13
  401cdf:	eb 02                	jmp    401ce3 <fmt_fp+0x2c4>
  401ce1:	dd d8                	fstp   %st(0)
  401ce3:	db 6c 24 30          	fldt   0x30(%rsp)
  401ce7:	db 6c 24 10          	fldt   0x10(%rsp)
  401ceb:	df e9                	fucomip %st(1),%st
  401ced:	dd d8                	fstp   %st(0)
  401cef:	7b 05                	jnp    401cf6 <fmt_fp+0x2d7>
  401cf1:	4c 89 e8             	mov    %r13,%rax
  401cf4:	eb 87                	jmp    401c7d <fmt_fp+0x25e>
  401cf6:	75 f9                	jne    401cf1 <fmt_fp+0x2d2>
  401cf8:	4c 8d a4 24 2f 1d 00 	lea    0x1d2f(%rsp),%r12
  401cff:	00 
  401d00:	b8 fd ff ff 7f       	mov    $0x7ffffffd,%eax
  401d05:	49 63 f6             	movslq %r14d,%rsi
  401d08:	48 63 d3             	movslq %ebx,%rdx
  401d0b:	4d 29 fc             	sub    %r15,%r12
  401d0e:	4c 29 e0             	sub    %r12,%rax
  401d11:	48 29 f0             	sub    %rsi,%rax
  401d14:	48 39 c2             	cmp    %rax,%rdx
  401d17:	7e 08                	jle    401d21 <fmt_fp+0x302>
  401d19:	83 c8 ff             	or     $0xffffffff,%eax
  401d1c:	e9 45 08 00 00       	jmp    402566 <fmt_fp+0xb47>
  401d21:	49 29 cd             	sub    %rcx,%r13
  401d24:	85 db                	test   %ebx,%ebx
  401d26:	74 0e                	je     401d36 <fmt_fp+0x317>
  401d28:	49 8d 45 ff          	lea    -0x1(%r13),%rax
  401d2c:	42 8d 5c 23 02       	lea    0x2(%rbx,%r12,1),%ebx
  401d31:	48 39 c2             	cmp    %rax,%rdx
  401d34:	7d 04                	jge    401d3a <fmt_fp+0x31b>
  401d36:	43 8d 1c 2c          	lea    (%r12,%r13,1),%ebx
  401d3a:	42 8d 2c 33          	lea    (%rbx,%r14,1),%ebp
  401d3e:	44 8b 44 24 58       	mov    0x58(%rsp),%r8d
  401d43:	8b 54 24 24          	mov    0x24(%rsp),%edx
  401d47:	be 20 00 00 00       	mov    $0x20,%esi
  401d4c:	48 8b 7c 24 08       	mov    0x8(%rsp),%rdi
  401d51:	89 e9                	mov    %ebp,%ecx
  401d53:	e8 0c fc ff ff       	call   401964 <pad>
  401d58:	48 8b 74 24 40       	mov    0x40(%rsp),%rsi
  401d5d:	48 8b 7c 24 08       	mov    0x8(%rsp),%rdi
  401d62:	49 63 d6             	movslq %r14d,%rdx
  401d65:	e8 e3 fb ff ff       	call   40194d <out>
  401d6a:	44 8b 44 24 58       	mov    0x58(%rsp),%r8d
  401d6f:	8b 54 24 24          	mov    0x24(%rsp),%edx
  401d73:	89 e9                	mov    %ebp,%ecx
  401d75:	48 8b 7c 24 08       	mov    0x8(%rsp),%rdi
  401d7a:	be 30 00 00 00       	mov    $0x30,%esi
  401d7f:	41 81 f0 00 00 01 00 	xor    $0x10000,%r8d
  401d86:	e8 d9 fb ff ff       	call   401964 <pad>
  401d8b:	48 8b 7c 24 08       	mov    0x8(%rsp),%rdi
  401d90:	4c 89 ea             	mov    %r13,%rdx
  401d93:	48 8d b4 24 2f 1d 00 	lea    0x1d2f(%rsp),%rsi
  401d9a:	00 
  401d9b:	45 01 e5             	add    %r12d,%r13d
  401d9e:	e8 aa fb ff ff       	call   40194d <out>
  401da3:	44 29 eb             	sub    %r13d,%ebx
  401da6:	48 8b 7c 24 08       	mov    0x8(%rsp),%rdi
  401dab:	45 31 c0             	xor    %r8d,%r8d
  401dae:	89 da                	mov    %ebx,%edx
  401db0:	be 30 00 00 00       	mov    $0x30,%esi
  401db5:	31 c9                	xor    %ecx,%ecx
  401db7:	e8 a8 fb ff ff       	call   401964 <pad>
  401dbc:	4c 89 e2             	mov    %r12,%rdx
  401dbf:	4c 89 fe             	mov    %r15,%rsi
  401dc2:	48 8b 7c 24 08       	mov    0x8(%rsp),%rdi
  401dc7:	e8 81 fb ff ff       	call   40194d <out>
  401dcc:	44 8b 44 24 58       	mov    0x58(%rsp),%r8d
  401dd1:	8b 54 24 24          	mov    0x24(%rsp),%edx
  401dd5:	89 e9                	mov    %ebp,%ecx
  401dd7:	48 8b 7c 24 08       	mov    0x8(%rsp),%rdi
  401ddc:	be 20 00 00 00       	mov    $0x20,%esi
  401de1:	41 81 f0 00 20 00 00 	xor    $0x2000,%r8d
  401de8:	e8 77 fb ff ff       	call   401964 <pad>
  401ded:	8b 44 24 24          	mov    0x24(%rsp),%eax
  401df1:	3b 6c 24 24          	cmp    0x24(%rsp),%ebp
  401df5:	0f 4d c5             	cmovge %ebp,%eax
  401df8:	e9 69 07 00 00       	jmp    402566 <fmt_fp+0xb47>
  401dfd:	85 db                	test   %ebx,%ebx
  401dff:	79 05                	jns    401e06 <fmt_fp+0x3e7>
  401e01:	bb 06 00 00 00       	mov    $0x6,%ebx
  401e06:	db 6c 24 30          	fldt   0x30(%rsp)
  401e0a:	db 6c 24 10          	fldt   0x10(%rsp)
  401e0e:	df e9                	fucomip %st(1),%st
  401e10:	dd d8                	fstp   %st(0)
  401e12:	7a 02                	jp     401e16 <fmt_fp+0x3f7>
  401e14:	74 13                	je     401e29 <fmt_fp+0x40a>
  401e16:	db 6c 24 10          	fldt   0x10(%rsp)
  401e1a:	d8 0d e0 3a 00 00    	fmuls  0x3ae0(%rip)        # 405900 <states+0x1e0>
  401e20:	83 6c 24 70 1c       	subl   $0x1c,0x70(%rsp)
  401e25:	db 7c 24 10          	fstpt  0x10(%rsp)
  401e29:	8b 74 24 70          	mov    0x70(%rsp),%esi
  401e2d:	48 8d 44 24 74       	lea    0x74(%rsp),%rax
  401e32:	85 f6                	test   %esi,%esi
  401e34:	78 08                	js     401e3e <fmt_fp+0x41f>
  401e36:	48 8d 84 24 1c 1c 00 	lea    0x1c1c(%rsp),%rax
  401e3d:	00 
  401e3e:	d9 7c 24 6e          	fnstcw 0x6e(%rsp)
  401e42:	48 89 44 24 28       	mov    %rax,0x28(%rsp)
  401e47:	48 8b 6c 24 28       	mov    0x28(%rsp),%rbp
  401e4c:	66 8b 44 24 6e       	mov    0x6e(%rsp),%ax
  401e51:	80 cc 0c             	or     $0xc,%ah
  401e54:	66 89 44 24 6c       	mov    %ax,0x6c(%rsp)
  401e59:	db 6c 24 10          	fldt   0x10(%rsp)
  401e5d:	48 83 c5 04          	add    $0x4,%rbp
  401e61:	d9 6c 24 6c          	fldcw  0x6c(%rsp)
  401e65:	df 7c 24 60          	fistpll 0x60(%rsp)
  401e69:	d9 6c 24 6e          	fldcw  0x6e(%rsp)
  401e6d:	48 8b 44 24 60       	mov    0x60(%rsp),%rax
  401e72:	89 45 fc             	mov    %eax,-0x4(%rbp)
  401e75:	89 c0                	mov    %eax,%eax
  401e77:	48 89 44 24 50       	mov    %rax,0x50(%rsp)
  401e7c:	df 6c 24 50          	fildll 0x50(%rsp)
  401e80:	db 6c 24 10          	fldt   0x10(%rsp)
  401e84:	de e1                	fsubp  %st,%st(1)
  401e86:	d8 0d 78 3a 00 00    	fmuls  0x3a78(%rip)        # 405904 <states+0x1e4>
  401e8c:	d9 c0                	fld    %st(0)
  401e8e:	db 7c 24 10          	fstpt  0x10(%rsp)
  401e92:	db 6c 24 30          	fldt   0x30(%rsp)
  401e96:	d9 c9                	fxch   %st(1)
  401e98:	df e9                	fucomip %st(1),%st
  401e9a:	dd d8                	fstp   %st(0)
  401e9c:	7a bb                	jp     401e59 <fmt_fp+0x43a>
  401e9e:	75 b9                	jne    401e59 <fmt_fp+0x43a>
  401ea0:	4c 8b 7c 24 28       	mov    0x28(%rsp),%r15
  401ea5:	31 c0                	xor    %eax,%eax
  401ea7:	41 b9 1d 00 00 00    	mov    $0x1d,%r9d
  401ead:	41 b8 00 ca 9a 3b    	mov    $0x3b9aca00,%r8d
  401eb3:	85 f6                	test   %esi,%esi
  401eb5:	7e 4f                	jle    401f06 <fmt_fp+0x4e7>
  401eb7:	83 fe 1d             	cmp    $0x1d,%esi
  401eba:	44 89 c9             	mov    %r9d,%ecx
  401ebd:	48 8d 7d fc          	lea    -0x4(%rbp),%rdi
  401ec1:	0f 4e ce             	cmovle %esi,%ecx
  401ec4:	31 c0                	xor    %eax,%eax
  401ec6:	49 39 ff             	cmp    %rdi,%r15
  401ec9:	77 18                	ja     401ee3 <fmt_fp+0x4c4>
  401ecb:	8b 17                	mov    (%rdi),%edx
  401ecd:	89 c0                	mov    %eax,%eax
  401ecf:	48 83 ef 04          	sub    $0x4,%rdi
  401ed3:	48 d3 e2             	shl    %cl,%rdx
  401ed6:	48 01 d0             	add    %rdx,%rax
  401ed9:	31 d2                	xor    %edx,%edx
  401edb:	49 f7 f0             	div    %r8
  401ede:	89 57 04             	mov    %edx,0x4(%rdi)
  401ee1:	eb e3                	jmp    401ec6 <fmt_fp+0x4a7>
  401ee3:	85 c0                	test   %eax,%eax
  401ee5:	74 14                	je     401efb <fmt_fp+0x4dc>
  401ee7:	41 89 47 fc          	mov    %eax,-0x4(%r15)
  401eeb:	49 83 ef 04          	sub    $0x4,%r15
  401eef:	eb 0a                	jmp    401efb <fmt_fp+0x4dc>
  401ef1:	83 7d fc 00          	cmpl   $0x0,-0x4(%rbp)
  401ef5:	75 09                	jne    401f00 <fmt_fp+0x4e1>
  401ef7:	48 83 ed 04          	sub    $0x4,%rbp
  401efb:	4c 39 fd             	cmp    %r15,%rbp
  401efe:	77 f1                	ja     401ef1 <fmt_fp+0x4d2>
  401f00:	29 ce                	sub    %ecx,%esi
  401f02:	b0 01                	mov    $0x1,%al
  401f04:	eb ad                	jmp    401eb3 <fmt_fp+0x494>
  401f06:	84 c0                	test   %al,%al
  401f08:	74 04                	je     401f0e <fmt_fp+0x4ef>
  401f0a:	89 74 24 70          	mov    %esi,0x70(%rsp)
  401f0e:	8d 43 1d             	lea    0x1d(%rbx),%eax
  401f11:	b9 09 00 00 00       	mov    $0x9,%ecx
  401f16:	31 d2                	xor    %edx,%edx
  401f18:	f7 f1                	div    %ecx
  401f1a:	31 d2                	xor    %edx,%edx
  401f1c:	44 8d 48 01          	lea    0x1(%rax),%r9d
  401f20:	8b 44 24 70          	mov    0x70(%rsp),%eax
  401f24:	4e 8d 1c 8d 00 00 00 	lea    0x0(,%r9,4),%r11
  401f2b:	00 
  401f2c:	85 c0                	test   %eax,%eax
  401f2e:	0f 89 8b 00 00 00    	jns    401fbf <fmt_fp+0x5a0>
  401f34:	b9 09 00 00 00       	mov    $0x9,%ecx
  401f39:	83 f8 f7             	cmp    $0xfffffff7,%eax
  401f3c:	7c 04                	jl     401f42 <fmt_fp+0x523>
  401f3e:	89 c1                	mov    %eax,%ecx
  401f40:	f7 d9                	neg    %ecx
  401f42:	bf 00 ca 9a 3b       	mov    $0x3b9aca00,%edi
  401f47:	41 b8 01 00 00 00    	mov    $0x1,%r8d
  401f4d:	4c 89 fa             	mov    %r15,%rdx
  401f50:	31 f6                	xor    %esi,%esi
  401f52:	d3 ff                	sar    %cl,%edi
  401f54:	41 d3 e0             	shl    %cl,%r8d
  401f57:	89 7c 24 10          	mov    %edi,0x10(%rsp)
  401f5b:	41 ff c8             	dec    %r8d
  401f5e:	48 39 ea             	cmp    %rbp,%rdx
  401f61:	73 1e                	jae    401f81 <fmt_fp+0x562>
  401f63:	8b 3a                	mov    (%rdx),%edi
  401f65:	48 83 c2 04          	add    $0x4,%rdx
  401f69:	41 89 fc             	mov    %edi,%r12d
  401f6c:	41 d3 ec             	shr    %cl,%r12d
  401f6f:	44 01 e6             	add    %r12d,%esi
  401f72:	89 72 fc             	mov    %esi,-0x4(%rdx)
  401f75:	89 fe                	mov    %edi,%esi
  401f77:	44 21 c6             	and    %r8d,%esi
  401f7a:	0f af 74 24 10       	imul   0x10(%rsp),%esi
  401f7f:	eb dd                	jmp    401f5e <fmt_fp+0x53f>
  401f81:	41 83 3f 00          	cmpl   $0x0,(%r15)
  401f85:	75 04                	jne    401f8b <fmt_fp+0x56c>
  401f87:	49 83 c7 04          	add    $0x4,%r15
  401f8b:	85 f6                	test   %esi,%esi
  401f8d:	74 07                	je     401f96 <fmt_fp+0x577>
  401f8f:	89 75 00             	mov    %esi,0x0(%rbp)
  401f92:	48 83 c5 04          	add    $0x4,%rbp
  401f96:	48 8b 74 24 28       	mov    0x28(%rsp),%rsi
  401f9b:	41 83 fa 66          	cmp    $0x66,%r10d
  401f9f:	48 89 ea             	mov    %rbp,%rdx
  401fa2:	49 0f 45 f7          	cmovne %r15,%rsi
  401fa6:	48 29 f2             	sub    %rsi,%rdx
  401fa9:	48 c1 fa 02          	sar    $0x2,%rdx
  401fad:	4c 39 ca             	cmp    %r9,%rdx
  401fb0:	7e 04                	jle    401fb6 <fmt_fp+0x597>
  401fb2:	4a 8d 2c 1e          	lea    (%rsi,%r11,1),%rbp
  401fb6:	01 c8                	add    %ecx,%eax
  401fb8:	b2 01                	mov    $0x1,%dl
  401fba:	e9 6d ff ff ff       	jmp    401f2c <fmt_fp+0x50d>
  401fbf:	84 d2                	test   %dl,%dl
  401fc1:	74 04                	je     401fc7 <fmt_fp+0x5a8>
  401fc3:	89 44 24 70          	mov    %eax,0x70(%rsp)
  401fc7:	45 31 e4             	xor    %r12d,%r12d
  401fca:	49 39 ef             	cmp    %rbp,%r15
  401fcd:	73 24                	jae    401ff3 <fmt_fp+0x5d4>
  401fcf:	4c 8b 64 24 28       	mov    0x28(%rsp),%r12
  401fd4:	41 8b 17             	mov    (%r15),%edx
  401fd7:	b8 0a 00 00 00       	mov    $0xa,%eax
  401fdc:	4d 29 fc             	sub    %r15,%r12
  401fdf:	49 c1 fc 02          	sar    $0x2,%r12
  401fe3:	47 8d 24 e4          	lea    (%r12,%r12,8),%r12d
  401fe7:	39 c2                	cmp    %eax,%edx
  401fe9:	72 08                	jb     401ff3 <fmt_fp+0x5d4>
  401feb:	6b c0 0a             	imul   $0xa,%eax,%eax
  401fee:	41 ff c4             	inc    %r12d
  401ff1:	eb f4                	jmp    401fe7 <fmt_fp+0x5c8>
  401ff3:	31 c0                	xor    %eax,%eax
  401ff5:	41 83 fa 66          	cmp    $0x66,%r10d
  401ff9:	89 d9                	mov    %ebx,%ecx
  401ffb:	0f 95 c0             	setne  %al
  401ffe:	41 0f af c4          	imul   %r12d,%eax
  402002:	29 c1                	sub    %eax,%ecx
  402004:	85 db                	test   %ebx,%ebx
  402006:	89 c8                	mov    %ecx,%eax
  402008:	0f 95 c1             	setne  %cl
  40200b:	31 d2                	xor    %edx,%edx
  40200d:	41 83 fa 67          	cmp    $0x67,%r10d
  402011:	0f 94 c2             	sete   %dl
  402014:	21 ca                	and    %ecx,%edx
  402016:	29 d0                	sub    %edx,%eax
  402018:	48 89 ea             	mov    %rbp,%rdx
  40201b:	48 2b 54 24 28       	sub    0x28(%rsp),%rdx
  402020:	48 c1 fa 02          	sar    $0x2,%rdx
  402024:	48 63 c8             	movslq %eax,%rcx
  402027:	48 ff ca             	dec    %rdx
  40202a:	48 8d 14 d2          	lea    (%rdx,%rdx,8),%rdx
  40202e:	48 39 d1             	cmp    %rdx,%rcx
  402031:	0f 8d 22 01 00 00    	jge    402159 <fmt_fp+0x73a>
  402037:	05 00 40 02 00       	add    $0x24000,%eax
  40203c:	b9 09 00 00 00       	mov    $0x9,%ecx
  402041:	be 0a 00 00 00       	mov    $0xa,%esi
  402046:	99                   	cltd
  402047:	f7 f9                	idiv   %ecx
  402049:	48 8b 4c 24 28       	mov    0x28(%rsp),%rcx
  40204e:	48 98                	cltq
  402050:	ff c2                	inc    %edx
  402052:	48 8d 8c 81 04 00 ff 	lea    -0xfffc(%rcx,%rax,4),%rcx
  402059:	ff 
  40205a:	83 fa 09             	cmp    $0x9,%edx
  40205d:	74 07                	je     402066 <fmt_fp+0x647>
  40205f:	6b f6 0a             	imul   $0xa,%esi,%esi
  402062:	ff c2                	inc    %edx
  402064:	eb f4                	jmp    40205a <fmt_fp+0x63b>
  402066:	8b 39                	mov    (%rcx),%edi
  402068:	31 d2                	xor    %edx,%edx
  40206a:	89 f8                	mov    %edi,%eax
  40206c:	f7 f6                	div    %esi
  40206e:	85 d2                	test   %edx,%edx
  402070:	75 0d                	jne    40207f <fmt_fp+0x660>
  402072:	4c 8d 41 04          	lea    0x4(%rcx),%r8
  402076:	4c 39 c5             	cmp    %r8,%rbp
  402079:	0f 84 c3 00 00 00    	je     402142 <fmt_fp+0x723>
  40207f:	a8 01                	test   $0x1,%al
  402081:	75 13                	jne    402096 <fmt_fp+0x677>
  402083:	81 fe 00 ca 9a 3b    	cmp    $0x3b9aca00,%esi
  402089:	75 13                	jne    40209e <fmt_fp+0x67f>
  40208b:	49 39 cf             	cmp    %rcx,%r15
  40208e:	73 0e                	jae    40209e <fmt_fp+0x67f>
  402090:	f6 41 fc 01          	testb  $0x1,-0x4(%rcx)
  402094:	74 08                	je     40209e <fmt_fp+0x67f>
  402096:	db 2d 74 38 00 00    	fldt   0x3874(%rip)        # 405910 <states+0x1f0>
  40209c:	eb 06                	jmp    4020a4 <fmt_fp+0x685>
  40209e:	d9 05 50 38 00 00    	flds   0x3850(%rip)        # 4058f4 <states+0x1d4>
  4020a4:	89 f0                	mov    %esi,%eax
  4020a6:	d1 f8                	sar    $1,%eax
  4020a8:	39 d0                	cmp    %edx,%eax
  4020aa:	77 0f                	ja     4020bb <fmt_fp+0x69c>
  4020ac:	75 17                	jne    4020c5 <fmt_fp+0x6a6>
  4020ae:	48 8d 41 04          	lea    0x4(%rcx),%rax
  4020b2:	d9 e8                	fld1
  4020b4:	48 39 c5             	cmp    %rax,%rbp
  4020b7:	75 0a                	jne    4020c3 <fmt_fp+0x6a4>
  4020b9:	eb 10                	jmp    4020cb <fmt_fp+0x6ac>
  4020bb:	d9 05 3b 38 00 00    	flds   0x383b(%rip)        # 4058fc <states+0x1dc>
  4020c1:	eb 08                	jmp    4020cb <fmt_fp+0x6ac>
  4020c3:	dd d8                	fstp   %st(0)
  4020c5:	d9 05 2d 38 00 00    	flds   0x382d(%rip)        # 4058f8 <states+0x1d8>
  4020cb:	45 85 f6             	test   %r14d,%r14d
  4020ce:	74 12                	je     4020e2 <fmt_fp+0x6c3>
  4020d0:	48 8b 44 24 40       	mov    0x40(%rsp),%rax
  4020d5:	80 38 2d             	cmpb   $0x2d,(%rax)
  4020d8:	75 08                	jne    4020e2 <fmt_fp+0x6c3>
  4020da:	d9 c9                	fxch   %st(1)
  4020dc:	d9 e0                	fchs
  4020de:	d9 c9                	fxch   %st(1)
  4020e0:	d9 e0                	fchs
  4020e2:	d8 c1                	fadd   %st(1),%st
  4020e4:	29 d7                	sub    %edx,%edi
  4020e6:	df e9                	fucomip %st(1),%st
  4020e8:	dd d8                	fstp   %st(0)
  4020ea:	7a 06                	jp     4020f2 <fmt_fp+0x6d3>
  4020ec:	75 04                	jne    4020f2 <fmt_fp+0x6d3>
  4020ee:	89 39                	mov    %edi,(%rcx)
  4020f0:	eb 50                	jmp    402142 <fmt_fp+0x723>
  4020f2:	01 fe                	add    %edi,%esi
  4020f4:	89 31                	mov    %esi,(%rcx)
  4020f6:	81 39 ff c9 9a 3b    	cmpl   $0x3b9ac9ff,(%rcx)
  4020fc:	76 20                	jbe    40211e <fmt_fp+0x6ff>
  4020fe:	48 83 e9 04          	sub    $0x4,%rcx
  402102:	c7 41 04 00 00 00 00 	movl   $0x0,0x4(%rcx)
  402109:	49 39 cf             	cmp    %rcx,%r15
  40210c:	76 0c                	jbe    40211a <fmt_fp+0x6fb>
  40210e:	41 c7 47 fc 00 00 00 	movl   $0x0,-0x4(%r15)
  402115:	00 
  402116:	49 83 ef 04          	sub    $0x4,%r15
  40211a:	ff 01                	incl   (%rcx)
  40211c:	eb d8                	jmp    4020f6 <fmt_fp+0x6d7>
  40211e:	4c 8b 64 24 28       	mov    0x28(%rsp),%r12
  402123:	41 8b 17             	mov    (%r15),%edx
  402126:	b8 0a 00 00 00       	mov    $0xa,%eax
  40212b:	4d 29 fc             	sub    %r15,%r12
  40212e:	49 c1 fc 02          	sar    $0x2,%r12
  402132:	47 8d 24 e4          	lea    (%r12,%r12,8),%r12d
  402136:	39 c2                	cmp    %eax,%edx
  402138:	72 08                	jb     402142 <fmt_fp+0x723>
  40213a:	6b c0 0a             	imul   $0xa,%eax,%eax
  40213d:	41 ff c4             	inc    %r12d
  402140:	eb f4                	jmp    402136 <fmt_fp+0x717>
  402142:	48 83 c1 04          	add    $0x4,%rcx
  402146:	48 39 cd             	cmp    %rcx,%rbp
  402149:	48 0f 47 e9          	cmova  %rcx,%rbp
  40214d:	eb 0a                	jmp    402159 <fmt_fp+0x73a>
  40214f:	83 7d fc 00          	cmpl   $0x0,-0x4(%rbp)
  402153:	75 09                	jne    40215e <fmt_fp+0x73f>
  402155:	48 83 ed 04          	sub    $0x4,%rbp
  402159:	4c 39 fd             	cmp    %r15,%rbp
  40215c:	77 f1                	ja     40214f <fmt_fp+0x730>
  40215e:	41 83 fa 67          	cmp    $0x67,%r10d
  402162:	0f 85 93 00 00 00    	jne    4021fb <fmt_fp+0x7dc>
  402168:	85 db                	test   %ebx,%ebx
  40216a:	75 05                	jne    402171 <fmt_fp+0x752>
  40216c:	bb 01 00 00 00       	mov    $0x1,%ebx
  402171:	44 39 e3             	cmp    %r12d,%ebx
  402174:	7e 12                	jle    402188 <fmt_fp+0x769>
  402176:	41 83 fc fc          	cmp    $0xfffffffc,%r12d
  40217a:	7c 0c                	jl     402188 <fmt_fp+0x769>
  40217c:	41 8d 44 24 01       	lea    0x1(%r12),%eax
  402181:	41 ff cd             	dec    %r13d
  402184:	29 c3                	sub    %eax,%ebx
  402186:	eb 06                	jmp    40218e <fmt_fp+0x76f>
  402188:	41 83 ed 02          	sub    $0x2,%r13d
  40218c:	ff cb                	dec    %ebx
  40218e:	f6 44 24 58 08       	testb  $0x8,0x58(%rsp)
  402193:	75 66                	jne    4021fb <fmt_fp+0x7dc>
  402195:	b9 09 00 00 00       	mov    $0x9,%ecx
  40219a:	4c 39 fd             	cmp    %r15,%rbp
  40219d:	76 1f                	jbe    4021be <fmt_fp+0x79f>
  40219f:	8b 7d fc             	mov    -0x4(%rbp),%edi
  4021a2:	85 ff                	test   %edi,%edi
  4021a4:	74 18                	je     4021be <fmt_fp+0x79f>
  4021a6:	31 c9                	xor    %ecx,%ecx
  4021a8:	be 0a 00 00 00       	mov    $0xa,%esi
  4021ad:	89 f8                	mov    %edi,%eax
  4021af:	31 d2                	xor    %edx,%edx
  4021b1:	f7 f6                	div    %esi
  4021b3:	85 d2                	test   %edx,%edx
  4021b5:	75 07                	jne    4021be <fmt_fp+0x79f>
  4021b7:	6b f6 0a             	imul   $0xa,%esi,%esi
  4021ba:	ff c1                	inc    %ecx
  4021bc:	eb ef                	jmp    4021ad <fmt_fp+0x78e>
  4021be:	48 89 e8             	mov    %rbp,%rax
  4021c1:	48 2b 44 24 28       	sub    0x28(%rsp),%rax
  4021c6:	44 89 ea             	mov    %r13d,%edx
  4021c9:	48 63 f1             	movslq %ecx,%rsi
  4021cc:	48 c1 f8 02          	sar    $0x2,%rax
  4021d0:	83 ca 20             	or     $0x20,%edx
  4021d3:	48 63 db             	movslq %ebx,%rbx
  4021d6:	48 ff c8             	dec    %rax
  4021d9:	48 8d 04 c0          	lea    (%rax,%rax,8),%rax
  4021dd:	83 fa 66             	cmp    $0x66,%edx
  4021e0:	74 06                	je     4021e8 <fmt_fp+0x7c9>
  4021e2:	49 63 cc             	movslq %r12d,%rcx
  4021e5:	48 01 c8             	add    %rcx,%rax
  4021e8:	48 29 f0             	sub    %rsi,%rax
  4021eb:	ba 00 00 00 00       	mov    $0x0,%edx
  4021f0:	48 0f 48 c2          	cmovs  %rdx,%rax
  4021f4:	48 39 d8             	cmp    %rbx,%rax
  4021f7:	48 0f 4e d8          	cmovle %rax,%rbx
  4021fb:	81 fb fd ff ff 7f    	cmp    $0x7ffffffd,%ebx
  402201:	0f 8f 12 fb ff ff    	jg     401d19 <fmt_fp+0x2fa>
  402207:	8b 44 24 58          	mov    0x58(%rsp),%eax
  40220b:	83 e0 08             	and    $0x8,%eax
  40220e:	89 44 24 30          	mov    %eax,0x30(%rsp)
  402212:	09 d8                	or     %ebx,%eax
  402214:	89 44 24 5c          	mov    %eax,0x5c(%rsp)
  402218:	0f 95 c0             	setne  %al
  40221b:	0f b6 c0             	movzbl %al,%eax
  40221e:	8d 44 03 01          	lea    0x1(%rbx,%rax,1),%eax
  402222:	41 89 c1             	mov    %eax,%r9d
  402225:	44 89 e8             	mov    %r13d,%eax
  402228:	83 c8 20             	or     $0x20,%eax
  40222b:	89 44 24 50          	mov    %eax,0x50(%rsp)
  40222f:	b8 ff ff ff 7f       	mov    $0x7fffffff,%eax
  402234:	44 29 c8             	sub    %r9d,%eax
  402237:	83 7c 24 50 66       	cmpl   $0x66,0x50(%rsp)
  40223c:	41 89 c3             	mov    %eax,%r11d
  40223f:	75 19                	jne    40225a <fmt_fp+0x83b>
  402241:	41 39 c4             	cmp    %eax,%r12d
  402244:	0f 8f cf fa ff ff    	jg     401d19 <fmt_fp+0x2fa>
  40224a:	45 85 e4             	test   %r12d,%r12d
  40224d:	7e 7f                	jle    4022ce <fmt_fp+0x8af>
  40224f:	44 89 c8             	mov    %r9d,%eax
  402252:	44 01 e0             	add    %r12d,%eax
  402255:	41 89 c1             	mov    %eax,%r9d
  402258:	eb 74                	jmp    4022ce <fmt_fp+0x8af>
  40225a:	44 89 e0             	mov    %r12d,%eax
  40225d:	48 8d b4 24 2f 1d 00 	lea    0x1d2f(%rsp),%rsi
  402264:	00 
  402265:	c1 f8 1f             	sar    $0x1f,%eax
  402268:	89 c7                	mov    %eax,%edi
  40226a:	44 31 e7             	xor    %r12d,%edi
  40226d:	29 c7                	sub    %eax,%edi
  40226f:	48 63 ff             	movslq %edi,%rdi
  402272:	e8 7b f6 ff ff       	call   4018f2 <fmt_u>
  402277:	48 8d 94 24 2f 1d 00 	lea    0x1d2f(%rsp),%rdx
  40227e:	00 
  40227f:	48 89 d1             	mov    %rdx,%rcx
  402282:	48 29 c1             	sub    %rax,%rcx
  402285:	48 ff c9             	dec    %rcx
  402288:	7f 08                	jg     402292 <fmt_fp+0x873>
  40228a:	48 ff c8             	dec    %rax
  40228d:	c6 00 30             	movb   $0x30,(%rax)
  402290:	eb ed                	jmp    40227f <fmt_fp+0x860>
  402292:	41 c1 fc 1f          	sar    $0x1f,%r12d
  402296:	48 8d 48 fe          	lea    -0x2(%rax),%rcx
  40229a:	44 88 68 fe          	mov    %r13b,-0x2(%rax)
  40229e:	4d 63 eb             	movslq %r11d,%r13
  4022a1:	41 83 e4 02          	and    $0x2,%r12d
  4022a5:	48 89 4c 24 48       	mov    %rcx,0x48(%rsp)
  4022aa:	41 83 c4 2b          	add    $0x2b,%r12d
  4022ae:	44 88 60 ff          	mov    %r12b,-0x1(%rax)
  4022b2:	48 8d 84 24 2f 1d 00 	lea    0x1d2f(%rsp),%rax
  4022b9:	00 
  4022ba:	48 29 c8             	sub    %rcx,%rax
  4022bd:	4c 39 e8             	cmp    %r13,%rax
  4022c0:	0f 8f 53 fa ff ff    	jg     401d19 <fmt_fp+0x2fa>
  4022c6:	44 89 c9             	mov    %r9d,%ecx
  4022c9:	01 c1                	add    %eax,%ecx
  4022cb:	41 89 c9             	mov    %ecx,%r9d
  4022ce:	b8 ff ff ff 7f       	mov    $0x7fffffff,%eax
  4022d3:	44 29 f0             	sub    %r14d,%eax
  4022d6:	44 39 c8             	cmp    %r9d,%eax
  4022d9:	0f 8c 3a fa ff ff    	jl     401d19 <fmt_fp+0x2fa>
  4022df:	44 89 c8             	mov    %r9d,%eax
  4022e2:	44 8b 44 24 58       	mov    0x58(%rsp),%r8d
  4022e7:	8b 54 24 24          	mov    0x24(%rsp),%edx
  4022eb:	be 20 00 00 00       	mov    $0x20,%esi
  4022f0:	44 01 f0             	add    %r14d,%eax
  4022f3:	48 8b 7c 24 08       	mov    0x8(%rsp),%rdi
  4022f8:	89 c1                	mov    %eax,%ecx
  4022fa:	89 44 24 10          	mov    %eax,0x10(%rsp)
  4022fe:	e8 61 f6 ff ff       	call   401964 <pad>
  402303:	48 8b 74 24 40       	mov    0x40(%rsp),%rsi
  402308:	48 8b 7c 24 08       	mov    0x8(%rsp),%rdi
  40230d:	49 63 d6             	movslq %r14d,%rdx
  402310:	e8 38 f6 ff ff       	call   40194d <out>
  402315:	44 8b 44 24 58       	mov    0x58(%rsp),%r8d
  40231a:	8b 4c 24 10          	mov    0x10(%rsp),%ecx
  40231e:	be 30 00 00 00       	mov    $0x30,%esi
  402323:	8b 54 24 24          	mov    0x24(%rsp),%edx
  402327:	48 8b 7c 24 08       	mov    0x8(%rsp),%rdi
  40232c:	41 81 f0 00 00 01 00 	xor    $0x10000,%r8d
  402333:	e8 2c f6 ff ff       	call   401964 <pad>
  402338:	83 7c 24 50 66       	cmpl   $0x66,0x50(%rsp)
  40233d:	0f 85 f8 00 00 00    	jne    40243b <fmt_fp+0xa1c>
  402343:	4c 39 7c 24 28       	cmp    %r15,0x28(%rsp)
  402348:	4d 89 fe             	mov    %r15,%r14
  40234b:	4c 0f 46 74 24 28    	cmovbe 0x28(%rsp),%r14
  402351:	4c 8d ac 24 2f 1d 00 	lea    0x1d2f(%rsp),%r13
  402358:	00 
  402359:	4d 89 f4             	mov    %r14,%r12
  40235c:	4c 3b 64 24 28       	cmp    0x28(%rsp),%r12
  402361:	77 4d                	ja     4023b0 <fmt_fp+0x991>
  402363:	4d 8d 7d 09          	lea    0x9(%r13),%r15
  402367:	41 8b 3c 24          	mov    (%r12),%edi
  40236b:	4c 89 fe             	mov    %r15,%rsi
  40236e:	e8 7f f5 ff ff       	call   4018f2 <fmt_u>
  402373:	4d 39 e6             	cmp    %r12,%r14
  402376:	74 0d                	je     402385 <fmt_fp+0x966>
  402378:	4c 39 e8             	cmp    %r13,%rax
  40237b:	76 19                	jbe    402396 <fmt_fp+0x977>
  40237d:	48 ff c8             	dec    %rax
  402380:	c6 00 30             	movb   $0x30,(%rax)
  402383:	eb f3                	jmp    402378 <fmt_fp+0x959>
  402385:	4c 39 f8             	cmp    %r15,%rax
  402388:	75 0c                	jne    402396 <fmt_fp+0x977>
  40238a:	c6 84 24 37 1d 00 00 	movb   $0x30,0x1d37(%rsp)
  402391:	30 
  402392:	49 8d 45 08          	lea    0x8(%r13),%rax
  402396:	49 8d 55 09          	lea    0x9(%r13),%rdx
  40239a:	48 8b 7c 24 08       	mov    0x8(%rsp),%rdi
  40239f:	48 89 c6             	mov    %rax,%rsi
  4023a2:	49 83 c4 04          	add    $0x4,%r12
  4023a6:	48 29 c2             	sub    %rax,%rdx
  4023a9:	e8 9f f5 ff ff       	call   40194d <out>
  4023ae:	eb ac                	jmp    40235c <fmt_fp+0x93d>
  4023b0:	83 7c 24 5c 00       	cmpl   $0x0,0x5c(%rsp)
  4023b5:	74 63                	je     40241a <fmt_fp+0x9fb>
  4023b7:	48 8b 7c 24 08       	mov    0x8(%rsp),%rdi
  4023bc:	ba 01 00 00 00       	mov    $0x1,%edx
  4023c1:	be f3 54 40 00       	mov    $0x4054f3,%esi
  4023c6:	4c 8d ac 24 2f 1d 00 	lea    0x1d2f(%rsp),%r13
  4023cd:	00 
  4023ce:	e8 7a f5 ff ff       	call   40194d <out>
  4023d3:	49 39 ec             	cmp    %rbp,%r12
  4023d6:	73 44                	jae    40241c <fmt_fp+0x9fd>
  4023d8:	85 db                	test   %ebx,%ebx
  4023da:	7e 40                	jle    40241c <fmt_fp+0x9fd>
  4023dc:	41 8b 3c 24          	mov    (%r12),%edi
  4023e0:	49 8d 75 09          	lea    0x9(%r13),%rsi
  4023e4:	e8 09 f5 ff ff       	call   4018f2 <fmt_u>
  4023e9:	4c 39 e8             	cmp    %r13,%rax
  4023ec:	76 08                	jbe    4023f6 <fmt_fp+0x9d7>
  4023ee:	48 ff c8             	dec    %rax
  4023f1:	c6 00 30             	movb   $0x30,(%rax)
  4023f4:	eb f3                	jmp    4023e9 <fmt_fp+0x9ca>
  4023f6:	83 fb 09             	cmp    $0x9,%ebx
  4023f9:	ba 09 00 00 00       	mov    $0x9,%edx
  4023fe:	48 8b 7c 24 08       	mov    0x8(%rsp),%rdi
  402403:	48 89 c6             	mov    %rax,%rsi
  402406:	0f 4e d3             	cmovle %ebx,%edx
  402409:	49 83 c4 04          	add    $0x4,%r12
  40240d:	83 eb 09             	sub    $0x9,%ebx
  402410:	48 63 d2             	movslq %edx,%rdx
  402413:	e8 35 f5 ff ff       	call   40194d <out>
  402418:	eb b9                	jmp    4023d3 <fmt_fp+0x9b4>
  40241a:	31 db                	xor    %ebx,%ebx
  40241c:	48 8b 7c 24 08       	mov    0x8(%rsp),%rdi
  402421:	8d 53 09             	lea    0x9(%rbx),%edx
  402424:	45 31 c0             	xor    %r8d,%r8d
  402427:	b9 09 00 00 00       	mov    $0x9,%ecx
  40242c:	be 30 00 00 00       	mov    $0x30,%esi
  402431:	e8 2e f5 ff ff       	call   401964 <pad>
  402436:	e9 f9 00 00 00       	jmp    402534 <fmt_fp+0xb15>
  40243b:	4c 39 fd             	cmp    %r15,%rbp
  40243e:	77 04                	ja     402444 <fmt_fp+0xa25>
  402440:	49 8d 6f 04          	lea    0x4(%r15),%rbp
  402444:	4c 89 7c 24 28       	mov    %r15,0x28(%rsp)
  402449:	4c 8d ac 24 2f 1d 00 	lea    0x1d2f(%rsp),%r13
  402450:	00 
  402451:	48 39 6c 24 28       	cmp    %rbp,0x28(%rsp)
  402456:	0f 83 a2 00 00 00    	jae    4024fe <fmt_fp+0xadf>
  40245c:	85 db                	test   %ebx,%ebx
  40245e:	0f 88 9a 00 00 00    	js     4024fe <fmt_fp+0xadf>
  402464:	48 8b 44 24 28       	mov    0x28(%rsp),%rax
  402469:	4d 8d 65 09          	lea    0x9(%r13),%r12
  40246d:	4c 89 e6             	mov    %r12,%rsi
  402470:	8b 38                	mov    (%rax),%edi
  402472:	e8 7b f4 ff ff       	call   4018f2 <fmt_u>
  402477:	4c 39 e0             	cmp    %r12,%rax
  40247a:	75 0c                	jne    402488 <fmt_fp+0xa69>
  40247c:	c6 84 24 37 1d 00 00 	movb   $0x30,0x1d37(%rsp)
  402483:	30 
  402484:	49 8d 45 08          	lea    0x8(%r13),%rax
  402488:	49 89 c4             	mov    %rax,%r12
  40248b:	4c 39 7c 24 28       	cmp    %r15,0x28(%rsp)
  402490:	74 0f                	je     4024a1 <fmt_fp+0xa82>
  402492:	4d 39 ec             	cmp    %r13,%r12
  402495:	76 3b                	jbe    4024d2 <fmt_fp+0xab3>
  402497:	49 ff cc             	dec    %r12
  40249a:	41 c6 04 24 30       	movb   $0x30,(%r12)
  40249f:	eb f1                	jmp    402492 <fmt_fp+0xa73>
  4024a1:	48 8b 7c 24 08       	mov    0x8(%rsp),%rdi
  4024a6:	48 89 c6             	mov    %rax,%rsi
  4024a9:	ba 01 00 00 00       	mov    $0x1,%edx
  4024ae:	49 ff c4             	inc    %r12
  4024b1:	e8 97 f4 ff ff       	call   40194d <out>
  4024b6:	8b 44 24 30          	mov    0x30(%rsp),%eax
  4024ba:	09 d8                	or     %ebx,%eax
  4024bc:	74 14                	je     4024d2 <fmt_fp+0xab3>
  4024be:	48 8b 7c 24 08       	mov    0x8(%rsp),%rdi
  4024c3:	ba 01 00 00 00       	mov    $0x1,%edx
  4024c8:	be f3 54 40 00       	mov    $0x4054f3,%esi
  4024cd:	e8 7b f4 ff ff       	call   40194d <out>
  4024d2:	4d 8d 75 09          	lea    0x9(%r13),%r14
  4024d6:	48 63 d3             	movslq %ebx,%rdx
  4024d9:	48 8b 7c 24 08       	mov    0x8(%rsp),%rdi
  4024de:	4c 89 e6             	mov    %r12,%rsi
  4024e1:	4d 29 e6             	sub    %r12,%r14
  4024e4:	4c 39 f2             	cmp    %r14,%rdx
  4024e7:	49 0f 4f d6          	cmovg  %r14,%rdx
  4024eb:	44 29 f3             	sub    %r14d,%ebx
  4024ee:	e8 5a f4 ff ff       	call   40194d <out>
  4024f3:	48 83 44 24 28 04    	addq   $0x4,0x28(%rsp)
  4024f9:	e9 53 ff ff ff       	jmp    402451 <fmt_fp+0xa32>
  4024fe:	48 8b 7c 24 08       	mov    0x8(%rsp),%rdi
  402503:	8d 53 12             	lea    0x12(%rbx),%edx
  402506:	be 30 00 00 00       	mov    $0x30,%esi
  40250b:	45 31 c0             	xor    %r8d,%r8d
  40250e:	b9 12 00 00 00       	mov    $0x12,%ecx
  402513:	e8 4c f4 ff ff       	call   401964 <pad>
  402518:	48 8b 74 24 48       	mov    0x48(%rsp),%rsi
  40251d:	48 8b 7c 24 08       	mov    0x8(%rsp),%rdi
  402522:	48 8d 94 24 2f 1d 00 	lea    0x1d2f(%rsp),%rdx
  402529:	00 
  40252a:	48 2b 54 24 48       	sub    0x48(%rsp),%rdx
  40252f:	e8 19 f4 ff ff       	call   40194d <out>
  402534:	44 8b 44 24 58       	mov    0x58(%rsp),%r8d
  402539:	8b 4c 24 10          	mov    0x10(%rsp),%ecx
  40253d:	be 20 00 00 00       	mov    $0x20,%esi
  402542:	8b 54 24 24          	mov    0x24(%rsp),%edx
  402546:	48 8b 7c 24 08       	mov    0x8(%rsp),%rdi
  40254b:	41 81 f0 00 20 00 00 	xor    $0x2000,%r8d
  402552:	e8 0d f4 ff ff       	call   401964 <pad>
  402557:	8b 5c 24 24          	mov    0x24(%rsp),%ebx
  40255b:	39 5c 24 10          	cmp    %ebx,0x10(%rsp)
  40255f:	89 d8                	mov    %ebx,%eax
  402561:	0f 4d 44 24 10       	cmovge 0x10(%rsp),%eax
  402566:	48 8b 9c 24 48 1d 00 	mov    0x1d48(%rsp),%rbx
  40256d:	00 
  40256e:	64 48 33 1c 25 28 00 	xor    %fs:0x28,%rbx
  402575:	00 00 
  402577:	74 06                	je     40257f <fmt_fp+0xb60>
  402579:	67 e8 5a 11 00 00    	addr32 call 4036d9 <__stack_chk_fail>
  40257f:	48 81 c4 58 1d 00 00 	add    $0x1d58,%rsp
  402586:	5b                   	pop    %rbx
  402587:	5d                   	pop    %rbp
  402588:	41 5c                	pop    %r12
  40258a:	41 5d                	pop    %r13
  40258c:	41 5e                	pop    %r14
  40258e:	41 5f                	pop    %r15
  402590:	c3                   	ret

0000000000402591 <printf_core>:
  402591:	41 57                	push   %r15
  402593:	45 31 ff             	xor    %r15d,%r15d
  402596:	41 56                	push   %r14
  402598:	41 55                	push   %r13
  40259a:	41 54                	push   %r12
  40259c:	55                   	push   %rbp
  40259d:	53                   	push   %rbx
  40259e:	48 81 ec b8 00 00 00 	sub    $0xb8,%rsp
  4025a5:	48 89 7c 24 10       	mov    %rdi,0x10(%rsp)
  4025aa:	48 89 54 24 18       	mov    %rdx,0x18(%rsp)
  4025af:	48 89 4c 24 30       	mov    %rcx,0x30(%rsp)
  4025b4:	4c 89 44 24 28       	mov    %r8,0x28(%rsp)
  4025b9:	64 48 8b 04 25 28 00 	mov    %fs:0x28,%rax
  4025c0:	00 00 
  4025c2:	48 89 84 24 a8 00 00 	mov    %rax,0xa8(%rsp)
  4025c9:	00 
  4025ca:	31 c0                	xor    %eax,%eax
  4025cc:	48 89 74 24 50       	mov    %rsi,0x50(%rsp)
  4025d1:	c7 44 24 20 00 00 00 	movl   $0x0,0x20(%rsp)
  4025d8:	00 
  4025d9:	c7 44 24 24 00 00 00 	movl   $0x0,0x24(%rsp)
  4025e0:	00 
  4025e1:	4c 8b 64 24 50       	mov    0x50(%rsp),%r12
  4025e6:	44 01 7c 24 20       	add    %r15d,0x20(%rsp)
  4025eb:	41 80 3c 24 00       	cmpb   $0x0,(%r12)
  4025f0:	0f 84 ad 07 00 00    	je     402da3 <printf_core+0x812>
  4025f6:	4c 8b 6c 24 50       	mov    0x50(%rsp),%r13
  4025fb:	41 8a 45 00          	mov    0x0(%r13),%al
  4025ff:	84 c0                	test   %al,%al
  402601:	74 20                	je     402623 <printf_core+0x92>
  402603:	3c 25                	cmp    $0x25,%al
  402605:	74 1c                	je     402623 <printf_core+0x92>
  402607:	49 ff c5             	inc    %r13
  40260a:	4c 89 6c 24 50       	mov    %r13,0x50(%rsp)
  40260f:	eb e5                	jmp    4025f6 <printf_core+0x65>
  402611:	80 78 01 25          	cmpb   $0x25,0x1(%rax)
  402615:	75 16                	jne    40262d <printf_core+0x9c>
  402617:	48 83 c0 02          	add    $0x2,%rax
  40261b:	49 ff c5             	inc    %r13
  40261e:	48 89 44 24 50       	mov    %rax,0x50(%rsp)
  402623:	48 8b 44 24 50       	mov    0x50(%rsp),%rax
  402628:	80 38 25             	cmpb   $0x25,(%rax)
  40262b:	74 e4                	je     402611 <printf_core+0x80>
  40262d:	b8 ff ff ff 7f       	mov    $0x7fffffff,%eax
  402632:	2b 44 24 20          	sub    0x20(%rsp),%eax
  402636:	4d 29 e5             	sub    %r12,%r13
  402639:	89 44 24 3c          	mov    %eax,0x3c(%rsp)
  40263d:	48 98                	cltq
  40263f:	49 39 c5             	cmp    %rax,%r13
  402642:	0f 8f c8 07 00 00    	jg     402e10 <printf_core+0x87f>
  402648:	48 83 7c 24 10 00    	cmpq   $0x0,0x10(%rsp)
  40264e:	45 89 ef             	mov    %r13d,%r15d
  402651:	74 10                	je     402663 <printf_core+0xd2>
  402653:	48 8b 7c 24 10       	mov    0x10(%rsp),%rdi
  402658:	49 63 d5             	movslq %r13d,%rdx
  40265b:	4c 89 e6             	mov    %r12,%rsi
  40265e:	e8 ea f2 ff ff       	call   40194d <out>
  402663:	45 85 ed             	test   %r13d,%r13d
  402666:	74 10                	je     402678 <printf_core+0xe7>
  402668:	44 39 7c 24 3c       	cmp    %r15d,0x3c(%rsp)
  40266d:	0f 8d 6e ff ff ff    	jge    4025e1 <printf_core+0x50>
  402673:	e9 98 07 00 00       	jmp    402e10 <printf_core+0x87f>
  402678:	48 8b 44 24 50       	mov    0x50(%rsp),%rax
  40267d:	0f be 68 01          	movsbl 0x1(%rax),%ebp
  402681:	83 ed 30             	sub    $0x30,%ebp
  402684:	83 fd 09             	cmp    $0x9,%ebp
  402687:	77 14                	ja     40269d <printf_core+0x10c>
  402689:	80 78 02 24          	cmpb   $0x24,0x2(%rax)
  40268d:	75 0e                	jne    40269d <printf_core+0x10c>
  40268f:	48 83 c0 03          	add    $0x3,%rax
  402693:	c7 44 24 24 01 00 00 	movl   $0x1,0x24(%rsp)
  40269a:	00 
  40269b:	eb 06                	jmp    4026a3 <printf_core+0x112>
  40269d:	48 ff c0             	inc    %rax
  4026a0:	83 cd ff             	or     $0xffffffff,%ebp
  4026a3:	48 89 44 24 50       	mov    %rax,0x50(%rsp)
  4026a8:	be 89 28 01 00       	mov    $0x12889,%esi
  4026ad:	bf 01 00 00 00       	mov    $0x1,%edi
  4026b2:	c7 44 24 0c 00 00 00 	movl   $0x0,0xc(%rsp)
  4026b9:	00 
  4026ba:	48 8b 44 24 50       	mov    0x50(%rsp),%rax
  4026bf:	0f be 08             	movsbl (%rax),%ecx
  4026c2:	89 ca                	mov    %ecx,%edx
  4026c4:	83 e9 20             	sub    $0x20,%ecx
  4026c7:	83 f9 1f             	cmp    $0x1f,%ecx
  4026ca:	77 17                	ja     4026e3 <printf_core+0x152>
  4026cc:	0f a3 ce             	bt     %ecx,%esi
  4026cf:	73 12                	jae    4026e3 <printf_core+0x152>
  4026d1:	89 fa                	mov    %edi,%edx
  4026d3:	48 ff c0             	inc    %rax
  4026d6:	d3 e2                	shl    %cl,%edx
  4026d8:	48 89 44 24 50       	mov    %rax,0x50(%rsp)
  4026dd:	09 54 24 0c          	or     %edx,0xc(%rsp)
  4026e1:	eb d7                	jmp    4026ba <printf_core+0x129>
  4026e3:	80 fa 2a             	cmp    $0x2a,%dl
  4026e6:	0f 85 bf 00 00 00    	jne    4027ab <printf_core+0x21a>
  4026ec:	48 0f be 48 01       	movsbq 0x1(%rax),%rcx
  4026f1:	48 89 ca             	mov    %rcx,%rdx
  4026f4:	83 e9 30             	sub    $0x30,%ecx
  4026f7:	83 f9 09             	cmp    $0x9,%ecx
  4026fa:	77 3f                	ja     40273b <printf_core+0x1aa>
  4026fc:	80 78 02 24          	cmpb   $0x24,0x2(%rax)
  402700:	75 39                	jne    40273b <printf_core+0x1aa>
  402702:	48 8b 4c 24 28       	mov    0x28(%rsp),%rcx
  402707:	48 8b 7c 24 30       	mov    0x30(%rsp),%rdi
  40270c:	48 83 c0 03          	add    $0x3,%rax
  402710:	c7 44 24 24 01 00 00 	movl   $0x1,0x24(%rsp)
  402717:	00 
  402718:	c7 84 91 40 ff ff ff 	movl   $0xa,-0xc0(%rcx,%rdx,4)
  40271f:	0a 00 00 00 
  402723:	48 0f be 50 fe       	movsbq -0x2(%rax),%rdx
  402728:	48 89 44 24 50       	mov    %rax,0x50(%rsp)
  40272d:	48 c1 e2 04          	shl    $0x4,%rdx
  402731:	44 8b b4 17 00 fd ff 	mov    -0x300(%rdi,%rdx,1),%r14d
  402738:	ff 
  402739:	eb 5e                	jmp    402799 <printf_core+0x208>
  40273b:	83 7c 24 24 00       	cmpl   $0x0,0x24(%rsp)
  402740:	74 10                	je     402752 <printf_core+0x1c1>
  402742:	e8 94 0f 00 00       	call   4036db <__errno_location>
  402747:	c7 00 16 00 00 00    	movl   $0x16,(%rax)
  40274d:	e9 c9 06 00 00       	jmp    402e1b <printf_core+0x88a>
  402752:	48 83 7c 24 10 00    	cmpq   $0x0,0x10(%rsp)
  402758:	45 89 ee             	mov    %r13d,%r14d
  40275b:	74 37                	je     402794 <printf_core+0x203>
  40275d:	48 8b 44 24 18       	mov    0x18(%rsp),%rax
  402762:	8b 10                	mov    (%rax),%edx
  402764:	83 fa 2f             	cmp    $0x2f,%edx
  402767:	77 12                	ja     40277b <printf_core+0x1ea>
  402769:	48 8b 4c 24 18       	mov    0x18(%rsp),%rcx
  40276e:	89 d0                	mov    %edx,%eax
  402770:	83 c2 08             	add    $0x8,%edx
  402773:	48 03 41 10          	add    0x10(%rcx),%rax
  402777:	89 11                	mov    %edx,(%rcx)
  402779:	eb 16                	jmp    402791 <printf_core+0x200>
  40277b:	48 8b 44 24 18       	mov    0x18(%rsp),%rax
  402780:	48 8b 4c 24 18       	mov    0x18(%rsp),%rcx
  402785:	48 8b 40 08          	mov    0x8(%rax),%rax
  402789:	48 8d 50 08          	lea    0x8(%rax),%rdx
  40278d:	48 89 51 08          	mov    %rdx,0x8(%rcx)
  402791:	44 8b 30             	mov    (%rax),%r14d
  402794:	48 ff 44 24 50       	incq   0x50(%rsp)
  402799:	45 85 f6             	test   %r14d,%r14d
  40279c:	79 22                	jns    4027c0 <printf_core+0x22f>
  40279e:	81 4c 24 0c 00 20 00 	orl    $0x2000,0xc(%rsp)
  4027a5:	00 
  4027a6:	41 f7 de             	neg    %r14d
  4027a9:	eb 15                	jmp    4027c0 <printf_core+0x22f>
  4027ab:	48 8d 7c 24 50       	lea    0x50(%rsp),%rdi
  4027b0:	e8 5d f1 ff ff       	call   401912 <getint>
  4027b5:	41 89 c6             	mov    %eax,%r14d
  4027b8:	85 c0                	test   %eax,%eax
  4027ba:	0f 88 50 06 00 00    	js     402e10 <printf_core+0x87f>
  4027c0:	48 8b 44 24 50       	mov    0x50(%rsp),%rax
  4027c5:	80 38 2e             	cmpb   $0x2e,(%rax)
  4027c8:	0f 85 cd 00 00 00    	jne    40289b <printf_core+0x30a>
  4027ce:	80 78 01 2a          	cmpb   $0x2a,0x1(%rax)
  4027d2:	0f 85 a6 00 00 00    	jne    40287e <printf_core+0x2ed>
  4027d8:	48 0f be 48 02       	movsbq 0x2(%rax),%rcx
  4027dd:	48 89 ca             	mov    %rcx,%rdx
  4027e0:	83 e9 30             	sub    $0x30,%ecx
  4027e3:	83 f9 09             	cmp    $0x9,%ecx
  4027e6:	77 37                	ja     40281f <printf_core+0x28e>
  4027e8:	80 78 03 24          	cmpb   $0x24,0x3(%rax)
  4027ec:	75 31                	jne    40281f <printf_core+0x28e>
  4027ee:	48 8b 4c 24 28       	mov    0x28(%rsp),%rcx
  4027f3:	48 8b 7c 24 30       	mov    0x30(%rsp),%rdi
  4027f8:	48 83 c0 04          	add    $0x4,%rax
  4027fc:	c7 84 91 40 ff ff ff 	movl   $0xa,-0xc0(%rcx,%rdx,4)
  402803:	0a 00 00 00 
  402807:	48 0f be 50 fe       	movsbq -0x2(%rax),%rdx
  40280c:	48 89 44 24 50       	mov    %rax,0x50(%rsp)
  402811:	48 c1 e2 04          	shl    $0x4,%rdx
  402815:	48 63 9c 17 00 fd ff 	movslq -0x300(%rdi,%rdx,1),%rbx
  40281c:	ff 
  40281d:	eb 53                	jmp    402872 <printf_core+0x2e1>
  40281f:	83 7c 24 24 00       	cmpl   $0x0,0x24(%rsp)
  402824:	0f 85 18 ff ff ff    	jne    402742 <printf_core+0x1b1>
  40282a:	48 83 7c 24 10 00    	cmpq   $0x0,0x10(%rsp)
  402830:	49 63 dd             	movslq %r13d,%rbx
  402833:	74 37                	je     40286c <printf_core+0x2db>
  402835:	48 8b 44 24 18       	mov    0x18(%rsp),%rax
  40283a:	8b 10                	mov    (%rax),%edx
  40283c:	83 fa 2f             	cmp    $0x2f,%edx
  40283f:	77 12                	ja     402853 <printf_core+0x2c2>
  402841:	48 8b 4c 24 18       	mov    0x18(%rsp),%rcx
  402846:	89 d0                	mov    %edx,%eax
  402848:	83 c2 08             	add    $0x8,%edx
  40284b:	48 03 41 10          	add    0x10(%rcx),%rax
  40284f:	89 11                	mov    %edx,(%rcx)
  402851:	eb 16                	jmp    402869 <printf_core+0x2d8>
  402853:	48 8b 44 24 18       	mov    0x18(%rsp),%rax
  402858:	48 8b 4c 24 18       	mov    0x18(%rsp),%rcx
  40285d:	48 8b 40 08          	mov    0x8(%rax),%rax
  402861:	48 8d 50 08          	lea    0x8(%rax),%rdx
  402865:	48 89 51 08          	mov    %rdx,0x8(%rcx)
  402869:	48 63 18             	movslq (%rax),%rbx
  40286c:	48 83 44 24 50 02    	addq   $0x2,0x50(%rsp)
  402872:	89 d8                	mov    %ebx,%eax
  402874:	f7 d0                	not    %eax
  402876:	c1 e8 1f             	shr    $0x1f,%eax
  402879:	41 89 c1             	mov    %eax,%r9d
  40287c:	eb 24                	jmp    4028a2 <printf_core+0x311>
  40287e:	48 ff c0             	inc    %rax
  402881:	48 8d 7c 24 50       	lea    0x50(%rsp),%rdi
  402886:	48 89 44 24 50       	mov    %rax,0x50(%rsp)
  40288b:	e8 82 f0 ff ff       	call   401912 <getint>
  402890:	41 b9 01 00 00 00    	mov    $0x1,%r9d
  402896:	48 63 d8             	movslq %eax,%rbx
  402899:	eb 07                	jmp    4028a2 <printf_core+0x311>
  40289b:	45 89 e9             	mov    %r13d,%r9d
  40289e:	48 83 cb ff          	or     $0xffffffffffffffff,%rbx
  4028a2:	45 31 d2             	xor    %r10d,%r10d
  4028a5:	48 8b 44 24 50       	mov    0x50(%rsp),%rax
  4028aa:	0f be 10             	movsbl (%rax),%edx
  4028ad:	83 ea 41             	sub    $0x41,%edx
  4028b0:	83 fa 39             	cmp    $0x39,%edx
  4028b3:	0f 87 89 fe ff ff    	ja     402742 <printf_core+0x1b1>
  4028b9:	48 8d 50 01          	lea    0x1(%rax),%rdx
  4028bd:	48 89 54 24 50       	mov    %rdx,0x50(%rsp)
  4028c2:	44 89 d2             	mov    %r10d,%edx
  4028c5:	0f be 00             	movsbl (%rax),%eax
  4028c8:	48 6b d2 3a          	imul   $0x3a,%rdx,%rdx
  4028cc:	83 e8 41             	sub    $0x41,%eax
  4028cf:	48 98                	cltq
  4028d1:	0f b6 b4 10 20 57 40 	movzbl 0x405720(%rax,%rdx,1),%esi
  4028d8:	00 
  4028d9:	8d 46 ff             	lea    -0x1(%rsi),%eax
  4028dc:	83 f8 07             	cmp    $0x7,%eax
  4028df:	77 05                	ja     4028e6 <printf_core+0x355>
  4028e1:	41 89 f2             	mov    %esi,%r10d
  4028e4:	eb bf                	jmp    4028a5 <printf_core+0x314>
  4028e6:	85 f6                	test   %esi,%esi
  4028e8:	0f 84 54 fe ff ff    	je     402742 <printf_core+0x1b1>
  4028ee:	83 fe 1b             	cmp    $0x1b,%esi
  4028f1:	75 09                	jne    4028fc <printf_core+0x36b>
  4028f3:	85 ed                	test   %ebp,%ebp
  4028f5:	78 4e                	js     402945 <printf_core+0x3b4>
  4028f7:	e9 46 fe ff ff       	jmp    402742 <printf_core+0x1b1>
  4028fc:	85 ed                	test   %ebp,%ebp
  4028fe:	78 1f                	js     40291f <printf_core+0x38e>
  402900:	48 8b 44 24 28       	mov    0x28(%rsp),%rax
  402905:	48 63 ed             	movslq %ebp,%rbp
  402908:	89 34 a8             	mov    %esi,(%rax,%rbp,4)
  40290b:	48 8b 44 24 30       	mov    0x30(%rsp),%rax
  402910:	48 c1 e5 04          	shl    $0x4,%rbp
  402914:	0f 28 04 28          	movaps (%rax,%rbp,1),%xmm0
  402918:	0f 29 44 24 60       	movaps %xmm0,0x60(%rsp)
  40291d:	eb 26                	jmp    402945 <printf_core+0x3b4>
  40291f:	48 83 7c 24 10 00    	cmpq   $0x0,0x10(%rsp)
  402925:	75 0d                	jne    402934 <printf_core+0x3a3>
  402927:	c7 44 24 20 00 00 00 	movl   $0x0,0x20(%rsp)
  40292e:	00 
  40292f:	e9 85 05 00 00       	jmp    402eb9 <printf_core+0x928>
  402934:	48 8b 54 24 18       	mov    0x18(%rsp),%rdx
  402939:	48 8d 7c 24 60       	lea    0x60(%rsp),%rdi
  40293e:	e8 4a ee ff ff       	call   40178d <pop_arg>
  402943:	eb 0c                	jmp    402951 <printf_core+0x3c0>
  402945:	48 83 7c 24 10 00    	cmpq   $0x0,0x10(%rsp)
  40294b:	0f 84 90 fc ff ff    	je     4025e1 <printf_core+0x50>
  402951:	48 8b 44 24 50       	mov    0x50(%rsp),%rax
  402956:	44 0f be 40 ff       	movsbl -0x1(%rax),%r8d
  40295b:	44 89 c5             	mov    %r8d,%ebp
  40295e:	45 85 d2             	test   %r10d,%r10d
  402961:	74 11                	je     402974 <printf_core+0x3e3>
  402963:	44 89 c0             	mov    %r8d,%eax
  402966:	83 e0 0f             	and    $0xf,%eax
  402969:	3c 03                	cmp    $0x3,%al
  40296b:	75 07                	jne    402974 <printf_core+0x3e3>
  40296d:	83 e5 df             	and    $0xffffffdf,%ebp
  402970:	44 0f be c5          	movsbl %bpl,%r8d
  402974:	0f ba 64 24 0c 0d    	btl    $0xd,0xc(%rsp)
  40297a:	73 08                	jae    402984 <printf_core+0x3f3>
  40297c:	81 64 24 0c ff ff fe 	andl   $0xfffeffff,0xc(%rsp)
  402983:	ff 
  402984:	41 8d 40 bf          	lea    -0x41(%r8),%eax
  402988:	83 f8 37             	cmp    $0x37,%eax
  40298b:	0f 87 22 03 00 00    	ja     402cb3 <printf_core+0x722>
  402991:	ff 24 c5 08 55 40 00 	jmp    *0x405508(,%rax,8)
  402998:	44 89 d0             	mov    %r10d,%eax
  40299b:	83 f8 07             	cmp    $0x7,%eax
  40299e:	0f 87 c4 fc ff ff    	ja     402668 <printf_core+0xd7>
  4029a4:	ff 24 c5 c8 56 40 00 	jmp    *0x4056c8(,%rax,8)
  4029ab:	48 8b 44 24 60       	mov    0x60(%rsp),%rax
  4029b0:	8b 4c 24 20          	mov    0x20(%rsp),%ecx
  4029b4:	89 08                	mov    %ecx,(%rax)
  4029b6:	e9 26 fc ff ff       	jmp    4025e1 <printf_core+0x50>
  4029bb:	48 8b 44 24 60       	mov    0x60(%rsp),%rax
  4029c0:	8b 7c 24 20          	mov    0x20(%rsp),%edi
  4029c4:	66 89 38             	mov    %di,(%rax)
  4029c7:	e9 15 fc ff ff       	jmp    4025e1 <printf_core+0x50>
  4029cc:	48 8b 44 24 60       	mov    0x60(%rsp),%rax
  4029d1:	8a 5c 24 20          	mov    0x20(%rsp),%bl
  4029d5:	88 18                	mov    %bl,(%rax)
  4029d7:	e9 05 fc ff ff       	jmp    4025e1 <printf_core+0x50>
  4029dc:	48 63 44 24 20       	movslq 0x20(%rsp),%rax
  4029e1:	48 8b 54 24 60       	mov    0x60(%rsp),%rdx
  4029e6:	48 89 02             	mov    %rax,(%rdx)
  4029e9:	e9 f3 fb ff ff       	jmp    4025e1 <printf_core+0x50>
  4029ee:	83 fb 10             	cmp    $0x10,%ebx
  4029f1:	b8 10 00 00 00       	mov    $0x10,%eax
  4029f6:	41 b8 78 00 00 00    	mov    $0x78,%r8d
  4029fc:	0f 42 d8             	cmovb  %eax,%ebx
  4029ff:	83 4c 24 0c 08       	orl    $0x8,0xc(%rsp)
  402a04:	48 8b 54 24 60       	mov    0x60(%rsp),%rdx
  402a09:	44 89 c1             	mov    %r8d,%ecx
  402a0c:	4c 8d a4 24 a8 00 00 	lea    0xa8(%rsp),%r12
  402a13:	00 
  402a14:	83 e1 20             	and    $0x20,%ecx
  402a17:	48 89 d0             	mov    %rdx,%rax
  402a1a:	48 85 c0             	test   %rax,%rax
  402a1d:	74 1c                	je     402a3b <printf_core+0x4aa>
  402a1f:	48 89 c6             	mov    %rax,%rsi
  402a22:	49 ff cc             	dec    %r12
  402a25:	48 c1 e8 04          	shr    $0x4,%rax
  402a29:	83 e6 0f             	and    $0xf,%esi
  402a2c:	40 8a be 10 57 40 00 	mov    0x405710(%rsi),%dil
  402a33:	09 cf                	or     %ecx,%edi
  402a35:	41 88 3c 24          	mov    %dil,(%r12)
  402a39:	eb df                	jmp    402a1a <printf_core+0x489>
  402a3b:	48 85 d2             	test   %rdx,%rdx
  402a3e:	0f 84 dd 00 00 00    	je     402b21 <printf_core+0x590>
  402a44:	f6 44 24 0c 08       	testb  $0x8,0xc(%rsp)
  402a49:	0f 84 d2 00 00 00    	je     402b21 <printf_core+0x590>
  402a4f:	41 c1 f8 04          	sar    $0x4,%r8d
  402a53:	41 bf 02 00 00 00    	mov    $0x2,%r15d
  402a59:	49 63 e8             	movslq %r8d,%rbp
  402a5c:	48 81 c5 f5 54 40 00 	add    $0x4054f5,%rbp
  402a63:	e9 c1 00 00 00       	jmp    402b29 <printf_core+0x598>
  402a68:	48 8b 44 24 60       	mov    0x60(%rsp),%rax
  402a6d:	4c 8d a4 24 a8 00 00 	lea    0xa8(%rsp),%r12
  402a74:	00 
  402a75:	48 85 c0             	test   %rax,%rax
  402a78:	74 15                	je     402a8f <printf_core+0x4fe>
  402a7a:	89 c2                	mov    %eax,%edx
  402a7c:	49 ff cc             	dec    %r12
  402a7f:	48 c1 e8 03          	shr    $0x3,%rax
  402a83:	83 e2 07             	and    $0x7,%edx
  402a86:	83 c2 30             	add    $0x30,%edx
  402a89:	41 88 14 24          	mov    %dl,(%r12)
  402a8d:	eb e6                	jmp    402a75 <printf_core+0x4e4>
  402a8f:	f6 44 24 0c 08       	testb  $0x8,0xc(%rsp)
  402a94:	0f 84 87 00 00 00    	je     402b21 <printf_core+0x590>
  402a9a:	48 8d 84 24 a8 00 00 	lea    0xa8(%rsp),%rax
  402aa1:	00 
  402aa2:	48 63 d3             	movslq %ebx,%rdx
  402aa5:	4c 29 e0             	sub    %r12,%rax
  402aa8:	48 39 d0             	cmp    %rdx,%rax
  402aab:	7c 74                	jl     402b21 <printf_core+0x590>
  402aad:	8d 58 01             	lea    0x1(%rax),%ebx
  402ab0:	eb 6f                	jmp    402b21 <printf_core+0x590>
  402ab2:	48 8b 44 24 60       	mov    0x60(%rsp),%rax
  402ab7:	48 85 c0             	test   %rax,%rax
  402aba:	79 10                	jns    402acc <printf_core+0x53b>
  402abc:	48 f7 d8             	neg    %rax
  402abf:	41 bf 01 00 00 00    	mov    $0x1,%r15d
  402ac5:	48 89 44 24 60       	mov    %rax,0x60(%rsp)
  402aca:	eb 2c                	jmp    402af8 <printf_core+0x567>
  402acc:	0f ba 64 24 0c 0b    	btl    $0xb,0xc(%rsp)
  402ad2:	72 2b                	jb     402aff <printf_core+0x56e>
  402ad4:	8b 44 24 0c          	mov    0xc(%rsp),%eax
  402ad8:	41 bf 01 00 00 00    	mov    $0x1,%r15d
  402ade:	bd f7 54 40 00       	mov    $0x4054f7,%ebp
  402ae3:	83 e0 01             	and    $0x1,%eax
  402ae6:	b8 f5 54 40 00       	mov    $0x4054f5,%eax
  402aeb:	45 0f 44 fd          	cmove  %r13d,%r15d
  402aef:	48 0f 44 e8          	cmove  %rax,%rbp
  402af3:	eb 15                	jmp    402b0a <printf_core+0x579>
  402af5:	45 89 ef             	mov    %r13d,%r15d
  402af8:	bd f5 54 40 00       	mov    $0x4054f5,%ebp
  402afd:	eb 0b                	jmp    402b0a <printf_core+0x579>
  402aff:	41 bf 01 00 00 00    	mov    $0x1,%r15d
  402b05:	bd f6 54 40 00       	mov    $0x4054f6,%ebp
  402b0a:	48 8b 7c 24 60       	mov    0x60(%rsp),%rdi
  402b0f:	48 8d b4 24 a8 00 00 	lea    0xa8(%rsp),%rsi
  402b16:	00 
  402b17:	e8 d6 ed ff ff       	call   4018f2 <fmt_u>
  402b1c:	49 89 c4             	mov    %rax,%r12
  402b1f:	eb 08                	jmp    402b29 <printf_core+0x598>
  402b21:	45 89 ef             	mov    %r13d,%r15d
  402b24:	bd f5 54 40 00       	mov    $0x4054f5,%ebp
  402b29:	85 db                	test   %ebx,%ebx
  402b2b:	79 0b                	jns    402b38 <printf_core+0x5a7>
  402b2d:	44 89 c8             	mov    %r9d,%eax
  402b30:	a8 01                	test   $0x1,%al
  402b32:	0f 85 d8 02 00 00    	jne    402e10 <printf_core+0x87f>
  402b38:	45 85 c9             	test   %r9d,%r9d
  402b3b:	74 08                	je     402b45 <printf_core+0x5b4>
  402b3d:	81 64 24 0c ff ff fe 	andl   $0xfffeffff,0xc(%rsp)
  402b44:	ff 
  402b45:	48 83 7c 24 60 00    	cmpq   $0x0,0x60(%rsp)
  402b4b:	0f 94 c2             	sete   %dl
  402b4e:	85 db                	test   %ebx,%ebx
  402b50:	75 08                	jne    402b5a <printf_core+0x5c9>
  402b52:	84 d2                	test   %dl,%dl
  402b54:	0f 85 68 01 00 00    	jne    402cc2 <printf_core+0x731>
  402b5a:	4c 8d ac 24 a8 00 00 	lea    0xa8(%rsp),%r13
  402b61:	00 
  402b62:	0f b6 d2             	movzbl %dl,%edx
  402b65:	48 63 db             	movslq %ebx,%rbx
  402b68:	4c 89 e8             	mov    %r13,%rax
  402b6b:	4c 29 e0             	sub    %r12,%rax
  402b6e:	48 01 d0             	add    %rdx,%rax
  402b71:	48 39 d8             	cmp    %rbx,%rax
  402b74:	48 0f 4d d8          	cmovge %rax,%rbx
  402b78:	e9 53 01 00 00       	jmp    402cd0 <printf_core+0x73f>
  402b7d:	48 8b 44 24 60       	mov    0x60(%rsp),%rax
  402b82:	bd f5 54 40 00       	mov    $0x4054f5,%ebp
  402b87:	81 64 24 0c ff ff fe 	andl   $0xfffeffff,0xc(%rsp)
  402b8e:	ff 
  402b8f:	bb 01 00 00 00       	mov    $0x1,%ebx
  402b94:	4c 8d ac 24 a8 00 00 	lea    0xa8(%rsp),%r13
  402b9b:	00 
  402b9c:	88 84 24 a7 00 00 00 	mov    %al,0xa7(%rsp)
  402ba3:	48 8d 44 24 7d       	lea    0x7d(%rsp),%rax
  402ba8:	4c 8d 60 2a          	lea    0x2a(%rax),%r12
  402bac:	e9 1f 01 00 00       	jmp    402cd0 <printf_core+0x73f>
  402bb1:	e8 25 0b 00 00       	call   4036db <__errno_location>
  402bb6:	8b 38                	mov    (%rax),%edi
  402bb8:	67 e8 60 0b 00 00    	addr32 call 40371e <strerror>
  402bbe:	49 89 c4             	mov    %rax,%r12
  402bc1:	eb 10                	jmp    402bd3 <printf_core+0x642>
  402bc3:	4c 8b 64 24 60       	mov    0x60(%rsp),%r12
  402bc8:	4d 85 e4             	test   %r12,%r12
  402bcb:	75 06                	jne    402bd3 <printf_core+0x642>
  402bcd:	41 bc ff 54 40 00    	mov    $0x4054ff,%r12d
  402bd3:	85 db                	test   %ebx,%ebx
  402bd5:	be ff ff ff 7f       	mov    $0x7fffffff,%esi
  402bda:	4c 89 e7             	mov    %r12,%rdi
  402bdd:	48 0f 49 f3          	cmovns %rbx,%rsi
  402be1:	67 e8 39 06 00 00    	addr32 call 403220 <strnlen>
  402be7:	4d 8d 2c 04          	lea    (%r12,%rax,1),%r13
  402beb:	85 db                	test   %ebx,%ebx
  402bed:	79 0b                	jns    402bfa <printf_core+0x669>
  402bef:	41 80 7d 00 00       	cmpb   $0x0,0x0(%r13)
  402bf4:	0f 85 16 02 00 00    	jne    402e10 <printf_core+0x87f>
  402bfa:	89 c3                	mov    %eax,%ebx
  402bfc:	81 64 24 0c ff ff fe 	andl   $0xfffeffff,0xc(%rsp)
  402c03:	ff 
  402c04:	bd f5 54 40 00       	mov    $0x4054f5,%ebp
  402c09:	e9 c2 00 00 00       	jmp    402cd0 <printf_core+0x73f>
  402c0e:	48 8b 44 24 60       	mov    0x60(%rsp),%rax
  402c13:	c7 44 24 5c 00 00 00 	movl   $0x0,0x5c(%rsp)
  402c1a:	00 
  402c1b:	48 83 cb ff          	or     $0xffffffffffffffff,%rbx
  402c1f:	89 44 24 58          	mov    %eax,0x58(%rsp)
  402c23:	48 8d 44 24 58       	lea    0x58(%rsp),%rax
  402c28:	48 89 44 24 60       	mov    %rax,0x60(%rsp)
  402c2d:	4c 8b 64 24 60       	mov    0x60(%rsp),%r12
  402c32:	31 ed                	xor    %ebp,%ebp
  402c34:	48 39 eb             	cmp    %rbp,%rbx
  402c37:	0f 86 eb 01 00 00    	jbe    402e28 <printf_core+0x897>
  402c3d:	41 8b 34 24          	mov    (%r12),%esi
  402c41:	85 f6                	test   %esi,%esi
  402c43:	0f 84 df 01 00 00    	je     402e28 <printf_core+0x897>
  402c49:	48 8d 7c 24 4c       	lea    0x4c(%rsp),%rdi
  402c4e:	49 83 c4 04          	add    $0x4,%r12
  402c52:	67 e8 e7 0b 00 00    	addr32 call 40383f <wctomb>
  402c58:	85 c0                	test   %eax,%eax
  402c5a:	0f 88 bb 01 00 00    	js     402e1b <printf_core+0x88a>
  402c60:	48 89 da             	mov    %rbx,%rdx
  402c63:	48 98                	cltq
  402c65:	48 29 ea             	sub    %rbp,%rdx
  402c68:	48 39 d0             	cmp    %rdx,%rax
  402c6b:	0f 87 b7 01 00 00    	ja     402e28 <printf_core+0x897>
  402c71:	48 01 c5             	add    %rax,%rbp
  402c74:	eb be                	jmp    402c34 <printf_core+0x6a3>
  402c76:	85 db                	test   %ebx,%ebx
  402c78:	79 0b                	jns    402c85 <printf_core+0x6f4>
  402c7a:	44 89 c8             	mov    %r9d,%eax
  402c7d:	a8 01                	test   $0x1,%al
  402c7f:	0f 85 8b 01 00 00    	jne    402e10 <printf_core+0x87f>
  402c85:	ff 74 24 68          	push   0x68(%rsp)
  402c89:	89 da                	mov    %ebx,%edx
  402c8b:	44 89 f6             	mov    %r14d,%esi
  402c8e:	ff 74 24 68          	push   0x68(%rsp)
  402c92:	8b 4c 24 1c          	mov    0x1c(%rsp),%ecx
  402c96:	48 8b 7c 24 20       	mov    0x20(%rsp),%rdi
  402c9b:	e8 7f ed ff ff       	call   401a1f <fmt_fp>
  402ca0:	41 89 c7             	mov    %eax,%r15d
  402ca3:	58                   	pop    %rax
  402ca4:	5a                   	pop    %rdx
  402ca5:	45 85 ff             	test   %r15d,%r15d
  402ca8:	0f 89 ba f9 ff ff    	jns    402668 <printf_core+0xd7>
  402cae:	e9 5d 01 00 00       	jmp    402e10 <printf_core+0x87f>
  402cb3:	bd f5 54 40 00       	mov    $0x4054f5,%ebp
  402cb8:	4c 8d ac 24 a8 00 00 	lea    0xa8(%rsp),%r13
  402cbf:	00 
  402cc0:	eb 0e                	jmp    402cd0 <printf_core+0x73f>
  402cc2:	44 89 eb             	mov    %r13d,%ebx
  402cc5:	4c 8d ac 24 a8 00 00 	lea    0xa8(%rsp),%r13
  402ccc:	00 
  402ccd:	4d 89 ec             	mov    %r13,%r12
  402cd0:	48 63 c3             	movslq %ebx,%rax
  402cd3:	4d 29 e5             	sub    %r12,%r13
  402cd6:	4c 39 e8             	cmp    %r13,%rax
  402cd9:	b8 ff ff ff 7f       	mov    $0x7fffffff,%eax
  402cde:	41 0f 4c dd          	cmovl  %r13d,%ebx
  402ce2:	44 29 f8             	sub    %r15d,%eax
  402ce5:	39 d8                	cmp    %ebx,%eax
  402ce7:	0f 8c 23 01 00 00    	jl     402e10 <printf_core+0x87f>
  402ced:	42 8d 04 3b          	lea    (%rbx,%r15,1),%eax
  402cf1:	44 39 f0             	cmp    %r14d,%eax
  402cf4:	89 44 24 38          	mov    %eax,0x38(%rsp)
  402cf8:	44 0f 4d f0          	cmovge %eax,%r14d
  402cfc:	44 39 74 24 3c       	cmp    %r14d,0x3c(%rsp)
  402d01:	0f 8c 09 01 00 00    	jl     402e10 <printf_core+0x87f>
  402d07:	44 8b 44 24 0c       	mov    0xc(%rsp),%r8d
  402d0c:	48 8b 7c 24 10       	mov    0x10(%rsp),%rdi
  402d11:	89 c1                	mov    %eax,%ecx
  402d13:	44 89 f2             	mov    %r14d,%edx
  402d16:	be 20 00 00 00       	mov    $0x20,%esi
  402d1b:	e8 44 ec ff ff       	call   401964 <pad>
  402d20:	48 8b 7c 24 10       	mov    0x10(%rsp),%rdi
  402d25:	49 63 d7             	movslq %r15d,%rdx
  402d28:	48 89 ee             	mov    %rbp,%rsi
  402d2b:	45 89 f7             	mov    %r14d,%r15d
  402d2e:	e8 1a ec ff ff       	call   40194d <out>
  402d33:	44 8b 44 24 0c       	mov    0xc(%rsp),%r8d
  402d38:	8b 4c 24 38          	mov    0x38(%rsp),%ecx
  402d3c:	44 89 f2             	mov    %r14d,%edx
  402d3f:	48 8b 7c 24 10       	mov    0x10(%rsp),%rdi
  402d44:	be 30 00 00 00       	mov    $0x30,%esi
  402d49:	41 81 f0 00 00 01 00 	xor    $0x10000,%r8d
  402d50:	e8 0f ec ff ff       	call   401964 <pad>
  402d55:	48 8b 7c 24 10       	mov    0x10(%rsp),%rdi
  402d5a:	45 31 c0             	xor    %r8d,%r8d
  402d5d:	44 89 e9             	mov    %r13d,%ecx
  402d60:	89 da                	mov    %ebx,%edx
  402d62:	be 30 00 00 00       	mov    $0x30,%esi
  402d67:	e8 f8 eb ff ff       	call   401964 <pad>
  402d6c:	48 8b 7c 24 10       	mov    0x10(%rsp),%rdi
  402d71:	4c 89 ea             	mov    %r13,%rdx
  402d74:	4c 89 e6             	mov    %r12,%rsi
  402d77:	e8 d1 eb ff ff       	call   40194d <out>
  402d7c:	44 8b 44 24 0c       	mov    0xc(%rsp),%r8d
  402d81:	8b 4c 24 38          	mov    0x38(%rsp),%ecx
  402d85:	44 89 f2             	mov    %r14d,%edx
  402d88:	48 8b 7c 24 10       	mov    0x10(%rsp),%rdi
  402d8d:	be 20 00 00 00       	mov    $0x20,%esi
  402d92:	41 81 f0 00 20 00 00 	xor    $0x2000,%r8d
  402d99:	e8 c6 eb ff ff       	call   401964 <pad>
  402d9e:	e9 3e f8 ff ff       	jmp    4025e1 <printf_core+0x50>
  402da3:	48 83 7c 24 10 00    	cmpq   $0x0,0x10(%rsp)
  402da9:	0f 85 0a 01 00 00    	jne    402eb9 <printf_core+0x928>
  402daf:	83 7c 24 24 00       	cmpl   $0x0,0x24(%rsp)
  402db4:	bb 01 00 00 00       	mov    $0x1,%ebx
  402db9:	0f 84 68 fb ff ff    	je     402927 <printf_core+0x396>
  402dbf:	48 8b 44 24 28       	mov    0x28(%rsp),%rax
  402dc4:	8b 34 98             	mov    (%rax,%rbx,4),%esi
  402dc7:	85 f6                	test   %esi,%esi
  402dc9:	74 35                	je     402e00 <printf_core+0x86f>
  402dcb:	48 89 df             	mov    %rbx,%rdi
  402dce:	48 8b 54 24 18       	mov    0x18(%rsp),%rdx
  402dd3:	48 ff c3             	inc    %rbx
  402dd6:	48 c1 e7 04          	shl    $0x4,%rdi
  402dda:	48 03 7c 24 30       	add    0x30(%rsp),%rdi
  402ddf:	e8 a9 e9 ff ff       	call   40178d <pop_arg>
  402de4:	48 83 fb 0a          	cmp    $0xa,%rbx
  402de8:	75 d5                	jne    402dbf <printf_core+0x82e>
  402dea:	c7 44 24 20 01 00 00 	movl   $0x1,0x20(%rsp)
  402df1:	00 
  402df2:	e9 c2 00 00 00       	jmp    402eb9 <printf_core+0x928>
  402df7:	48 ff c3             	inc    %rbx
  402dfa:	48 83 fb 0a          	cmp    $0xa,%rbx
  402dfe:	74 ea                	je     402dea <printf_core+0x859>
  402e00:	48 8b 44 24 28       	mov    0x28(%rsp),%rax
  402e05:	83 3c 98 00          	cmpl   $0x0,(%rax,%rbx,4)
  402e09:	74 ec                	je     402df7 <printf_core+0x866>
  402e0b:	e9 32 f9 ff ff       	jmp    402742 <printf_core+0x1b1>
  402e10:	e8 c6 08 00 00       	call   4036db <__errno_location>
  402e15:	c7 00 4b 00 00 00    	movl   $0x4b,(%rax)
  402e1b:	c7 44 24 20 ff ff ff 	movl   $0xffffffff,0x20(%rsp)
  402e22:	ff 
  402e23:	e9 91 00 00 00       	jmp    402eb9 <printf_core+0x928>
  402e28:	48 81 fd ff ff ff 7f 	cmp    $0x7fffffff,%rbp
  402e2f:	77 df                	ja     402e10 <printf_core+0x87f>
  402e31:	44 8b 44 24 0c       	mov    0xc(%rsp),%r8d
  402e36:	48 8b 7c 24 10       	mov    0x10(%rsp),%rdi
  402e3b:	89 e9                	mov    %ebp,%ecx
  402e3d:	44 89 f2             	mov    %r14d,%edx
  402e40:	be 20 00 00 00       	mov    $0x20,%esi
  402e45:	41 89 ef             	mov    %ebp,%r15d
  402e48:	31 db                	xor    %ebx,%ebx
  402e4a:	e8 15 eb ff ff       	call   401964 <pad>
  402e4f:	4c 8b 6c 24 60       	mov    0x60(%rsp),%r13
  402e54:	48 39 dd             	cmp    %rbx,%rbp
  402e57:	77 2d                	ja     402e86 <printf_core+0x8f5>
  402e59:	44 8b 44 24 0c       	mov    0xc(%rsp),%r8d
  402e5e:	48 8b 7c 24 10       	mov    0x10(%rsp),%rdi
  402e63:	44 89 f9             	mov    %r15d,%ecx
  402e66:	44 89 f2             	mov    %r14d,%edx
  402e69:	be 20 00 00 00       	mov    $0x20,%esi
  402e6e:	41 81 f0 00 20 00 00 	xor    $0x2000,%r8d
  402e75:	e8 ea ea ff ff       	call   401964 <pad>
  402e7a:	45 39 fe             	cmp    %r15d,%r14d
  402e7d:	45 0f 4d fe          	cmovge %r14d,%r15d
  402e81:	e9 e2 f7 ff ff       	jmp    402668 <printf_core+0xd7>
  402e86:	41 8b 75 00          	mov    0x0(%r13),%esi
  402e8a:	85 f6                	test   %esi,%esi
  402e8c:	74 cb                	je     402e59 <printf_core+0x8c8>
  402e8e:	48 8d 7c 24 4c       	lea    0x4c(%rsp),%rdi
  402e93:	49 83 c5 04          	add    $0x4,%r13
  402e97:	67 e8 a2 09 00 00    	addr32 call 40383f <wctomb>
  402e9d:	48 63 d0             	movslq %eax,%rdx
  402ea0:	48 01 d3             	add    %rdx,%rbx
  402ea3:	48 39 eb             	cmp    %rbp,%rbx
  402ea6:	77 b1                	ja     402e59 <printf_core+0x8c8>
  402ea8:	48 8b 7c 24 10       	mov    0x10(%rsp),%rdi
  402ead:	48 8d 74 24 4c       	lea    0x4c(%rsp),%rsi
  402eb2:	e8 96 ea ff ff       	call   40194d <out>
  402eb7:	eb 9b                	jmp    402e54 <printf_core+0x8c3>
  402eb9:	48 8b 9c 24 a8 00 00 	mov    0xa8(%rsp),%rbx
  402ec0:	00 
  402ec1:	64 48 33 1c 25 28 00 	xor    %fs:0x28,%rbx
  402ec8:	00 00 
  402eca:	8b 44 24 20          	mov    0x20(%rsp),%eax
  402ece:	74 06                	je     402ed6 <printf_core+0x945>
  402ed0:	67 e8 03 08 00 00    	addr32 call 4036d9 <__stack_chk_fail>
  402ed6:	48 81 c4 b8 00 00 00 	add    $0xb8,%rsp
  402edd:	5b                   	pop    %rbx
  402ede:	5d                   	pop    %rbp
  402edf:	41 5c                	pop    %r12
  402ee1:	41 5d                	pop    %r13
  402ee3:	41 5e                	pop    %r14
  402ee5:	41 5f                	pop    %r15
  402ee7:	c3                   	ret

0000000000402ee8 <vfprintf>:
  402ee8:	41 57                	push   %r15
  402eea:	b9 0a 00 00 00       	mov    $0xa,%ecx
  402eef:	49 89 f7             	mov    %rsi,%r15
  402ef2:	41 56                	push   %r14
  402ef4:	41 55                	push   %r13
  402ef6:	41 54                	push   %r12
  402ef8:	55                   	push   %rbp
  402ef9:	83 cd ff             	or     $0xffffffff,%ebp
  402efc:	53                   	push   %rbx
  402efd:	48 89 fb             	mov    %rdi,%rbx
  402f00:	48 81 ec 48 01 00 00 	sub    $0x148,%rsp
  402f07:	64 48 8b 04 25 28 00 	mov    %fs:0x28,%rax
  402f0e:	00 00 
  402f10:	48 89 84 24 38 01 00 	mov    %rax,0x138(%rsp)
  402f17:	00 
  402f18:	31 c0                	xor    %eax,%eax
  402f1a:	48 8d 7c 24 18       	lea    0x18(%rsp),%rdi
  402f1f:	4c 8d 44 24 18       	lea    0x18(%rsp),%r8
  402f24:	f3 ab                	rep stos %eax,%es:(%rdi)
  402f26:	48 8d 4c 24 40       	lea    0x40(%rsp),%rcx
  402f2b:	31 ff                	xor    %edi,%edi
  402f2d:	0f 10 02             	movups (%rdx),%xmm0
  402f30:	0f 11 04 24          	movups %xmm0,(%rsp)
  402f34:	48 8b 42 10          	mov    0x10(%rdx),%rax
  402f38:	48 89 e2             	mov    %rsp,%rdx
  402f3b:	48 89 44 24 10       	mov    %rax,0x10(%rsp)
  402f40:	e8 4c f6 ff ff       	call   402591 <printf_core>
  402f45:	85 c0                	test   %eax,%eax
  402f47:	0f 88 fe 00 00 00    	js     40304b <vfprintf+0x163>
  402f4d:	8b 83 8c 00 00 00    	mov    0x8c(%rbx),%eax
  402f53:	45 31 f6             	xor    %r14d,%r14d
  402f56:	85 c0                	test   %eax,%eax
  402f58:	78 0b                	js     402f65 <vfprintf+0x7d>
  402f5a:	48 89 df             	mov    %rbx,%rdi
  402f5d:	e8 f0 08 00 00       	call   403852 <__lockfile>
  402f62:	41 89 c6             	mov    %eax,%r14d
  402f65:	8b 03                	mov    (%rbx),%eax
  402f67:	41 89 c5             	mov    %eax,%r13d
  402f6a:	41 83 e5 20          	and    $0x20,%r13d
  402f6e:	83 bb 88 00 00 00 00 	cmpl   $0x0,0x88(%rbx)
  402f75:	7f 05                	jg     402f7c <vfprintf+0x94>
  402f77:	83 e0 df             	and    $0xffffffdf,%eax
  402f7a:	89 03                	mov    %eax,(%rbx)
  402f7c:	48 83 7b 60 00       	cmpq   $0x0,0x60(%rbx)
  402f81:	75 32                	jne    402fb5 <vfprintf+0xcd>
  402f83:	48 8d 84 24 e8 00 00 	lea    0xe8(%rsp),%rax
  402f8a:	00 
  402f8b:	4c 8b 63 58          	mov    0x58(%rbx),%r12
  402f8f:	48 c7 43 60 50 00 00 	movq   $0x50,0x60(%rbx)
  402f96:	00 
  402f97:	48 89 43 58          	mov    %rax,0x58(%rbx)
  402f9b:	48 c7 43 20 00 00 00 	movq   $0x0,0x20(%rbx)
  402fa2:	00 
  402fa3:	48 c7 43 38 00 00 00 	movq   $0x0,0x38(%rbx)
  402faa:	00 
  402fab:	48 c7 43 28 00 00 00 	movq   $0x0,0x28(%rbx)
  402fb2:	00 
  402fb3:	eb 09                	jmp    402fbe <vfprintf+0xd6>
  402fb5:	4c 8b 63 20          	mov    0x20(%rbx),%r12
  402fb9:	4d 85 e4             	test   %r12,%r12
  402fbc:	75 11                	jne    402fcf <vfprintf+0xe7>
  402fbe:	48 89 df             	mov    %rbx,%rdi
  402fc1:	83 cd ff             	or     $0xffffffff,%ebp
  402fc4:	e8 04 0b 00 00       	call   403acd <__towrite>
  402fc9:	85 c0                	test   %eax,%eax
  402fcb:	75 1f                	jne    402fec <vfprintf+0x104>
  402fcd:	eb 03                	jmp    402fd2 <vfprintf+0xea>
  402fcf:	45 31 e4             	xor    %r12d,%r12d
  402fd2:	4c 8d 44 24 18       	lea    0x18(%rsp),%r8
  402fd7:	48 8d 4c 24 40       	lea    0x40(%rsp),%rcx
  402fdc:	48 89 e2             	mov    %rsp,%rdx
  402fdf:	4c 89 fe             	mov    %r15,%rsi
  402fe2:	48 89 df             	mov    %rbx,%rdi
  402fe5:	e8 a7 f5 ff ff       	call   402591 <printf_core>
  402fea:	89 c5                	mov    %eax,%ebp
  402fec:	4d 85 e4             	test   %r12,%r12
  402fef:	74 3b                	je     40302c <vfprintf+0x144>
  402ff1:	31 d2                	xor    %edx,%edx
  402ff3:	31 f6                	xor    %esi,%esi
  402ff5:	48 89 df             	mov    %rbx,%rdi
  402ff8:	ff 53 48             	call   *0x48(%rbx)
  402ffb:	48 83 7b 28 00       	cmpq   $0x0,0x28(%rbx)
  403000:	b8 ff ff ff ff       	mov    $0xffffffff,%eax
  403005:	4c 89 63 58          	mov    %r12,0x58(%rbx)
  403009:	48 c7 43 60 00 00 00 	movq   $0x0,0x60(%rbx)
  403010:	00 
  403011:	0f 44 e8             	cmove  %eax,%ebp
  403014:	48 c7 43 20 00 00 00 	movq   $0x0,0x20(%rbx)
  40301b:	00 
  40301c:	48 c7 43 38 00 00 00 	movq   $0x0,0x38(%rbx)
  403023:	00 
  403024:	48 c7 43 28 00 00 00 	movq   $0x0,0x28(%rbx)
  40302b:	00 
  40302c:	8b 03                	mov    (%rbx),%eax
  40302e:	ba ff ff ff ff       	mov    $0xffffffff,%edx
  403033:	a8 20                	test   $0x20,%al
  403035:	0f 45 ea             	cmovne %edx,%ebp
  403038:	41 09 c5             	or     %eax,%r13d
  40303b:	44 89 2b             	mov    %r13d,(%rbx)
  40303e:	45 85 f6             	test   %r14d,%r14d
  403041:	74 08                	je     40304b <vfprintf+0x163>
  403043:	48 89 df             	mov    %rbx,%rdi
  403046:	e8 b1 08 00 00       	call   4038fc <__unlockfile>
  40304b:	48 8b b4 24 38 01 00 	mov    0x138(%rsp),%rsi
  403052:	00 
  403053:	64 48 33 34 25 28 00 	xor    %fs:0x28,%rsi
  40305a:	00 00 
  40305c:	89 e8                	mov    %ebp,%eax
  40305e:	74 06                	je     403066 <vfprintf+0x17e>
  403060:	67 e8 73 06 00 00    	addr32 call 4036d9 <__stack_chk_fail>
  403066:	48 81 c4 48 01 00 00 	add    $0x148,%rsp
  40306d:	5b                   	pop    %rbx
  40306e:	5d                   	pop    %rbp
  40306f:	41 5c                	pop    %r12
  403071:	41 5d                	pop    %r13
  403073:	41 5e                	pop    %r14
  403075:	41 5f                	pop    %r15
  403077:	c3                   	ret
  403078:	0f 1f 84 00 00 00 00 	nopl   0x0(%rax,%rax,1)
  40307f:	00 

0000000000403080 <memchr>:
  403080:	40 0f b6 f6          	movzbl %sil,%esi
  403084:	40 f6 c7 07          	test   $0x7,%dil
  403088:	74 38                	je     4030c2 <memchr+0x42>
  40308a:	48 85 d2             	test   %rdx,%rdx
  40308d:	0f 84 f5 00 00 00    	je     403188 <memchr+0x108>
  403093:	0f b6 07             	movzbl (%rdi),%eax
  403096:	39 c6                	cmp    %eax,%esi
  403098:	75 1a                	jne    4030b4 <memchr+0x34>
  40309a:	e9 f1 00 00 00       	jmp    403190 <memchr+0x110>
  40309f:	90                   	nop
  4030a0:	48 85 d2             	test   %rdx,%rdx
  4030a3:	0f 84 df 00 00 00    	je     403188 <memchr+0x108>
  4030a9:	0f b6 07             	movzbl (%rdi),%eax
  4030ac:	39 f0                	cmp    %esi,%eax
  4030ae:	0f 84 dc 00 00 00    	je     403190 <memchr+0x110>
  4030b4:	48 83 c7 01          	add    $0x1,%rdi
  4030b8:	48 83 ea 01          	sub    $0x1,%rdx
  4030bc:	40 f6 c7 07          	test   $0x7,%dil
  4030c0:	75 de                	jne    4030a0 <memchr+0x20>
  4030c2:	31 c0                	xor    %eax,%eax
  4030c4:	48 85 d2             	test   %rdx,%rdx
  4030c7:	0f 84 b3 00 00 00    	je     403180 <memchr+0x100>
  4030cd:	0f b6 07             	movzbl (%rdi),%eax
  4030d0:	39 f0                	cmp    %esi,%eax
  4030d2:	0f 84 b8 00 00 00    	je     403190 <memchr+0x110>
  4030d8:	49 b8 01 01 01 01 01 	movabs $0x101010101010101,%r8
  4030df:	01 01 01 
  4030e2:	4c 63 ce             	movslq %esi,%r9
  4030e5:	4d 0f af c8          	imul   %r8,%r9
  4030e9:	48 83 fa 07          	cmp    $0x7,%rdx
  4030ed:	0f 86 ab 00 00 00    	jbe    40319e <memchr+0x11e>
  4030f3:	49 ba 80 80 80 80 80 	movabs $0x8080808080808080,%r10
  4030fa:	80 80 80 
  4030fd:	48 8b 07             	mov    (%rdi),%rax
  403100:	4c 31 c8             	xor    %r9,%rax
  403103:	48 89 c1             	mov    %rax,%rcx
  403106:	4c 29 c0             	sub    %r8,%rax
  403109:	48 f7 d1             	not    %rcx
  40310c:	48 21 c8             	and    %rcx,%rax
  40310f:	4c 85 d0             	test   %r10,%rax
  403112:	0f 85 86 00 00 00    	jne    40319e <memchr+0x11e>
  403118:	49 bb ff fe fe fe fe 	movabs $0xfefefefefefefeff,%r11
  40311f:	fe fe fe 
  403122:	eb 1d                	jmp    403141 <memchr+0xc1>
  403124:	0f 1f 40 00          	nopl   0x0(%rax)
  403128:	48 8b 4f 08          	mov    0x8(%rdi),%rcx
  40312c:	4c 31 c9             	xor    %r9,%rcx
  40312f:	4e 8d 04 19          	lea    (%rcx,%r11,1),%r8
  403133:	48 f7 d1             	not    %rcx
  403136:	4c 21 c1             	and    %r8,%rcx
  403139:	4c 85 d1             	test   %r10,%rcx
  40313c:	75 5a                	jne    403198 <memchr+0x118>
  40313e:	48 89 c7             	mov    %rax,%rdi
  403141:	48 83 ea 08          	sub    $0x8,%rdx
  403145:	48 8d 47 08          	lea    0x8(%rdi),%rax
  403149:	48 83 fa 07          	cmp    $0x7,%rdx
  40314d:	77 d9                	ja     403128 <memchr+0xa8>
  40314f:	48 85 d2             	test   %rdx,%rdx
  403152:	74 34                	je     403188 <memchr+0x108>
  403154:	0f b6 08             	movzbl (%rax),%ecx
  403157:	39 ce                	cmp    %ecx,%esi
  403159:	74 48                	je     4031a3 <memchr+0x123>
  40315b:	48 8d 48 01          	lea    0x1(%rax),%rcx
  40315f:	48 01 c2             	add    %rax,%rdx
  403162:	66 0f 1f 44 00 00    	nopw   0x0(%rax,%rax,1)
  403168:	48 89 c8             	mov    %rcx,%rax
  40316b:	48 39 ca             	cmp    %rcx,%rdx
  40316e:	74 18                	je     403188 <memchr+0x108>
  403170:	0f b6 38             	movzbl (%rax),%edi
  403173:	48 83 c1 01          	add    $0x1,%rcx
  403177:	39 f7                	cmp    %esi,%edi
  403179:	75 ed                	jne    403168 <memchr+0xe8>
  40317b:	c3                   	ret
  40317c:	0f 1f 40 00          	nopl   0x0(%rax)
  403180:	c3                   	ret
  403181:	0f 1f 80 00 00 00 00 	nopl   0x0(%rax)
  403188:	31 c0                	xor    %eax,%eax
  40318a:	c3                   	ret
  40318b:	0f 1f 44 00 00       	nopl   0x0(%rax,%rax,1)
  403190:	48 89 f8             	mov    %rdi,%rax
  403193:	eb bf                	jmp    403154 <memchr+0xd4>
  403195:	0f 1f 00             	nopl   (%rax)
  403198:	0f b6 4f 08          	movzbl 0x8(%rdi),%ecx
  40319c:	eb b9                	jmp    403157 <memchr+0xd7>
  40319e:	48 89 f8             	mov    %rdi,%rax
  4031a1:	eb b8                	jmp    40315b <memchr+0xdb>
  4031a3:	c3                   	ret
  4031a4:	66 2e 0f 1f 84 00 00 	cs nopw 0x0(%rax,%rax,1)
  4031ab:	00 00 00 
  4031ae:	66 90                	xchg   %ax,%ax

00000000004031b0 <strncmp>:
  4031b0:	31 c0                	xor    %eax,%eax
  4031b2:	48 85 d2             	test   %rdx,%rdx
  4031b5:	74 5d                	je     403214 <strncmp+0x64>
  4031b7:	0f b6 0f             	movzbl (%rdi),%ecx
  4031ba:	44 0f b6 0e          	movzbl (%rsi),%r9d
  4031be:	84 c9                	test   %cl,%cl
  4031c0:	74 56                	je     403218 <strncmp+0x68>
  4031c2:	48 83 ea 01          	sub    $0x1,%rdx
  4031c6:	41 0f 95 c0          	setne  %r8b
  4031ca:	45 84 c9             	test   %r9b,%r9b
  4031cd:	0f 95 c0             	setne  %al
  4031d0:	41 84 c0             	test   %al,%r8b
  4031d3:	74 39                	je     40320e <strncmp+0x5e>
  4031d5:	b8 01 00 00 00       	mov    $0x1,%eax
  4031da:	44 38 c9             	cmp    %r9b,%cl
  4031dd:	75 2f                	jne    40320e <strncmp+0x5e>
  4031df:	90                   	nop
  4031e0:	0f b6 0c 07          	movzbl (%rdi,%rax,1),%ecx
  4031e4:	44 0f b6 0c 06       	movzbl (%rsi,%rax,1),%r9d
  4031e9:	84 c9                	test   %cl,%cl
  4031eb:	74 2b                	je     403218 <strncmp+0x68>
  4031ed:	45 84 c9             	test   %r9b,%r9b
  4031f0:	41 0f 95 c0          	setne  %r8b
  4031f4:	44 38 c9             	cmp    %r9b,%cl
  4031f7:	41 0f 94 c2          	sete   %r10b
  4031fb:	45 21 d0             	and    %r10d,%r8d
  4031fe:	48 39 c2             	cmp    %rax,%rdx
  403201:	41 0f 95 c2          	setne  %r10b
  403205:	48 83 c0 01          	add    $0x1,%rax
  403209:	45 84 d0             	test   %r10b,%r8b
  40320c:	75 d2                	jne    4031e0 <strncmp+0x30>
  40320e:	0f b6 c1             	movzbl %cl,%eax
  403211:	44 29 c8             	sub    %r9d,%eax
  403214:	c3                   	ret
  403215:	0f 1f 00             	nopl   (%rax)
  403218:	31 c0                	xor    %eax,%eax
  40321a:	eb f5                	jmp    403211 <strncmp+0x61>
  40321c:	0f 1f 40 00          	nopl   0x0(%rax)

0000000000403220 <strnlen>:
  403220:	55                   	push   %rbp
  403221:	48 89 f2             	mov    %rsi,%rdx
  403224:	48 89 fd             	mov    %rdi,%rbp
  403227:	53                   	push   %rbx
  403228:	48 89 f3             	mov    %rsi,%rbx
  40322b:	31 f6                	xor    %esi,%esi
  40322d:	48 83 ec 08          	sub    $0x8,%rsp
  403231:	67 e8 49 fe ff ff    	addr32 call 403080 <memchr>
  403237:	48 89 c6             	mov    %rax,%rsi
  40323a:	48 29 ee             	sub    %rbp,%rsi
  40323d:	48 85 c0             	test   %rax,%rax
  403240:	48 89 d8             	mov    %rbx,%rax
  403243:	48 0f 45 c6          	cmovne %rsi,%rax
  403247:	48 83 c4 08          	add    $0x8,%rsp
  40324b:	5b                   	pop    %rbx
  40324c:	5d                   	pop    %rbp
  40324d:	c3                   	ret

000000000040324e <memcpy>:
  40324e:	48 89 f8             	mov    %rdi,%rax
  403251:	48 83 fa 08          	cmp    $0x8,%rdx
  403255:	72 14                	jb     40326b <memcpy+0x1d>
  403257:	f7 c7 07 00 00 00    	test   $0x7,%edi
  40325d:	74 0c                	je     40326b <memcpy+0x1d>
  40325f:	a4                   	movsb  %ds:(%rsi),%es:(%rdi)
  403260:	48 ff ca             	dec    %rdx
  403263:	f7 c7 07 00 00 00    	test   $0x7,%edi
  403269:	75 f4                	jne    40325f <memcpy+0x11>
  40326b:	48 89 d1             	mov    %rdx,%rcx
  40326e:	48 c1 e9 03          	shr    $0x3,%rcx
  403272:	f3 48 a5             	rep movsq %ds:(%rsi),%es:(%rdi)
  403275:	83 e2 07             	and    $0x7,%edx
  403278:	74 05                	je     40327f <memcpy+0x31>
  40327a:	a4                   	movsb  %ds:(%rsi),%es:(%rdi)
  40327b:	ff ca                	dec    %edx
  40327d:	75 fb                	jne    40327a <memcpy+0x2c>
  40327f:	c3                   	ret

0000000000403280 <memset>:
  403280:	48 0f b6 c6          	movzbq %sil,%rax
  403284:	49 b8 01 01 01 01 01 	movabs $0x101010101010101,%r8
  40328b:	01 01 01 
  40328e:	49 0f af c0          	imul   %r8,%rax
  403292:	48 83 fa 7e          	cmp    $0x7e,%rdx
  403296:	77 78                	ja     403310 <memset+0x90>
  403298:	85 d2                	test   %edx,%edx
  40329a:	74 70                	je     40330c <memset+0x8c>
  40329c:	40 88 37             	mov    %sil,(%rdi)
  40329f:	40 88 74 17 ff       	mov    %sil,-0x1(%rdi,%rdx,1)
  4032a4:	83 fa 02             	cmp    $0x2,%edx
  4032a7:	76 63                	jbe    40330c <memset+0x8c>
  4032a9:	66 89 47 01          	mov    %ax,0x1(%rdi)
  4032ad:	66 89 44 17 fd       	mov    %ax,-0x3(%rdi,%rdx,1)
  4032b2:	83 fa 06             	cmp    $0x6,%edx
  4032b5:	76 55                	jbe    40330c <memset+0x8c>
  4032b7:	89 47 03             	mov    %eax,0x3(%rdi)
  4032ba:	89 44 17 f9          	mov    %eax,-0x7(%rdi,%rdx,1)
  4032be:	83 fa 0e             	cmp    $0xe,%edx
  4032c1:	76 49                	jbe    40330c <memset+0x8c>
  4032c3:	48 89 47 07          	mov    %rax,0x7(%rdi)
  4032c7:	48 89 44 17 f1       	mov    %rax,-0xf(%rdi,%rdx,1)
  4032cc:	83 fa 1e             	cmp    $0x1e,%edx
  4032cf:	76 3b                	jbe    40330c <memset+0x8c>
  4032d1:	48 89 47 0f          	mov    %rax,0xf(%rdi)
  4032d5:	48 89 47 17          	mov    %rax,0x17(%rdi)
  4032d9:	48 89 44 17 e1       	mov    %rax,-0x1f(%rdi,%rdx,1)
  4032de:	48 89 44 17 e9       	mov    %rax,-0x17(%rdi,%rdx,1)
  4032e3:	83 fa 3e             	cmp    $0x3e,%edx
  4032e6:	76 24                	jbe    40330c <memset+0x8c>
  4032e8:	48 89 47 1f          	mov    %rax,0x1f(%rdi)
  4032ec:	48 89 47 27          	mov    %rax,0x27(%rdi)
  4032f0:	48 89 47 2f          	mov    %rax,0x2f(%rdi)
  4032f4:	48 89 47 37          	mov    %rax,0x37(%rdi)
  4032f8:	48 89 44 17 c1       	mov    %rax,-0x3f(%rdi,%rdx,1)
  4032fd:	48 89 44 17 c9       	mov    %rax,-0x37(%rdi,%rdx,1)
  403302:	48 89 44 17 d1       	mov    %rax,-0x2f(%rdi,%rdx,1)
  403307:	48 89 44 17 d9       	mov    %rax,-0x27(%rdi,%rdx,1)
  40330c:	48 89 f8             	mov    %rdi,%rax
  40330f:	c3                   	ret
  403310:	f7 c7 0f 00 00 00    	test   $0xf,%edi
  403316:	49 89 f8             	mov    %rdi,%r8
  403319:	48 89 44 17 f8       	mov    %rax,-0x8(%rdi,%rdx,1)
  40331e:	48 89 d1             	mov    %rdx,%rcx
  403321:	75 0b                	jne    40332e <memset+0xae>
  403323:	48 c1 e9 03          	shr    $0x3,%rcx
  403327:	f3 48 ab             	rep stos %rax,%es:(%rdi)
  40332a:	4c 89 c0             	mov    %r8,%rax
  40332d:	c3                   	ret
  40332e:	31 d2                	xor    %edx,%edx
  403330:	29 fa                	sub    %edi,%edx
  403332:	83 e2 0f             	and    $0xf,%edx
  403335:	48 89 07             	mov    %rax,(%rdi)
  403338:	48 89 47 08          	mov    %rax,0x8(%rdi)
  40333c:	48 29 d1             	sub    %rdx,%rcx
  40333f:	48 01 d7             	add    %rdx,%rdi
  403342:	eb df                	jmp    403323 <memset+0xa3>

0000000000403344 <__lock>:
  403344:	0f be 0d 78 59 00 00 	movsbl 0x5978(%rip),%ecx        # 408cc3 <__libc+0x3>
  40334b:	85 c9                	test   %ecx,%ecx
  40334d:	0f 84 a0 00 00 00    	je     4033f3 <__lock+0xaf>
  403353:	31 c0                	xor    %eax,%eax
  403355:	ba 01 00 00 80       	mov    $0x80000001,%edx
  40335a:	f0 0f b1 17          	lock cmpxchg %edx,(%rdi)
  40335e:	89 c2                	mov    %eax,%edx
  403360:	85 c9                	test   %ecx,%ecx
  403362:	79 07                	jns    40336b <__lock+0x27>
  403364:	c6 05 58 59 00 00 00 	movb   $0x0,0x5958(%rip)        # 408cc3 <__libc+0x3>
  40336b:	85 c0                	test   %eax,%eax
  40336d:	0f 84 80 00 00 00    	je     4033f3 <__lock+0xaf>
  403373:	be 0a 00 00 00       	mov    $0xa,%esi
  403378:	85 d2                	test   %edx,%edx
  40337a:	79 06                	jns    403382 <__lock+0x3e>
  40337c:	81 c2 ff ff ff 7f    	add    $0x7fffffff,%edx
  403382:	8d 8a 01 00 00 80    	lea    -0x7fffffff(%rdx),%ecx
  403388:	89 d0                	mov    %edx,%eax
  40338a:	f0 0f b1 0f          	lock cmpxchg %ecx,(%rdi)
  40338e:	39 c2                	cmp    %eax,%edx
  403390:	74 61                	je     4033f3 <__lock+0xaf>
  403392:	89 c2                	mov    %eax,%edx
  403394:	ff ce                	dec    %esi
  403396:	75 e0                	jne    403378 <__lock+0x34>
  403398:	53                   	push   %rbx
  403399:	41 b8 01 00 00 00    	mov    $0x1,%r8d
  40339f:	f0 44 0f c1 07       	lock xadd %r8d,(%rdi)
  4033a4:	41 b9 ca 00 00 00    	mov    $0xca,%r9d
  4033aa:	41 ff c0             	inc    %r8d
  4033ad:	bb 80 00 00 00       	mov    $0x80,%ebx
  4033b2:	44 89 c2             	mov    %r8d,%edx
  4033b5:	45 85 c0             	test   %r8d,%r8d
  4033b8:	79 22                	jns    4033dc <__lock+0x98>
  4033ba:	49 63 d0             	movslq %r8d,%rdx
  4033bd:	45 31 d2             	xor    %r10d,%r10d
  4033c0:	4c 89 c8             	mov    %r9,%rax
  4033c3:	48 89 de             	mov    %rbx,%rsi
  4033c6:	0f 05                	syscall
  4033c8:	48 83 f8 da          	cmp    $0xffffffffffffffda,%rax
  4033cc:	75 07                	jne    4033d5 <__lock+0x91>
  4033ce:	31 f6                	xor    %esi,%esi
  4033d0:	4c 89 c8             	mov    %r9,%rax
  4033d3:	0f 05                	syscall
  4033d5:	41 8d 90 ff ff ff 7f 	lea    0x7fffffff(%r8),%edx
  4033dc:	44 8d 82 00 00 00 80 	lea    -0x80000000(%rdx),%r8d
  4033e3:	89 d0                	mov    %edx,%eax
  4033e5:	f0 44 0f b1 07       	lock cmpxchg %r8d,(%rdi)
  4033ea:	41 89 c0             	mov    %eax,%r8d
  4033ed:	39 c2                	cmp    %eax,%edx
  4033ef:	75 c1                	jne    4033b2 <__lock+0x6e>
  4033f1:	5b                   	pop    %rbx
  4033f2:	c3                   	ret
  4033f3:	c3                   	ret

00000000004033f4 <__unlock>:
  4033f4:	8b 07                	mov    (%rdi),%eax
  4033f6:	85 c0                	test   %eax,%eax
  4033f8:	79 33                	jns    40342d <__unlock+0x39>
  4033fa:	b8 ff ff ff 7f       	mov    $0x7fffffff,%eax
  4033ff:	f0 0f c1 07          	lock xadd %eax,(%rdi)
  403403:	3d 01 00 00 80       	cmp    $0x80000001,%eax
  403408:	74 23                	je     40342d <__unlock+0x39>
  40340a:	41 b8 ca 00 00 00    	mov    $0xca,%r8d
  403410:	ba 01 00 00 00       	mov    $0x1,%edx
  403415:	be 81 00 00 00       	mov    $0x81,%esi
  40341a:	4c 89 c0             	mov    %r8,%rax
  40341d:	0f 05                	syscall
  40341f:	48 83 f8 da          	cmp    $0xffffffffffffffda,%rax
  403423:	75 08                	jne    40342d <__unlock+0x39>
  403425:	4c 89 c0             	mov    %r8,%rax
  403428:	48 89 d6             	mov    %rdx,%rsi
  40342b:	0f 05                	syscall
  40342d:	c3                   	ret

000000000040342e <__init_tp>:
  40342e:	53                   	push   %rbx
  40342f:	48 89 fb             	mov    %rdi,%rbx
  403432:	48 89 3f             	mov    %rdi,(%rdi)
  403435:	e8 fb 08 00 00       	call   403d35 <__set_thread_area>
  40343a:	83 ca ff             	or     $0xffffffff,%edx
  40343d:	85 c0                	test   %eax,%eax
  40343f:	78 4d                	js     40348e <__init_tp+0x60>
  403441:	75 07                	jne    40344a <__init_tp+0x1c>
  403443:	c6 05 76 58 00 00 01 	movb   $0x1,0x5876(%rip)        # 408cc0 <__libc>
  40344a:	c7 43 40 01 00 00 00 	movl   $0x1,0x40(%rbx)
  403451:	b8 da 00 00 00       	mov    $0xda,%eax
  403456:	bf 28 8d 40 00       	mov    $0x408d28,%edi
  40345b:	0f 05                	syscall
  40345d:	89 43 38             	mov    %eax,0x38(%rbx)
  403460:	48 8d 83 90 00 00 00 	lea    0x90(%rbx),%rax
  403467:	31 d2                	xor    %edx,%edx
  403469:	48 89 83 90 00 00 00 	mov    %rax,0x90(%rbx)
  403470:	48 8b 05 19 58 00 00 	mov    0x5819(%rip),%rax        # 408c90 <__sysinfo>
  403477:	48 c7 83 b0 00 00 00 	movq   $0x408cf8,0xb0(%rbx)
  40347e:	f8 8c 40 00 
  403482:	48 89 43 20          	mov    %rax,0x20(%rbx)
  403486:	48 89 5b 10          	mov    %rbx,0x10(%rbx)
  40348a:	48 89 5b 18          	mov    %rbx,0x18(%rbx)
  40348e:	89 d0                	mov    %edx,%eax
  403490:	5b                   	pop    %rbx
  403491:	c3                   	ret

0000000000403492 <__copy_tls>:
  403492:	41 55                	push   %r13
  403494:	49 89 fd             	mov    %rdi,%r13
  403497:	41 54                	push   %r12
  403499:	4c 8d 67 08          	lea    0x8(%rdi),%r12
  40349d:	55                   	push   %rbp
  40349e:	53                   	push   %rbx
  40349f:	51                   	push   %rcx
  4034a0:	48 8b 05 31 58 00 00 	mov    0x5831(%rip),%rax        # 408cd8 <__libc+0x18>
  4034a7:	48 8b 1d 32 58 00 00 	mov    0x5832(%rip),%rbx        # 408ce0 <__libc+0x20>
  4034ae:	48 8b 2d 1b 58 00 00 	mov    0x581b(%rip),%rbp        # 408cd0 <__libc+0x10>
  4034b5:	48 8d 84 07 20 ff ff 	lea    -0xe0(%rdi,%rax,1),%rax
  4034bc:	ff 
  4034bd:	48 f7 db             	neg    %rbx
  4034c0:	48 21 c3             	and    %rax,%rbx
  4034c3:	48 85 ed             	test   %rbp,%rbp
  4034c6:	74 2a                	je     4034f2 <__copy_tls+0x60>
  4034c8:	48 89 d8             	mov    %rbx,%rax
  4034cb:	48 2b 45 28          	sub    0x28(%rbp),%rax
  4034cf:	48 8b 75 08          	mov    0x8(%rbp),%rsi
  4034d3:	48 89 df             	mov    %rbx,%rdi
  4034d6:	49 89 04 24          	mov    %rax,(%r12)
  4034da:	48 8b 55 10          	mov    0x10(%rbp),%rdx
  4034de:	49 83 c4 08          	add    $0x8,%r12
  4034e2:	48 2b 7d 28          	sub    0x28(%rbp),%rdi
  4034e6:	67 e8 62 fd ff ff    	addr32 call 40324e <memcpy>
  4034ec:	48 8b 6d 00          	mov    0x0(%rbp),%rbp
  4034f0:	eb d1                	jmp    4034c3 <__copy_tls+0x31>
  4034f2:	48 8b 05 ef 57 00 00 	mov    0x57ef(%rip),%rax        # 408ce8 <__libc+0x28>
  4034f9:	49 89 45 00          	mov    %rax,0x0(%r13)
  4034fd:	48 89 d8             	mov    %rbx,%rax
  403500:	4c 89 ab d8 00 00 00 	mov    %r13,0xd8(%rbx)
  403507:	4c 89 6b 08          	mov    %r13,0x8(%rbx)
  40350b:	5a                   	pop    %rdx
  40350c:	5b                   	pop    %rbx
  40350d:	5d                   	pop    %rbp
  40350e:	41 5c                	pop    %r12
  403510:	41 5d                	pop    %r13
  403512:	c3                   	ret

0000000000403513 <__init_tls>:
  403513:	41 54                	push   %r12
  403515:	44 8b 05 f0 4c 00 00 	mov    0x4cf0(%rip),%r8d        # 40820c <__default_stacksize>
  40351c:	45 31 d2             	xor    %r10d,%r10d
  40351f:	31 c9                	xor    %ecx,%ecx
  403521:	55                   	push   %rbp
  403522:	31 d2                	xor    %edx,%edx
  403524:	bd 00 00 80 00       	mov    $0x800000,%ebp
  403529:	53                   	push   %rbx
  40352a:	4c 8b 5f 18          	mov    0x18(%rdi),%r11
  40352e:	bb 00 00 00 00       	mov    $0x0,%ebx
  403533:	4c 8b 4f 28          	mov    0x28(%rdi),%r9
  403537:	4c 89 d8             	mov    %r11,%rax
  40353a:	4d 85 c9             	test   %r9,%r9
  40353d:	74 59                	je     403598 <__init_tls+0x85>
  40353f:	8b 30                	mov    (%rax),%esi
  403541:	83 fe 06             	cmp    $0x6,%esi
  403544:	75 05                	jne    40354b <__init_tls+0x38>
  403546:	4c 89 d9             	mov    %r11,%rcx
  403549:	eb 14                	jmp    40355f <__init_tls+0x4c>
  40354b:	83 fe 02             	cmp    $0x2,%esi
  40354e:	74 07                	je     403557 <__init_tls+0x44>
  403550:	83 fe 07             	cmp    $0x7,%esi
  403553:	74 37                	je     40358c <__init_tls+0x79>
  403555:	eb 0e                	jmp    403565 <__init_tls+0x52>
  403557:	48 85 db             	test   %rbx,%rbx
  40355a:	74 33                	je     40358f <__init_tls+0x7c>
  40355c:	48 89 d9             	mov    %rbx,%rcx
  40355f:	48 2b 48 10          	sub    0x10(%rax),%rcx
  403563:	eb 2a                	jmp    40358f <__init_tls+0x7c>
  403565:	81 fe 51 e5 74 64    	cmp    $0x6474e551,%esi
  40356b:	75 22                	jne    40358f <__init_tls+0x7c>
  40356d:	48 8b 70 28          	mov    0x28(%rax),%rsi
  403571:	45 89 c4             	mov    %r8d,%r12d
  403574:	4c 39 e6             	cmp    %r12,%rsi
  403577:	76 16                	jbe    40358f <__init_tls+0x7c>
  403579:	48 81 fe 00 00 80 00 	cmp    $0x800000,%rsi
  403580:	41 b2 01             	mov    $0x1,%r10b
  403583:	48 0f 47 f5          	cmova  %rbp,%rsi
  403587:	49 89 f0             	mov    %rsi,%r8
  40358a:	eb 03                	jmp    40358f <__init_tls+0x7c>
  40358c:	48 89 c2             	mov    %rax,%rdx
  40358f:	49 ff c9             	dec    %r9
  403592:	48 03 47 20          	add    0x20(%rdi),%rax
  403596:	eb a2                	jmp    40353a <__init_tls+0x27>
  403598:	45 84 d2             	test   %r10b,%r10b
  40359b:	74 07                	je     4035a4 <__init_tls+0x91>
  40359d:	44 89 05 68 4c 00 00 	mov    %r8d,0x4c68(%rip)        # 40820c <__default_stacksize>
  4035a4:	48 85 d2             	test   %rdx,%rdx
  4035a7:	74 42                	je     4035eb <__init_tls+0xd8>
  4035a9:	48 8b 42 20          	mov    0x20(%rdx),%rax
  4035ad:	48 03 4a 10          	add    0x10(%rdx),%rcx
  4035b1:	48 c7 05 14 57 00 00 	movq   $0x408ae0,0x5714(%rip)        # 408cd0 <__libc+0x10>
  4035b8:	e0 8a 40 00 
  4035bc:	48 89 0d 25 55 00 00 	mov    %rcx,0x5525(%rip)        # 408ae8 <main_tls+0x8>
  4035c3:	48 89 05 26 55 00 00 	mov    %rax,0x5526(%rip)        # 408af0 <main_tls+0x10>
  4035ca:	48 8b 42 28          	mov    0x28(%rdx),%rax
  4035ce:	48 c7 05 0f 57 00 00 	movq   $0x1,0x570f(%rip)        # 408ce8 <__libc+0x28>
  4035d5:	01 00 00 00 
  4035d9:	48 89 05 18 55 00 00 	mov    %rax,0x5518(%rip)        # 408af8 <main_tls+0x18>
  4035e0:	48 8b 42 30          	mov    0x30(%rdx),%rax
  4035e4:	48 89 05 15 55 00 00 	mov    %rax,0x5515(%rip)        # 408b00 <main_tls+0x20>
  4035eb:	48 8b 0d 06 55 00 00 	mov    0x5506(%rip),%rcx        # 408af8 <main_tls+0x18>
  4035f2:	48 8b 05 ef 54 00 00 	mov    0x54ef(%rip),%rax        # 408ae8 <main_tls+0x8>
  4035f9:	48 8b 15 00 55 00 00 	mov    0x5500(%rip),%rdx        # 408b00 <main_tls+0x20>
  403600:	48 01 c8             	add    %rcx,%rax
  403603:	48 f7 d8             	neg    %rax
  403606:	48 8d 72 ff          	lea    -0x1(%rdx),%rsi
  40360a:	48 21 f0             	and    %rsi,%rax
  40360d:	48 01 c8             	add    %rcx,%rax
  403610:	48 89 05 e1 54 00 00 	mov    %rax,0x54e1(%rip)        # 408af8 <main_tls+0x18>
  403617:	48 89 05 ea 54 00 00 	mov    %rax,0x54ea(%rip)        # 408b08 <main_tls+0x28>
  40361e:	48 83 fa 07          	cmp    $0x7,%rdx
  403622:	77 0b                	ja     40362f <__init_tls+0x11c>
  403624:	48 c7 05 d1 54 00 00 	movq   $0x8,0x54d1(%rip)        # 408b00 <main_tls+0x20>
  40362b:	08 00 00 00 
  40362f:	48 8b 15 ca 54 00 00 	mov    0x54ca(%rip),%rdx        # 408b00 <main_tls+0x20>
  403636:	bf 20 8b 40 00       	mov    $0x408b20,%edi
  40363b:	48 8d 84 10 f7 00 00 	lea    0xf7(%rax,%rdx,1),%rax
  403642:	00 
  403643:	48 89 15 96 56 00 00 	mov    %rdx,0x5696(%rip)        # 408ce0 <__libc+0x20>
  40364a:	48 83 e0 f8          	and    $0xfffffffffffffff8,%rax
  40364e:	48 89 c6             	mov    %rax,%rsi
  403651:	48 89 05 80 56 00 00 	mov    %rax,0x5680(%rip)        # 408cd8 <__libc+0x18>
  403658:	48 3d 68 01 00 00    	cmp    $0x168,%rax
  40365e:	76 1e                	jbe    40367e <__init_tls+0x16b>
  403660:	41 ba 22 00 00 00    	mov    $0x22,%r10d
  403666:	49 83 c8 ff          	or     $0xffffffffffffffff,%r8
  40366a:	45 31 c9             	xor    %r9d,%r9d
  40366d:	31 ff                	xor    %edi,%edi
  40366f:	b8 09 00 00 00       	mov    $0x9,%eax
  403674:	ba 03 00 00 00       	mov    $0x3,%edx
  403679:	0f 05                	syscall
  40367b:	48 89 c7             	mov    %rax,%rdi
  40367e:	e8 0f fe ff ff       	call   403492 <__copy_tls>
  403683:	48 89 c7             	mov    %rax,%rdi
  403686:	e8 a3 fd ff ff       	call   40342e <__init_tp>
  40368b:	85 c0                	test   %eax,%eax
  40368d:	79 01                	jns    403690 <__init_tls+0x17d>
  40368f:	f4                   	hlt
  403690:	5b                   	pop    %rbx
  403691:	5d                   	pop    %rbp
  403692:	41 5c                	pop    %r12
  403694:	c3                   	ret

0000000000403695 <__init_ssp>:
  403695:	52                   	push   %rdx
  403696:	48 85 ff             	test   %rdi,%rdi
  403699:	74 15                	je     4036b0 <__init_ssp+0x1b>
  40369b:	48 89 fe             	mov    %rdi,%rsi
  40369e:	ba 08 00 00 00       	mov    $0x8,%edx
  4036a3:	bf 30 8d 40 00       	mov    $0x408d30,%edi
  4036a8:	67 e8 a0 fb ff ff    	addr32 call 40324e <memcpy>
  4036ae:	eb 13                	jmp    4036c3 <__init_ssp+0x2e>
  4036b0:	b8 30 8d 40 00       	mov    $0x408d30,%eax
  4036b5:	48 69 c0 6d 4e c6 41 	imul   $0x41c64e6d,%rax,%rax
  4036bc:	48 89 05 6d 56 00 00 	mov    %rax,0x566d(%rip)        # 408d30 <__stack_chk_guard>
  4036c3:	48 8b 15 66 56 00 00 	mov    0x5666(%rip),%rdx        # 408d30 <__stack_chk_guard>
  4036ca:	64 48 8b 04 25 00 00 	mov    %fs:0x0,%rax
  4036d1:	00 00 
  4036d3:	48 89 50 28          	mov    %rdx,0x28(%rax)
  4036d7:	58                   	pop    %rax
  4036d8:	c3                   	ret

00000000004036d9 <__stack_chk_fail>:
  4036d9:	f4                   	hlt
  4036da:	c3                   	ret

00000000004036db <__errno_location>:
  4036db:	64 48 8b 04 25 00 00 	mov    %fs:0x0,%rax
  4036e2:	00 00 
  4036e4:	48 83 c0 3c          	add    $0x3c,%rax
  4036e8:	c3                   	ret

00000000004036e9 <__strerror_l>:
  4036e9:	31 d2                	xor    %edx,%edx
  4036eb:	0f b6 82 60 60 40 00 	movzbl 0x406060(%rdx),%eax
  4036f2:	89 d1                	mov    %edx,%ecx
  4036f4:	84 c0                	test   %al,%al
  4036f6:	74 07                	je     4036ff <__strerror_l+0x16>
  4036f8:	48 ff c2             	inc    %rdx
  4036fb:	39 f8                	cmp    %edi,%eax
  4036fd:	75 ec                	jne    4036eb <__strerror_l+0x2>
  4036ff:	bf 40 59 40 00       	mov    $0x405940,%edi
  403704:	85 c9                	test   %ecx,%ecx
  403706:	74 0d                	je     403715 <__strerror_l+0x2c>
  403708:	8a 07                	mov    (%rdi),%al
  40370a:	48 ff c7             	inc    %rdi
  40370d:	84 c0                	test   %al,%al
  40370f:	75 f7                	jne    403708 <__strerror_l+0x1f>
  403711:	ff c9                	dec    %ecx
  403713:	eb ef                	jmp    403704 <__strerror_l+0x1b>
  403715:	48 8b 76 28          	mov    0x28(%rsi),%rsi
  403719:	e9 2f 00 00 00       	jmp    40374d <__lctrans>

000000000040371e <strerror>:
  40371e:	64 48 8b 04 25 00 00 	mov    %fs:0x0,%rax
  403725:	00 00 
  403727:	48 8b b0 b0 00 00 00 	mov    0xb0(%rax),%rsi
  40372e:	e9 b6 ff ff ff       	jmp    4036e9 <__strerror_l>

0000000000403733 <_Exit>:
  403733:	48 63 ff             	movslq %edi,%rdi
  403736:	b8 e7 00 00 00       	mov    $0xe7,%eax
  40373b:	0f 05                	syscall
  40373d:	ba 3c 00 00 00       	mov    $0x3c,%edx
  403742:	48 89 d0             	mov    %rdx,%rax
  403745:	0f 05                	syscall
  403747:	eb f9                	jmp    403742 <_Exit+0xf>

0000000000403749 <__lctrans_impl>:
  403749:	48 89 f8             	mov    %rdi,%rax
  40374c:	c3                   	ret

000000000040374d <__lctrans>:
  40374d:	e9 f7 ff ff ff       	jmp    403749 <__lctrans_impl>

0000000000403752 <__lctrans_cur>:
  403752:	64 48 8b 04 25 00 00 	mov    %fs:0x0,%rax
  403759:	00 00 
  40375b:	48 8b 80 b0 00 00 00 	mov    0xb0(%rax),%rax
  403762:	48 8b 70 28          	mov    0x28(%rax),%rsi
  403766:	e9 de ff ff ff       	jmp    403749 <__lctrans_impl>

000000000040376b <__fpclassifyl>:
  40376b:	48 8b 44 24 10       	mov    0x10(%rsp),%rax
  403770:	48 8b 54 24 08       	mov    0x8(%rsp),%rdx
  403775:	66 25 ff 7f          	and    $0x7fff,%ax
  403779:	48 89 d1             	mov    %rdx,%rcx
  40377c:	48 c1 e9 3f          	shr    $0x3f,%rcx
  403780:	0f b7 f0             	movzwl %ax,%esi
  403783:	09 ce                	or     %ecx,%esi
  403785:	75 0a                	jne    403791 <__fpclassifyl+0x26>
  403787:	48 83 fa 01          	cmp    $0x1,%rdx
  40378b:	19 c0                	sbb    %eax,%eax
  40378d:	83 c0 03             	add    $0x3,%eax
  403790:	c3                   	ret
  403791:	66 3d ff 7f          	cmp    $0x7fff,%ax
  403795:	75 10                	jne    4037a7 <__fpclassifyl+0x3c>
  403797:	31 c0                	xor    %eax,%eax
  403799:	48 85 c9             	test   %rcx,%rcx
  40379c:	74 10                	je     4037ae <__fpclassifyl+0x43>
  40379e:	31 c0                	xor    %eax,%eax
  4037a0:	48 01 d2             	add    %rdx,%rdx
  4037a3:	0f 94 c0             	sete   %al
  4037a6:	c3                   	ret
  4037a7:	89 c8                	mov    %ecx,%eax
  4037a9:	f7 d8                	neg    %eax
  4037ab:	83 e0 04             	and    $0x4,%eax
  4037ae:	c3                   	ret

00000000004037af <__signbitl>:
  4037af:	8b 44 24 10          	mov    0x10(%rsp),%eax
  4037b3:	66 c1 e8 0f          	shr    $0xf,%ax
  4037b7:	0f b7 c0             	movzwl %ax,%eax
  4037ba:	c3                   	ret

00000000004037bb <frexpl>:
  4037bb:	53                   	push   %rbx
  4037bc:	48 83 ec 10          	sub    $0x10,%rsp
  4037c0:	db 6c 24 20          	fldt   0x20(%rsp)
  4037c4:	48 8b 44 24 28       	mov    0x28(%rsp),%rax
  4037c9:	89 c1                	mov    %eax,%ecx
  4037cb:	d9 c0                	fld    %st(0)
  4037cd:	db 3c 24             	fstpt  (%rsp)
  4037d0:	66 81 e1 ff 7f       	and    $0x7fff,%cx
  4037d5:	75 36                	jne    40380d <frexpl+0x52>
  4037d7:	d9 ee                	fldz
  4037d9:	d9 c9                	fxch   %st(1)
  4037db:	df e9                	fucomip %st(1),%st
  4037dd:	dd d8                	fstp   %st(0)
  4037df:	7a 02                	jp     4037e3 <frexpl+0x28>
  4037e1:	74 22                	je     403805 <frexpl+0x4a>
  4037e3:	db 6c 24 20          	fldt   0x20(%rsp)
  4037e7:	d8 0d cf 28 00 00    	fmuls  0x28cf(%rip)        # 4060bc <errid+0x5c>
  4037ed:	51                   	push   %rcx
  4037ee:	48 89 fb             	mov    %rdi,%rbx
  4037f1:	51                   	push   %rcx
  4037f2:	db 3c 24             	fstpt  (%rsp)
  4037f5:	e8 c1 ff ff ff       	call   4037bb <frexpl>
  4037fa:	83 2b 78             	subl   $0x78,(%rbx)
  4037fd:	db 7c 24 30          	fstpt  0x30(%rsp)
  403801:	5e                   	pop    %rsi
  403802:	5f                   	pop    %rdi
  403803:	eb 30                	jmp    403835 <frexpl+0x7a>
  403805:	c7 07 00 00 00 00    	movl   $0x0,(%rdi)
  40380b:	eb 28                	jmp    403835 <frexpl+0x7a>
  40380d:	dd d8                	fstp   %st(0)
  40380f:	0f b7 d1             	movzwl %cx,%edx
  403812:	66 81 f9 ff 7f       	cmp    $0x7fff,%cx
  403817:	74 1c                	je     403835 <frexpl+0x7a>
  403819:	66 25 00 80          	and    $0x8000,%ax
  40381d:	81 ea fe 3f 00 00    	sub    $0x3ffe,%edx
  403823:	66 0d fe 3f          	or     $0x3ffe,%ax
  403827:	89 17                	mov    %edx,(%rdi)
  403829:	66 89 44 24 08       	mov    %ax,0x8(%rsp)
  40382e:	db 2c 24             	fldt   (%rsp)
  403831:	db 7c 24 20          	fstpt  0x20(%rsp)
  403835:	db 6c 24 20          	fldt   0x20(%rsp)
  403839:	48 83 c4 10          	add    $0x10,%rsp
  40383d:	5b                   	pop    %rbx
  40383e:	c3                   	ret

000000000040383f <wctomb>:
  40383f:	48 85 ff             	test   %rdi,%rdi
  403842:	74 0b                	je     40384f <wctomb+0x10>
  403844:	50                   	push   %rax
  403845:	31 d2                	xor    %edx,%edx
  403847:	67 e8 3b 05 00 00    	addr32 call 403d88 <wcrtomb>
  40384d:	5a                   	pop    %rdx
  40384e:	c3                   	ret
  40384f:	31 c0                	xor    %eax,%eax
  403851:	c3                   	ret

0000000000403852 <__lockfile>:
  403852:	8b 8f 8c 00 00 00    	mov    0x8c(%rdi),%ecx
  403858:	64 48 8b 04 25 00 00 	mov    %fs:0x0,%rax
  40385f:	00 00 
  403861:	8b 50 38             	mov    0x38(%rax),%edx
  403864:	81 e1 ff ff ff bf    	and    $0xbfffffff,%ecx
  40386a:	31 c0                	xor    %eax,%eax
  40386c:	39 d1                	cmp    %edx,%ecx
  40386e:	0f 84 87 00 00 00    	je     4038fb <__lockfile+0xa9>
  403874:	4c 8d 8f 8c 00 00 00 	lea    0x8c(%rdi),%r9
  40387b:	f0 0f b1 97 8c 00 00 	lock cmpxchg %edx,0x8c(%rdi)
  403882:	00 
  403883:	85 c0                	test   %eax,%eax
  403885:	74 6f                	je     4038f6 <__lockfile+0xa4>
  403887:	81 ca 00 00 00 40    	or     $0x40000000,%edx
  40388d:	41 54                	push   %r12
  40388f:	41 bc 80 00 00 00    	mov    $0x80,%r12d
  403895:	55                   	push   %rbp
  403896:	41 89 d0             	mov    %edx,%r8d
  403899:	bd ca 00 00 00       	mov    $0xca,%ebp
  40389e:	53                   	push   %rbx
  40389f:	31 db                	xor    %ebx,%ebx
  4038a1:	89 d8                	mov    %ebx,%eax
  4038a3:	f0 45 0f b1 01       	lock cmpxchg %r8d,(%r9)
  4038a8:	89 c1                	mov    %eax,%ecx
  4038aa:	85 c0                	test   %eax,%eax
  4038ac:	75 0a                	jne    4038b8 <__lockfile+0x66>
  4038ae:	5b                   	pop    %rbx
  4038af:	b8 01 00 00 00       	mov    $0x1,%eax
  4038b4:	5d                   	pop    %rbp
  4038b5:	41 5c                	pop    %r12
  4038b7:	c3                   	ret
  4038b8:	89 ca                	mov    %ecx,%edx
  4038ba:	81 ca 00 00 00 40    	or     $0x40000000,%edx
  4038c0:	0f ba e1 1e          	bt     $0x1e,%ecx
  4038c4:	73 23                	jae    4038e9 <__lockfile+0x97>
  4038c6:	48 63 d2             	movslq %edx,%rdx
  4038c9:	45 31 d2             	xor    %r10d,%r10d
  4038cc:	48 89 e8             	mov    %rbp,%rax
  4038cf:	4c 89 cf             	mov    %r9,%rdi
  4038d2:	4c 89 e6             	mov    %r12,%rsi
  4038d5:	0f 05                	syscall
  4038d7:	48 83 f8 da          	cmp    $0xffffffffffffffda,%rax
  4038db:	75 c4                	jne    4038a1 <__lockfile+0x4f>
  4038dd:	45 31 d2             	xor    %r10d,%r10d
  4038e0:	31 f6                	xor    %esi,%esi
  4038e2:	48 89 e8             	mov    %rbp,%rax
  4038e5:	0f 05                	syscall
  4038e7:	eb b8                	jmp    4038a1 <__lockfile+0x4f>
  4038e9:	89 c8                	mov    %ecx,%eax
  4038eb:	f0 41 0f b1 11       	lock cmpxchg %edx,(%r9)
  4038f0:	39 c8                	cmp    %ecx,%eax
  4038f2:	75 ad                	jne    4038a1 <__lockfile+0x4f>
  4038f4:	eb d0                	jmp    4038c6 <__lockfile+0x74>
  4038f6:	b8 01 00 00 00       	mov    $0x1,%eax
  4038fb:	c3                   	ret

00000000004038fc <__unlockfile>:
  4038fc:	4c 8d 8f 8c 00 00 00 	lea    0x8c(%rdi),%r9
  403903:	31 c0                	xor    %eax,%eax
  403905:	87 87 8c 00 00 00    	xchg   %eax,0x8c(%rdi)
  40390b:	0f ba e0 1e          	bt     $0x1e,%eax
  40390f:	73 26                	jae    403937 <__unlockfile+0x3b>
  403911:	41 b8 ca 00 00 00    	mov    $0xca,%r8d
  403917:	ba 01 00 00 00       	mov    $0x1,%edx
  40391c:	be 81 00 00 00       	mov    $0x81,%esi
  403921:	4c 89 cf             	mov    %r9,%rdi
  403924:	4c 89 c0             	mov    %r8,%rax
  403927:	0f 05                	syscall
  403929:	48 83 f8 da          	cmp    $0xffffffffffffffda,%rax
  40392d:	75 08                	jne    403937 <__unlockfile+0x3b>
  40392f:	4c 89 c0             	mov    %r8,%rax
  403932:	48 89 d6             	mov    %rdx,%rsi
  403935:	0f 05                	syscall
  403937:	c3                   	ret

0000000000403938 <__overflow>:
  403938:	53                   	push   %rbx
  403939:	48 89 fb             	mov    %rdi,%rbx
  40393c:	48 83 ec 10          	sub    $0x10,%rsp
  403940:	48 83 7f 20 00       	cmpq   $0x0,0x20(%rdi)
  403945:	40 88 74 24 0f       	mov    %sil,0xf(%rsp)
  40394a:	74 0c                	je     403958 <__overflow+0x20>
  40394c:	48 8b 53 28          	mov    0x28(%rbx),%rdx
  403950:	48 3b 53 20          	cmp    0x20(%rbx),%rdx
  403954:	75 10                	jne    403966 <__overflow+0x2e>
  403956:	eb 27                	jmp    40397f <__overflow+0x47>
  403958:	e8 70 01 00 00       	call   403acd <__towrite>
  40395d:	85 c0                	test   %eax,%eax
  40395f:	74 eb                	je     40394c <__overflow+0x14>
  403961:	83 c8 ff             	or     $0xffffffff,%eax
  403964:	eb 33                	jmp    403999 <__overflow+0x61>
  403966:	0f b6 44 24 0f       	movzbl 0xf(%rsp),%eax
  40396b:	3b 83 90 00 00 00    	cmp    0x90(%rbx),%eax
  403971:	74 0c                	je     40397f <__overflow+0x47>
  403973:	48 8d 72 01          	lea    0x1(%rdx),%rsi
  403977:	48 89 73 28          	mov    %rsi,0x28(%rbx)
  40397b:	88 02                	mov    %al,(%rdx)
  40397d:	eb 1a                	jmp    403999 <__overflow+0x61>
  40397f:	ba 01 00 00 00       	mov    $0x1,%edx
  403984:	48 8d 74 24 0f       	lea    0xf(%rsp),%rsi
  403989:	48 89 df             	mov    %rbx,%rdi
  40398c:	ff 53 48             	call   *0x48(%rbx)
  40398f:	48 ff c8             	dec    %rax
  403992:	75 cd                	jne    403961 <__overflow+0x29>
  403994:	0f b6 44 24 0f       	movzbl 0xf(%rsp),%eax
  403999:	48 83 c4 10          	add    $0x10,%rsp
  40399d:	5b                   	pop    %rbx
  40399e:	c3                   	ret

000000000040399f <__aio_close>:
  40399f:	89 f8                	mov    %edi,%eax
  4039a1:	c3                   	ret

00000000004039a2 <__stdio_close>:
  4039a2:	50                   	push   %rax
  4039a3:	8b 7f 78             	mov    0x78(%rdi),%edi
  4039a6:	e8 f4 ff ff ff       	call   40399f <__aio_close>
  4039ab:	48 63 f8             	movslq %eax,%rdi
  4039ae:	b8 03 00 00 00       	mov    $0x3,%eax
  4039b3:	0f 05                	syscall
  4039b5:	48 89 c7             	mov    %rax,%rdi
  4039b8:	e8 a3 03 00 00       	call   403d60 <__syscall_ret>
  4039bd:	5a                   	pop    %rdx
  4039be:	c3                   	ret

00000000004039bf <__stdio_read>:
  4039bf:	41 54                	push   %r12
  4039c1:	31 c0                	xor    %eax,%eax
  4039c3:	49 89 f4             	mov    %rsi,%r12
  4039c6:	55                   	push   %rbp
  4039c7:	48 89 d5             	mov    %rdx,%rbp
  4039ca:	53                   	push   %rbx
  4039cb:	48 89 e9             	mov    %rbp,%rcx
  4039ce:	48 89 fb             	mov    %rdi,%rbx
  4039d1:	48 83 ec 20          	sub    $0x20,%rsp
  4039d5:	48 8b 57 60          	mov    0x60(%rdi),%rdx
  4039d9:	48 89 34 24          	mov    %rsi,(%rsp)
  4039dd:	48 8b 77 58          	mov    0x58(%rdi),%rsi
  4039e1:	48 85 d2             	test   %rdx,%rdx
  4039e4:	48 89 54 24 18       	mov    %rdx,0x18(%rsp)
  4039e9:	48 63 7f 78          	movslq 0x78(%rdi),%rdi
  4039ed:	0f 95 c0             	setne  %al
  4039f0:	48 89 74 24 10       	mov    %rsi,0x10(%rsp)
  4039f5:	48 29 c1             	sub    %rax,%rcx
  4039f8:	48 89 4c 24 08       	mov    %rcx,0x8(%rsp)
  4039fd:	48 89 c8             	mov    %rcx,%rax
  403a00:	74 0d                	je     403a0f <__stdio_read+0x50>
  403a02:	48 89 e6             	mov    %rsp,%rsi
  403a05:	b8 13 00 00 00       	mov    $0x13,%eax
  403a0a:	ba 02 00 00 00       	mov    $0x2,%edx
  403a0f:	0f 05                	syscall
  403a11:	48 89 c7             	mov    %rax,%rdi
  403a14:	e8 47 03 00 00       	call   403d60 <__syscall_ret>
  403a19:	48 85 c0             	test   %rax,%rax
  403a1c:	7f 12                	jg     403a30 <__stdio_read+0x71>
  403a1e:	48 83 f8 01          	cmp    $0x1,%rax
  403a22:	19 c0                	sbb    %eax,%eax
  403a24:	31 ed                	xor    %ebp,%ebp
  403a26:	83 e0 f0             	and    $0xfffffff0,%eax
  403a29:	83 c0 20             	add    $0x20,%eax
  403a2c:	09 03                	or     %eax,(%rbx)
  403a2e:	eb 37                	jmp    403a67 <__stdio_read+0xa8>
  403a30:	48 8b 4c 24 08       	mov    0x8(%rsp),%rcx
  403a35:	48 39 c1             	cmp    %rax,%rcx
  403a38:	73 2a                	jae    403a64 <__stdio_read+0xa5>
  403a3a:	48 8b 53 58          	mov    0x58(%rbx),%rdx
  403a3e:	48 29 c8             	sub    %rcx,%rax
  403a41:	48 01 d0             	add    %rdx,%rax
  403a44:	48 83 7b 60 00       	cmpq   $0x0,0x60(%rbx)
  403a49:	48 89 53 08          	mov    %rdx,0x8(%rbx)
  403a4d:	48 89 43 10          	mov    %rax,0x10(%rbx)
  403a51:	74 14                	je     403a67 <__stdio_read+0xa8>
  403a53:	48 8d 42 01          	lea    0x1(%rdx),%rax
  403a57:	48 89 43 08          	mov    %rax,0x8(%rbx)
  403a5b:	8a 02                	mov    (%rdx),%al
  403a5d:	41 88 44 2c ff       	mov    %al,-0x1(%r12,%rbp,1)
  403a62:	eb 03                	jmp    403a67 <__stdio_read+0xa8>
  403a64:	48 89 c5             	mov    %rax,%rbp
  403a67:	48 83 c4 20          	add    $0x20,%rsp
  403a6b:	48 89 e8             	mov    %rbp,%rax
  403a6e:	5b                   	pop    %rbx
  403a6f:	5d                   	pop    %rbp
  403a70:	41 5c                	pop    %r12
  403a72:	c3                   	ret

0000000000403a73 <__stdio_seek>:
  403a73:	8b 7f 78             	mov    0x78(%rdi),%edi
  403a76:	e9 ca 02 00 00       	jmp    403d45 <__lseek>

0000000000403a7b <__stdout_write>:
  403a7b:	48 83 ec 18          	sub    $0x18,%rsp
  403a7f:	49 89 f8             	mov    %rdi,%r8
  403a82:	49 89 f1             	mov    %rsi,%r9
  403a85:	49 89 d2             	mov    %rdx,%r10
  403a88:	48 c7 47 48 26 3f 40 	movq   $0x403f26,0x48(%rdi)
  403a8f:	00 
  403a90:	f6 07 40             	testb  $0x40,(%rdi)
  403a93:	75 25                	jne    403aba <__stdout_write+0x3f>
  403a95:	48 63 7f 78          	movslq 0x78(%rdi),%rdi
  403a99:	48 8d 54 24 08       	lea    0x8(%rsp),%rdx
  403a9e:	b8 10 00 00 00       	mov    $0x10,%eax
  403aa3:	be 13 54 00 00       	mov    $0x5413,%esi
  403aa8:	0f 05                	syscall
  403aaa:	48 85 c0             	test   %rax,%rax
  403aad:	74 0b                	je     403aba <__stdout_write+0x3f>
  403aaf:	41 c7 80 90 00 00 00 	movl   $0xffffffff,0x90(%r8)
  403ab6:	ff ff ff ff 
  403aba:	4c 89 d2             	mov    %r10,%rdx
  403abd:	4c 89 ce             	mov    %r9,%rsi
  403ac0:	4c 89 c7             	mov    %r8,%rdi
  403ac3:	e8 5e 04 00 00       	call   403f26 <__stdio_write>
  403ac8:	48 83 c4 18          	add    $0x18,%rsp
  403acc:	c3                   	ret

0000000000403acd <__towrite>:
  403acd:	8b 97 88 00 00 00    	mov    0x88(%rdi),%edx
  403ad3:	8d 42 ff             	lea    -0x1(%rdx),%eax
  403ad6:	09 d0                	or     %edx,%eax
  403ad8:	89 87 88 00 00 00    	mov    %eax,0x88(%rdi)
  403ade:	8b 07                	mov    (%rdi),%eax
  403ae0:	a8 08                	test   $0x8,%al
  403ae2:	74 09                	je     403aed <__towrite+0x20>
  403ae4:	83 c8 20             	or     $0x20,%eax
  403ae7:	89 07                	mov    %eax,(%rdi)
  403ae9:	83 c8 ff             	or     $0xffffffff,%eax
  403aec:	c3                   	ret
  403aed:	48 8b 47 58          	mov    0x58(%rdi),%rax
  403af1:	48 c7 47 10 00 00 00 	movq   $0x0,0x10(%rdi)
  403af8:	00 
  403af9:	48 c7 47 08 00 00 00 	movq   $0x0,0x8(%rdi)
  403b00:	00 
  403b01:	48 89 47 38          	mov    %rax,0x38(%rdi)
  403b05:	48 89 47 28          	mov    %rax,0x28(%rdi)
  403b09:	48 03 47 60          	add    0x60(%rdi),%rax
  403b0d:	48 89 47 20          	mov    %rax,0x20(%rdi)
  403b11:	31 c0                	xor    %eax,%eax
  403b13:	c3                   	ret

0000000000403b14 <__towrite_needs_stdio_exit>:
  403b14:	e9 cc 03 00 00       	jmp    403ee5 <__stdio_exit>

0000000000403b19 <__uflow>:
  403b19:	53                   	push   %rbx
  403b1a:	48 89 fb             	mov    %rdi,%rbx
  403b1d:	48 83 ec 10          	sub    $0x10,%rsp
  403b21:	e8 dd 04 00 00       	call   404003 <__toread>
  403b26:	85 c0                	test   %eax,%eax
  403b28:	74 05                	je     403b2f <__uflow+0x16>
  403b2a:	83 c8 ff             	or     $0xffffffff,%eax
  403b2d:	eb 1a                	jmp    403b49 <__uflow+0x30>
  403b2f:	ba 01 00 00 00       	mov    $0x1,%edx
  403b34:	48 8d 74 24 0f       	lea    0xf(%rsp),%rsi
  403b39:	48 89 df             	mov    %rbx,%rdi
  403b3c:	ff 53 40             	call   *0x40(%rbx)
  403b3f:	48 ff c8             	dec    %rax
  403b42:	75 e6                	jne    403b2a <__uflow+0x11>
  403b44:	0f b6 44 24 0f       	movzbl 0xf(%rsp),%eax
  403b49:	48 83 c4 10          	add    $0x10,%rsp
  403b4d:	5b                   	pop    %rbx
  403b4e:	c3                   	ret

0000000000403b4f <fputs>:
  403b4f:	41 54                	push   %r12
  403b51:	49 89 f4             	mov    %rsi,%r12
  403b54:	55                   	push   %rbp
  403b55:	48 89 fd             	mov    %rdi,%rbp
  403b58:	53                   	push   %rbx
  403b59:	67 e8 61 01 00 00    	addr32 call 403cc0 <strlen>
  403b5f:	4c 89 e1             	mov    %r12,%rcx
  403b62:	48 89 ef             	mov    %rbp,%rdi
  403b65:	be 01 00 00 00       	mov    $0x1,%esi
  403b6a:	48 89 c2             	mov    %rax,%rdx
  403b6d:	48 89 c3             	mov    %rax,%rbx
  403b70:	67 e8 c0 00 00 00    	addr32 call 403c36 <fwrite>
  403b76:	48 39 d8             	cmp    %rbx,%rax
  403b79:	5b                   	pop    %rbx
  403b7a:	5d                   	pop    %rbp
  403b7b:	0f 95 c0             	setne  %al
  403b7e:	41 5c                	pop    %r12
  403b80:	0f b6 c0             	movzbl %al,%eax
  403b83:	f7 d8                	neg    %eax
  403b85:	c3                   	ret

0000000000403b86 <__fwritex>:
  403b86:	41 55                	push   %r13
  403b88:	49 89 fd             	mov    %rdi,%r13
  403b8b:	41 54                	push   %r12
  403b8d:	49 89 f4             	mov    %rsi,%r12
  403b90:	55                   	push   %rbp
  403b91:	53                   	push   %rbx
  403b92:	48 89 d3             	mov    %rdx,%rbx
  403b95:	41 50                	push   %r8
  403b97:	48 83 7a 20 00       	cmpq   $0x0,0x20(%rdx)
  403b9c:	74 23                	je     403bc1 <__fwritex+0x3b>
  403b9e:	48 8b 43 20          	mov    0x20(%rbx),%rax
  403ba2:	48 2b 43 28          	sub    0x28(%rbx),%rax
  403ba6:	4c 39 e0             	cmp    %r12,%rax
  403ba9:	73 26                	jae    403bd1 <__fwritex+0x4b>
  403bab:	48 8b 43 48          	mov    0x48(%rbx),%rax
  403baf:	4c 89 e2             	mov    %r12,%rdx
  403bb2:	59                   	pop    %rcx
  403bb3:	4c 89 ee             	mov    %r13,%rsi
  403bb6:	48 89 df             	mov    %rbx,%rdi
  403bb9:	5b                   	pop    %rbx
  403bba:	5d                   	pop    %rbp
  403bbb:	41 5c                	pop    %r12
  403bbd:	41 5d                	pop    %r13
  403bbf:	ff e0                	jmp    *%rax
  403bc1:	48 89 d7             	mov    %rdx,%rdi
  403bc4:	e8 04 ff ff ff       	call   403acd <__towrite>
  403bc9:	85 c0                	test   %eax,%eax
  403bcb:	74 d1                	je     403b9e <__fwritex+0x18>
  403bcd:	31 c0                	xor    %eax,%eax
  403bcf:	eb 5d                	jmp    403c2e <__fwritex+0xa8>
  403bd1:	83 bb 90 00 00 00 00 	cmpl   $0x0,0x90(%rbx)
  403bd8:	4c 89 e5             	mov    %r12,%rbp
  403bdb:	78 19                	js     403bf6 <__fwritex+0x70>
  403bdd:	48 85 ed             	test   %rbp,%rbp
  403be0:	74 11                	je     403bf3 <__fwritex+0x6d>
  403be2:	41 80 7c 2d ff 0a    	cmpb   $0xa,-0x1(%r13,%rbp,1)
  403be8:	48 8d 45 ff          	lea    -0x1(%rbp),%rax
  403bec:	74 21                	je     403c0f <__fwritex+0x89>
  403bee:	48 89 c5             	mov    %rax,%rbp
  403bf1:	eb ea                	jmp    403bdd <__fwritex+0x57>
  403bf3:	4c 89 e5             	mov    %r12,%rbp
  403bf6:	48 8b 7b 28          	mov    0x28(%rbx),%rdi
  403bfa:	48 89 ea             	mov    %rbp,%rdx
  403bfd:	4c 89 ee             	mov    %r13,%rsi
  403c00:	67 e8 48 f6 ff ff    	addr32 call 40324e <memcpy>
  403c06:	48 01 6b 28          	add    %rbp,0x28(%rbx)
  403c0a:	4c 89 e0             	mov    %r12,%rax
  403c0d:	eb 1f                	jmp    403c2e <__fwritex+0xa8>
  403c0f:	48 89 ea             	mov    %rbp,%rdx
  403c12:	4c 89 ee             	mov    %r13,%rsi
  403c15:	48 89 df             	mov    %rbx,%rdi
  403c18:	ff 53 48             	call   *0x48(%rbx)
  403c1b:	48 39 c5             	cmp    %rax,%rbp
  403c1e:	77 0e                	ja     403c2e <__fwritex+0xa8>
  403c20:	4c 89 e0             	mov    %r12,%rax
  403c23:	49 01 ed             	add    %rbp,%r13
  403c26:	48 29 e8             	sub    %rbp,%rax
  403c29:	48 89 c5             	mov    %rax,%rbp
  403c2c:	eb c8                	jmp    403bf6 <__fwritex+0x70>
  403c2e:	5a                   	pop    %rdx
  403c2f:	5b                   	pop    %rbx
  403c30:	5d                   	pop    %rbp
  403c31:	41 5c                	pop    %r12
  403c33:	41 5d                	pop    %r13
  403c35:	c3                   	ret

0000000000403c36 <fwrite>:
  403c36:	41 57                	push   %r15
  403c38:	b8 00 00 00 00       	mov    $0x0,%eax
  403c3d:	41 56                	push   %r14
  403c3f:	49 89 f6             	mov    %rsi,%r14
  403c42:	41 55                	push   %r13
  403c44:	4c 0f af f2          	imul   %rdx,%r14
  403c48:	48 85 f6             	test   %rsi,%rsi
  403c4b:	49 89 cd             	mov    %rcx,%r13
  403c4e:	41 54                	push   %r12
  403c50:	49 89 fc             	mov    %rdi,%r12
  403c53:	55                   	push   %rbp
  403c54:	48 89 f5             	mov    %rsi,%rbp
  403c57:	53                   	push   %rbx
  403c58:	48 89 d3             	mov    %rdx,%rbx
  403c5b:	48 0f 44 d8          	cmove  %rax,%rbx
  403c5f:	41 50                	push   %r8
  403c61:	8b 81 8c 00 00 00    	mov    0x8c(%rcx),%eax
  403c67:	45 31 ff             	xor    %r15d,%r15d
  403c6a:	85 c0                	test   %eax,%eax
  403c6c:	78 0b                	js     403c79 <fwrite+0x43>
  403c6e:	48 89 cf             	mov    %rcx,%rdi
  403c71:	e8 dc fb ff ff       	call   403852 <__lockfile>
  403c76:	41 89 c7             	mov    %eax,%r15d
  403c79:	4c 89 e7             	mov    %r12,%rdi
  403c7c:	4c 89 ea             	mov    %r13,%rdx
  403c7f:	4c 89 f6             	mov    %r14,%rsi
  403c82:	e8 ff fe ff ff       	call   403b86 <__fwritex>
  403c87:	49 89 c4             	mov    %rax,%r12
  403c8a:	45 85 ff             	test   %r15d,%r15d
  403c8d:	74 08                	je     403c97 <fwrite+0x61>
  403c8f:	4c 89 ef             	mov    %r13,%rdi
  403c92:	e8 65 fc ff ff       	call   4038fc <__unlockfile>
  403c97:	4d 39 e6             	cmp    %r12,%r14
  403c9a:	74 0b                	je     403ca7 <fwrite+0x71>
  403c9c:	4c 89 e0             	mov    %r12,%rax
  403c9f:	31 d2                	xor    %edx,%edx
  403ca1:	48 f7 f5             	div    %rbp
  403ca4:	48 89 c3             	mov    %rax,%rbx
  403ca7:	5a                   	pop    %rdx
  403ca8:	48 89 d8             	mov    %rbx,%rax
  403cab:	5b                   	pop    %rbx
  403cac:	5d                   	pop    %rbp
  403cad:	41 5c                	pop    %r12
  403caf:	41 5d                	pop    %r13
  403cb1:	41 5e                	pop    %r14
  403cb3:	41 5f                	pop    %r15
  403cb5:	c3                   	ret
  403cb6:	66 2e 0f 1f 84 00 00 	cs nopw 0x0(%rax,%rax,1)
  403cbd:	00 00 00 

0000000000403cc0 <strlen>:
  403cc0:	40 f6 c7 07          	test   $0x7,%dil
  403cc4:	74 67                	je     403d2d <strlen+0x6d>
  403cc6:	80 3f 00             	cmpb   $0x0,(%rdi)
  403cc9:	74 67                	je     403d32 <strlen+0x72>
  403ccb:	48 89 f8             	mov    %rdi,%rax
  403cce:	eb 05                	jmp    403cd5 <strlen+0x15>
  403cd0:	80 38 00             	cmpb   $0x0,(%rax)
  403cd3:	74 54                	je     403d29 <strlen+0x69>
  403cd5:	48 83 c0 01          	add    $0x1,%rax
  403cd9:	a8 07                	test   $0x7,%al
  403cdb:	75 f3                	jne    403cd0 <strlen+0x10>
  403cdd:	49 b8 ff fe fe fe fe 	movabs $0xfefefefefefefeff,%r8
  403ce4:	fe fe fe 
  403ce7:	48 8b 10             	mov    (%rax),%rdx
  403cea:	48 be 80 80 80 80 80 	movabs $0x8080808080808080,%rsi
  403cf1:	80 80 80 
  403cf4:	4a 8d 0c 02          	lea    (%rdx,%r8,1),%rcx
  403cf8:	48 f7 d2             	not    %rdx
  403cfb:	48 21 ca             	and    %rcx,%rdx
  403cfe:	48 85 f2             	test   %rsi,%rdx
  403d01:	75 21                	jne    403d24 <strlen+0x64>
  403d03:	0f 1f 44 00 00       	nopl   0x0(%rax,%rax,1)
  403d08:	48 83 c0 08          	add    $0x8,%rax
  403d0c:	48 8b 10             	mov    (%rax),%rdx
  403d0f:	4a 8d 0c 02          	lea    (%rdx,%r8,1),%rcx
  403d13:	48 f7 d2             	not    %rdx
  403d16:	48 21 ca             	and    %rcx,%rdx
  403d19:	48 85 f2             	test   %rsi,%rdx
  403d1c:	74 ea                	je     403d08 <strlen+0x48>
  403d1e:	eb 04                	jmp    403d24 <strlen+0x64>
  403d20:	48 83 c0 01          	add    $0x1,%rax
  403d24:	80 38 00             	cmpb   $0x0,(%rax)
  403d27:	75 f7                	jne    403d20 <strlen+0x60>
  403d29:	48 29 f8             	sub    %rdi,%rax
  403d2c:	c3                   	ret
  403d2d:	48 89 f8             	mov    %rdi,%rax
  403d30:	eb ab                	jmp    403cdd <strlen+0x1d>
  403d32:	31 c0                	xor    %eax,%eax
  403d34:	c3                   	ret

0000000000403d35 <__set_thread_area>:
  403d35:	48 89 fe             	mov    %rdi,%rsi
  403d38:	bf 02 10 00 00       	mov    $0x1002,%edi
  403d3d:	b8 9e 00 00 00       	mov    $0x9e,%eax
  403d42:	0f 05                	syscall
  403d44:	c3                   	ret

0000000000403d45 <__lseek>:
  403d45:	48 63 ff             	movslq %edi,%rdi
  403d48:	48 63 d2             	movslq %edx,%rdx
  403d4b:	b8 08 00 00 00       	mov    $0x8,%eax
  403d50:	0f 05                	syscall
  403d52:	48 89 c7             	mov    %rax,%rdi
  403d55:	e9 06 00 00 00       	jmp    403d60 <__syscall_ret>
  403d5a:	66 0f 1f 44 00 00    	nopw   0x0(%rax,%rax,1)

0000000000403d60 <__syscall_ret>:
  403d60:	48 81 ff 00 f0 ff ff 	cmp    $0xfffffffffffff000,%rdi
  403d67:	77 07                	ja     403d70 <__syscall_ret+0x10>
  403d69:	48 89 f8             	mov    %rdi,%rax
  403d6c:	c3                   	ret
  403d6d:	0f 1f 00             	nopl   (%rax)
  403d70:	53                   	push   %rbx
  403d71:	48 89 fb             	mov    %rdi,%rbx
  403d74:	e8 62 f9 ff ff       	call   4036db <__errno_location>
  403d79:	89 df                	mov    %ebx,%edi
  403d7b:	f7 df                	neg    %edi
  403d7d:	89 38                	mov    %edi,(%rax)
  403d7f:	48 c7 c0 ff ff ff ff 	mov    $0xffffffffffffffff,%rax
  403d86:	5b                   	pop    %rbx
  403d87:	c3                   	ret

0000000000403d88 <wcrtomb>:
  403d88:	b8 01 00 00 00       	mov    $0x1,%eax
  403d8d:	48 85 ff             	test   %rdi,%rdi
  403d90:	0f 84 00 01 00 00    	je     403e96 <wcrtomb+0x10e>
  403d96:	83 fe 7f             	cmp    $0x7f,%esi
  403d99:	0f 86 ef 00 00 00    	jbe    403e8e <wcrtomb+0x106>
  403d9f:	51                   	push   %rcx
  403da0:	89 f0                	mov    %esi,%eax
  403da2:	48 89 fa             	mov    %rdi,%rdx
  403da5:	64 48 8b 0c 25 00 00 	mov    %fs:0x0,%rcx
  403dac:	00 00 
  403dae:	48 8b 89 b0 00 00 00 	mov    0xb0(%rcx),%rcx
  403db5:	48 83 39 00          	cmpq   $0x0,(%rcx)
  403db9:	75 1b                	jne    403dd6 <wcrtomb+0x4e>
  403dbb:	2d 80 df 00 00       	sub    $0xdf80,%eax
  403dc0:	83 f8 7f             	cmp    $0x7f,%eax
  403dc3:	0f 87 b4 00 00 00    	ja     403e7d <wcrtomb+0xf5>
  403dc9:	40 88 37             	mov    %sil,(%rdi)
  403dcc:	b8 01 00 00 00       	mov    $0x1,%eax
  403dd1:	e9 b6 00 00 00       	jmp    403e8c <wcrtomb+0x104>
  403dd6:	81 fe ff 07 00 00    	cmp    $0x7ff,%esi
  403ddc:	77 1d                	ja     403dfb <wcrtomb+0x73>
  403dde:	89 f1                	mov    %esi,%ecx
  403de0:	83 e0 3f             	and    $0x3f,%eax
  403de3:	c1 f9 06             	sar    $0x6,%ecx
  403de6:	83 c8 80             	or     $0xffffff80,%eax
  403de9:	83 c9 c0             	or     $0xffffffc0,%ecx
  403dec:	88 47 01             	mov    %al,0x1(%rdi)
  403def:	b8 02 00 00 00       	mov    $0x2,%eax
  403df4:	88 0f                	mov    %cl,(%rdi)
  403df6:	e9 91 00 00 00       	jmp    403e8c <wcrtomb+0x104>
  403dfb:	8d 8e 00 20 ff ff    	lea    -0xe000(%rsi),%ecx
  403e01:	81 f9 ff 1f 00 00    	cmp    $0x1fff,%ecx
  403e07:	76 08                	jbe    403e11 <wcrtomb+0x89>
  403e09:	81 fe ff d7 00 00    	cmp    $0xd7ff,%esi
  403e0f:	77 28                	ja     403e39 <wcrtomb+0xb1>
  403e11:	89 c1                	mov    %eax,%ecx
  403e13:	c1 f9 0c             	sar    $0xc,%ecx
  403e16:	83 c9 e0             	or     $0xffffffe0,%ecx
  403e19:	88 0a                	mov    %cl,(%rdx)
  403e1b:	89 c1                	mov    %eax,%ecx
  403e1d:	83 e0 3f             	and    $0x3f,%eax
  403e20:	c1 f9 06             	sar    $0x6,%ecx
  403e23:	83 c8 80             	or     $0xffffff80,%eax
  403e26:	83 e1 3f             	and    $0x3f,%ecx
  403e29:	88 42 02             	mov    %al,0x2(%rdx)
  403e2c:	b8 03 00 00 00       	mov    $0x3,%eax
  403e31:	83 c9 80             	or     $0xffffff80,%ecx
  403e34:	88 4a 01             	mov    %cl,0x1(%rdx)
  403e37:	eb 53                	jmp    403e8c <wcrtomb+0x104>
  403e39:	8d 8e 00 00 ff ff    	lea    -0x10000(%rsi),%ecx
  403e3f:	81 f9 ff ff 0f 00    	cmp    $0xfffff,%ecx
  403e45:	77 36                	ja     403e7d <wcrtomb+0xf5>
  403e47:	89 f1                	mov    %esi,%ecx
  403e49:	83 e0 3f             	and    $0x3f,%eax
  403e4c:	c1 f9 12             	sar    $0x12,%ecx
  403e4f:	83 c8 80             	or     $0xffffff80,%eax
  403e52:	83 c9 f0             	or     $0xfffffff0,%ecx
  403e55:	88 47 03             	mov    %al,0x3(%rdi)
  403e58:	b8 04 00 00 00       	mov    $0x4,%eax
  403e5d:	88 0f                	mov    %cl,(%rdi)
  403e5f:	89 f1                	mov    %esi,%ecx
  403e61:	c1 f9 0c             	sar    $0xc,%ecx
  403e64:	83 e1 3f             	and    $0x3f,%ecx
  403e67:	83 c9 80             	or     $0xffffff80,%ecx
  403e6a:	88 4f 01             	mov    %cl,0x1(%rdi)
  403e6d:	89 f1                	mov    %esi,%ecx
  403e6f:	c1 f9 06             	sar    $0x6,%ecx
  403e72:	83 e1 3f             	and    $0x3f,%ecx
  403e75:	83 c9 80             	or     $0xffffff80,%ecx
  403e78:	88 4f 02             	mov    %cl,0x2(%rdi)
  403e7b:	eb 0f                	jmp    403e8c <wcrtomb+0x104>
  403e7d:	e8 59 f8 ff ff       	call   4036db <__errno_location>
  403e82:	c7 00 54 00 00 00    	movl   $0x54,(%rax)
  403e88:	48 83 c8 ff          	or     $0xffffffffffffffff,%rax
  403e8c:	5a                   	pop    %rdx
  403e8d:	c3                   	ret
  403e8e:	40 88 37             	mov    %sil,(%rdi)
  403e91:	b8 01 00 00 00       	mov    $0x1,%eax
  403e96:	c3                   	ret

0000000000403e97 <close_file>:
  403e97:	48 85 ff             	test   %rdi,%rdi
  403e9a:	74 48                	je     403ee4 <close_file+0x4d>
  403e9c:	53                   	push   %rbx
  403e9d:	8b 87 8c 00 00 00    	mov    0x8c(%rdi),%eax
  403ea3:	48 89 fb             	mov    %rdi,%rbx
  403ea6:	85 c0                	test   %eax,%eax
  403ea8:	78 05                	js     403eaf <close_file+0x18>
  403eaa:	e8 a3 f9 ff ff       	call   403852 <__lockfile>
  403eaf:	48 8b 43 38          	mov    0x38(%rbx),%rax
  403eb3:	48 39 43 28          	cmp    %rax,0x28(%rbx)
  403eb7:	74 0a                	je     403ec3 <close_file+0x2c>
  403eb9:	31 d2                	xor    %edx,%edx
  403ebb:	31 f6                	xor    %esi,%esi
  403ebd:	48 89 df             	mov    %rbx,%rdi
  403ec0:	ff 53 48             	call   *0x48(%rbx)
  403ec3:	48 8b 73 08          	mov    0x8(%rbx),%rsi
  403ec7:	48 8b 43 10          	mov    0x10(%rbx),%rax
  403ecb:	48 39 c6             	cmp    %rax,%rsi
  403ece:	74 12                	je     403ee2 <close_file+0x4b>
  403ed0:	48 29 c6             	sub    %rax,%rsi
  403ed3:	48 89 df             	mov    %rbx,%rdi
  403ed6:	48 8b 43 50          	mov    0x50(%rbx),%rax
  403eda:	ba 01 00 00 00       	mov    $0x1,%edx
  403edf:	5b                   	pop    %rbx
  403ee0:	ff e0                	jmp    *%rax
  403ee2:	5b                   	pop    %rbx
  403ee3:	c3                   	ret
  403ee4:	c3                   	ret

0000000000403ee5 <__stdio_exit>:
  403ee5:	53                   	push   %rbx
  403ee6:	e8 5c d7 ff ff       	call   401647 <__ofl_lock>
  403eeb:	48 8b 18             	mov    (%rax),%rbx
  403eee:	48 85 db             	test   %rbx,%rbx
  403ef1:	74 0e                	je     403f01 <__stdio_exit+0x1c>
  403ef3:	48 89 df             	mov    %rbx,%rdi
  403ef6:	e8 9c ff ff ff       	call   403e97 <close_file>
  403efb:	48 8b 5b 70          	mov    0x70(%rbx),%rbx
  403eff:	eb ed                	jmp    403eee <__stdio_exit+0x9>
  403f01:	48 8b 3d 08 41 00 00 	mov    0x4108(%rip),%rdi        # 408010 <__stdin_used>
  403f08:	e8 8a ff ff ff       	call   403e97 <close_file>
  403f0d:	48 8b 3d f4 41 00 00 	mov    0x41f4(%rip),%rdi        # 408108 <__stdout_used>
  403f14:	e8 7e ff ff ff       	call   403e97 <close_file>
  403f19:	48 8b 3d 60 43 00 00 	mov    0x4360(%rip),%rdi        # 408280 <__stderr_used>
  403f20:	5b                   	pop    %rbx
  403f21:	e9 71 ff ff ff       	jmp    403e97 <close_file>

0000000000403f26 <__stdio_write>:
  403f26:	41 57                	push   %r15
  403f28:	41 bf 14 00 00 00    	mov    $0x14,%r15d
  403f2e:	41 56                	push   %r14
  403f30:	41 be 02 00 00 00    	mov    $0x2,%r14d
  403f36:	41 55                	push   %r13
  403f38:	49 89 d5             	mov    %rdx,%r13
  403f3b:	41 54                	push   %r12
  403f3d:	55                   	push   %rbp
  403f3e:	53                   	push   %rbx
  403f3f:	48 89 fb             	mov    %rdi,%rbx
  403f42:	48 83 ec 28          	sub    $0x28,%rsp
  403f46:	48 8b 47 38          	mov    0x38(%rdi),%rax
  403f4a:	4c 8b 67 28          	mov    0x28(%rdi),%r12
  403f4e:	48 89 74 24 10       	mov    %rsi,0x10(%rsp)
  403f53:	48 89 e5             	mov    %rsp,%rbp
  403f56:	48 89 04 24          	mov    %rax,(%rsp)
  403f5a:	49 29 c4             	sub    %rax,%r12
  403f5d:	48 89 54 24 18       	mov    %rdx,0x18(%rsp)
  403f62:	4c 89 64 24 08       	mov    %r12,0x8(%rsp)
  403f67:	49 01 d4             	add    %rdx,%r12
  403f6a:	48 63 7b 78          	movslq 0x78(%rbx),%rdi
  403f6e:	49 63 d6             	movslq %r14d,%rdx
  403f71:	4c 89 f8             	mov    %r15,%rax
  403f74:	48 89 ee             	mov    %rbp,%rsi
  403f77:	0f 05                	syscall
  403f79:	48 89 c7             	mov    %rax,%rdi
  403f7c:	e8 df fd ff ff       	call   403d60 <__syscall_ret>
  403f81:	49 39 c4             	cmp    %rax,%r12
  403f84:	75 19                	jne    403f9f <__stdio_write+0x79>
  403f86:	48 8b 43 58          	mov    0x58(%rbx),%rax
  403f8a:	48 8b 53 60          	mov    0x60(%rbx),%rdx
  403f8e:	48 01 c2             	add    %rax,%rdx
  403f91:	48 89 43 38          	mov    %rax,0x38(%rbx)
  403f95:	48 89 53 20          	mov    %rdx,0x20(%rbx)
  403f99:	48 89 43 28          	mov    %rax,0x28(%rbx)
  403f9d:	eb 52                	jmp    403ff1 <__stdio_write+0xcb>
  403f9f:	48 85 c0             	test   %rax,%rax
  403fa2:	79 27                	jns    403fcb <__stdio_write+0xa5>
  403fa4:	48 c7 43 20 00 00 00 	movq   $0x0,0x20(%rbx)
  403fab:	00 
  403fac:	48 c7 43 38 00 00 00 	movq   $0x0,0x38(%rbx)
  403fb3:	00 
  403fb4:	48 c7 43 28 00 00 00 	movq   $0x0,0x28(%rbx)
  403fbb:	00 
  403fbc:	83 0b 20             	orl    $0x20,(%rbx)
  403fbf:	41 83 fe 02          	cmp    $0x2,%r14d
  403fc3:	74 29                	je     403fee <__stdio_write+0xc8>
  403fc5:	4c 2b 6d 08          	sub    0x8(%rbp),%r13
  403fc9:	eb 26                	jmp    403ff1 <__stdio_write+0xcb>
  403fcb:	48 8b 55 08          	mov    0x8(%rbp),%rdx
  403fcf:	49 29 c4             	sub    %rax,%r12
  403fd2:	48 39 d0             	cmp    %rdx,%rax
  403fd5:	76 0a                	jbe    403fe1 <__stdio_write+0xbb>
  403fd7:	48 29 d0             	sub    %rdx,%rax
  403fda:	48 83 c5 10          	add    $0x10,%rbp
  403fde:	41 ff ce             	dec    %r14d
  403fe1:	48 01 45 00          	add    %rax,0x0(%rbp)
  403fe5:	48 29 45 08          	sub    %rax,0x8(%rbp)
  403fe9:	e9 7c ff ff ff       	jmp    403f6a <__stdio_write+0x44>
  403fee:	45 31 ed             	xor    %r13d,%r13d
  403ff1:	48 83 c4 28          	add    $0x28,%rsp
  403ff5:	4c 89 e8             	mov    %r13,%rax
  403ff8:	5b                   	pop    %rbx
  403ff9:	5d                   	pop    %rbp
  403ffa:	41 5c                	pop    %r12
  403ffc:	41 5d                	pop    %r13
  403ffe:	41 5e                	pop    %r14
  404000:	41 5f                	pop    %r15
  404002:	c3                   	ret

0000000000404003 <__toread>:
  404003:	8b 97 88 00 00 00    	mov    0x88(%rdi),%edx
  404009:	53                   	push   %rbx
  40400a:	48 89 fb             	mov    %rdi,%rbx
  40400d:	8d 42 ff             	lea    -0x1(%rdx),%eax
  404010:	09 d0                	or     %edx,%eax
  404012:	89 87 88 00 00 00    	mov    %eax,0x88(%rdi)
  404018:	48 8b 47 38          	mov    0x38(%rdi),%rax
  40401c:	48 39 47 28          	cmp    %rax,0x28(%rdi)
  404020:	74 07                	je     404029 <__toread+0x26>
  404022:	31 d2                	xor    %edx,%edx
  404024:	31 f6                	xor    %esi,%esi
  404026:	ff 57 48             	call   *0x48(%rdi)
  404029:	8b 03                	mov    (%rbx),%eax
  40402b:	48 c7 43 20 00 00 00 	movq   $0x0,0x20(%rbx)
  404032:	00 
  404033:	48 c7 43 38 00 00 00 	movq   $0x0,0x38(%rbx)
  40403a:	00 
  40403b:	48 c7 43 28 00 00 00 	movq   $0x0,0x28(%rbx)
  404042:	00 
  404043:	a8 04                	test   $0x4,%al
  404045:	74 0a                	je     404051 <__toread+0x4e>
  404047:	83 c8 20             	or     $0x20,%eax
  40404a:	89 03                	mov    %eax,(%rbx)
  40404c:	83 c8 ff             	or     $0xffffffff,%eax
  40404f:	eb 16                	jmp    404067 <__toread+0x64>
  404051:	48 8b 53 60          	mov    0x60(%rbx),%rdx
  404055:	48 03 53 58          	add    0x58(%rbx),%rdx
  404059:	c1 e0 1b             	shl    $0x1b,%eax
  40405c:	48 89 53 10          	mov    %rdx,0x10(%rbx)
  404060:	c1 f8 1f             	sar    $0x1f,%eax
  404063:	48 89 53 08          	mov    %rdx,0x8(%rbx)
  404067:	5b                   	pop    %rbx
  404068:	c3                   	ret

0000000000404069 <__toread_needs_stdio_exit>:
  404069:	e9 77 fe ff ff       	jmp    403ee5 <__stdio_exit>

000000000040406e <__do_global_ctors_aux>:
  40406e:	55                   	push   %rbp
  40406f:	48 89 e5             	mov    %rsp,%rbp
  404072:	53                   	push   %rbx
  404073:	bb e0 7f 40 00       	mov    $0x407fe0,%ebx
  404078:	52                   	push   %rdx
  404079:	48 8b 03             	mov    (%rbx),%rax
  40407c:	48 83 f8 ff          	cmp    $0xffffffffffffffff,%rax
  404080:	74 08                	je     40408a <__do_global_ctors_aux+0x1c>
  404082:	ff d0                	call   *%rax
  404084:	48 83 eb 08          	sub    $0x8,%rbx
  404088:	eb ef                	jmp    404079 <__do_global_ctors_aux+0xb>
  40408a:	58                   	pop    %rax
  40408b:	5b                   	pop    %rbx
  40408c:	5d                   	pop    %rbp
  40408d:	c3                   	ret

Disassembly of section .fini:

000000000040408e <_fini>:
  40408e:	50                   	push   %rax
  40408f:	e8 d3 cf ff ff       	call   401067 <__do_global_dtors_aux>
  404094:	58                   	pop    %rax
  404095:	c3                   	ret
